; Listing generated by Microsoft (R) Optimizing Compiler Version 19.27.29112.0 

	TITLE	D:\Programmieren\csgoHack\ProjektWolf\ImGui DirectX 9 Kiero Hook 2\imgui\imgui_widgets.cpp
	.686P
	.XMM
	include listing.inc
	.model	flat

INCLUDELIB MSVCRTD
INCLUDELIB OLDNAMES

PUBLIC	??_C@_02DPKJAMEF@?$CFd@				; `string'
PUBLIC	??_C@_02GMHACPFF@?$CFu@				; `string'
PUBLIC	??_C@_05LLAMLEHD@?$CFI64d@			; `string'
PUBLIC	??_C@_05OINFJHGD@?$CFI64u@			; `string'
PUBLIC	??_C@_02NJPGOMH@?$CFf@				; `string'
PUBLIC	??_C@_03DLDNIBIK@?$CFlf@			; `string'
PUBLIC	??_C@_03CEFFAPNG@?$CD?$CDX@			; `string'
PUBLIC	??_C@_03DNEODOJH@?$CD?$CDY@			; `string'
PUBLIC	??_C@_03BGGDGNFE@?$CD?$CDZ@			; `string'
PUBLIC	??_C@_03KDMNBDBJ@?$CD?$CDW@			; `string'
PUBLIC	??_C@_03GOOLIKIF@?$CF3d@			; `string'
PUBLIC	??_C@_05FELKPNOB@R?3?$CF3d@			; `string'
PUBLIC	??_C@_05HKBGOMJ@G?3?$CF3d@			; `string'
PUBLIC	??_C@_05FHGMPPHK@B?3?$CF3d@			; `string'
PUBLIC	??_C@_05NBPIINNE@A?3?$CF3d@			; `string'
PUBLIC	??_C@_05PGPHNMBM@H?3?$CF3d@			; `string'
PUBLIC	??_C@_05JPOGCOEE@S?3?$CF3d@			; `string'
PUBLIC	??_C@_05MPCLLPPH@V?3?$CF3d@			; `string'
PUBLIC	??_C@_05ONBKDNLK@?$CF0?43f@			; `string'
PUBLIC	??_C@_07CCOKENNH@R?3?$CF0?43f@			; `string'
PUBLIC	??_C@_07BGLBHCJI@G?3?$CF0?43f@			; `string'
PUBLIC	??_C@_07FOFBHMPM@B?3?$CF0?43f@			; `string'
PUBLIC	??_C@_07NANOHLBP@A?3?$CF0?43f@			; `string'
PUBLIC	??_C@_07MPJBGADE@H?3?$CF0?43f@			; `string'
PUBLIC	??_C@_07OOEAENEJ@S?3?$CF0?43f@			; `string'
PUBLIC	??_C@_07KGKAEDCN@V?3?$CF0?43f@			; `string'
msvcjmc	SEGMENT
__ED9CC025_corecrt_memcpy_s@h DB 01H
__241EEA0C_corecrt_memory@h DB 01H
__875914C9_corecrt_wstring@h DB 01H
__731387C4_string@h DB 01H
__42049807_imgui@h DB 01H
__1850469A_corecrt_stdio_config@h DB 01H
__01D10305_corecrt_wstdio@h DB 01H
__9FF75F13_stdio@h DB 01H
__F5601360_stdlib@h DB 01H
__E2865EBA_corecrt_math@h DB 01H
__71512A68_imgui_internal@h DB 01H
__40DF0D2D_ctype@h DB 01H
__E7AA0281_imstb_textedit@h DB 01H
__32F429E7_imgui_widgets@cpp DB 01H
msvcjmc	ENDS
;	COMDAT ??_C@_07KGKAEDCN@V?3?$CF0?43f@
CONST	SEGMENT
??_C@_07KGKAEDCN@V?3?$CF0?43f@ DB 'V:%0.3f', 00H	; `string'
CONST	ENDS
;	COMDAT ??_C@_07OOEAENEJ@S?3?$CF0?43f@
CONST	SEGMENT
??_C@_07OOEAENEJ@S?3?$CF0?43f@ DB 'S:%0.3f', 00H	; `string'
CONST	ENDS
;	COMDAT ??_C@_07MPJBGADE@H?3?$CF0?43f@
CONST	SEGMENT
??_C@_07MPJBGADE@H?3?$CF0?43f@ DB 'H:%0.3f', 00H	; `string'
CONST	ENDS
;	COMDAT ??_C@_07NANOHLBP@A?3?$CF0?43f@
CONST	SEGMENT
??_C@_07NANOHLBP@A?3?$CF0?43f@ DB 'A:%0.3f', 00H	; `string'
CONST	ENDS
;	COMDAT ??_C@_07FOFBHMPM@B?3?$CF0?43f@
CONST	SEGMENT
??_C@_07FOFBHMPM@B?3?$CF0?43f@ DB 'B:%0.3f', 00H	; `string'
CONST	ENDS
;	COMDAT ??_C@_07BGLBHCJI@G?3?$CF0?43f@
CONST	SEGMENT
??_C@_07BGLBHCJI@G?3?$CF0?43f@ DB 'G:%0.3f', 00H	; `string'
CONST	ENDS
;	COMDAT ??_C@_07CCOKENNH@R?3?$CF0?43f@
CONST	SEGMENT
??_C@_07CCOKENNH@R?3?$CF0?43f@ DB 'R:%0.3f', 00H	; `string'
CONST	ENDS
;	COMDAT ??_C@_05ONBKDNLK@?$CF0?43f@
CONST	SEGMENT
??_C@_05ONBKDNLK@?$CF0?43f@ DB '%0.3f', 00H		; `string'
CONST	ENDS
;	COMDAT ??_C@_05MPCLLPPH@V?3?$CF3d@
CONST	SEGMENT
??_C@_05MPCLLPPH@V?3?$CF3d@ DB 'V:%3d', 00H		; `string'
CONST	ENDS
;	COMDAT ??_C@_05JPOGCOEE@S?3?$CF3d@
CONST	SEGMENT
??_C@_05JPOGCOEE@S?3?$CF3d@ DB 'S:%3d', 00H		; `string'
CONST	ENDS
;	COMDAT ??_C@_05PGPHNMBM@H?3?$CF3d@
CONST	SEGMENT
??_C@_05PGPHNMBM@H?3?$CF3d@ DB 'H:%3d', 00H		; `string'
CONST	ENDS
;	COMDAT ??_C@_05NBPIINNE@A?3?$CF3d@
CONST	SEGMENT
??_C@_05NBPIINNE@A?3?$CF3d@ DB 'A:%3d', 00H		; `string'
CONST	ENDS
;	COMDAT ??_C@_05FHGMPPHK@B?3?$CF3d@
CONST	SEGMENT
??_C@_05FHGMPPHK@B?3?$CF3d@ DB 'B:%3d', 00H		; `string'
CONST	ENDS
;	COMDAT ??_C@_05HKBGOMJ@G?3?$CF3d@
CONST	SEGMENT
??_C@_05HKBGOMJ@G?3?$CF3d@ DB 'G:%3d', 00H		; `string'
CONST	ENDS
;	COMDAT ??_C@_05FELKPNOB@R?3?$CF3d@
CONST	SEGMENT
??_C@_05FELKPNOB@R?3?$CF3d@ DB 'R:%3d', 00H		; `string'
CONST	ENDS
;	COMDAT ??_C@_03GOOLIKIF@?$CF3d@
CONST	SEGMENT
??_C@_03GOOLIKIF@?$CF3d@ DB '%3d', 00H			; `string'
CONST	ENDS
;	COMDAT ??_C@_03KDMNBDBJ@?$CD?$CDW@
CONST	SEGMENT
??_C@_03KDMNBDBJ@?$CD?$CDW@ DB '##W', 00H		; `string'
CONST	ENDS
;	COMDAT ??_C@_03BGGDGNFE@?$CD?$CDZ@
CONST	SEGMENT
??_C@_03BGGDGNFE@?$CD?$CDZ@ DB '##Z', 00H		; `string'
CONST	ENDS
;	COMDAT ??_C@_03DNEODOJH@?$CD?$CDY@
CONST	SEGMENT
??_C@_03DNEODOJH@?$CD?$CDY@ DB '##Y', 00H		; `string'
CONST	ENDS
;	COMDAT ??_C@_03CEFFAPNG@?$CD?$CDX@
CONST	SEGMENT
??_C@_03CEFFAPNG@?$CD?$CDX@ DB '##X', 00H		; `string'
CONST	ENDS
;	COMDAT ??_C@_03DLDNIBIK@?$CFlf@
CONST	SEGMENT
??_C@_03DLDNIBIK@?$CFlf@ DB '%lf', 00H			; `string'
CONST	ENDS
;	COMDAT ??_C@_02NJPGOMH@?$CFf@
CONST	SEGMENT
??_C@_02NJPGOMH@?$CFf@ DB '%f', 00H			; `string'
CONST	ENDS
;	COMDAT ??_C@_05OINFJHGD@?$CFI64u@
CONST	SEGMENT
??_C@_05OINFJHGD@?$CFI64u@ DB '%I64u', 00H		; `string'
CONST	ENDS
;	COMDAT ??_C@_05LLAMLEHD@?$CFI64d@
CONST	SEGMENT
??_C@_05LLAMLEHD@?$CFI64d@ DB '%I64d', 00H		; `string'
CONST	ENDS
;	COMDAT ??_C@_02GMHACPFF@?$CFu@
CONST	SEGMENT
??_C@_02GMHACPFF@?$CFu@ DB '%u', 00H			; `string'
CONST	ENDS
;	COMDAT ??_C@_02DPKJAMEF@?$CFd@
CONST	SEGMENT
??_C@_02DPKJAMEF@?$CFd@ DB '%d', 00H			; `string'
CONST	ENDS
CONST	SEGMENT
?GDataTypeInfo@@3QBUImGuiDataTypeInfo@@B DD 01H		; GDataTypeInfo
	DD	FLAT:??_C@_02DPKJAMEF@?$CFd@
	DD	FLAT:??_C@_02DPKJAMEF@?$CFd@
	DD	01H
	DD	FLAT:??_C@_02GMHACPFF@?$CFu@
	DD	FLAT:??_C@_02GMHACPFF@?$CFu@
	DD	02H
	DD	FLAT:??_C@_02DPKJAMEF@?$CFd@
	DD	FLAT:??_C@_02DPKJAMEF@?$CFd@
	DD	02H
	DD	FLAT:??_C@_02GMHACPFF@?$CFu@
	DD	FLAT:??_C@_02GMHACPFF@?$CFu@
	DD	04H
	DD	FLAT:??_C@_02DPKJAMEF@?$CFd@
	DD	FLAT:??_C@_02DPKJAMEF@?$CFd@
	DD	04H
	DD	FLAT:??_C@_02GMHACPFF@?$CFu@
	DD	FLAT:??_C@_02GMHACPFF@?$CFu@
	DD	08H
	DD	FLAT:??_C@_05LLAMLEHD@?$CFI64d@
	DD	FLAT:??_C@_05LLAMLEHD@?$CFI64d@
	DD	08H
	DD	FLAT:??_C@_05OINFJHGD@?$CFI64u@
	DD	FLAT:??_C@_05OINFJHGD@?$CFI64u@
	DD	04H
	DD	FLAT:??_C@_02NJPGOMH@?$CFf@
	DD	FLAT:??_C@_02NJPGOMH@?$CFf@
	DD	08H
	DD	FLAT:??_C@_02NJPGOMH@?$CFf@
	DD	FLAT:??_C@_03DLDNIBIK@?$CFlf@
?min_steps@?1??GetMinimumStepAtDecimalPrecision@@YAMH@Z@4QBMB DD 03f800000r ; 1 ; `GetMinimumStepAtDecimalPrecision'::`2'::min_steps
	DD	03dcccccdr			; 0.1
	DD	03c23d70ar			; 0.01
	DD	03a83126fr			; 0.001
	DD	038d1b717r			; 0.0001
	DD	03727c5acr			; 1e-05
	DD	0358637bdr			; 1e-06
	DD	033d6bf95r			; 1e-07
	DD	0322bcc77r			; 1e-08
	DD	03089705fr			; 1e-09
CONST	ENDS
PUBLIC	??0ImVec2@@QAE@XZ				; ImVec2::ImVec2
PUBLIC	??0ImVec2@@QAE@MM@Z				; ImVec2::ImVec2
PUBLIC	??AImVec2@@QBEMI@Z				; ImVec2::operator[]
PUBLIC	??AImVec2@@QAEAAMI@Z				; ImVec2::operator[]
PUBLIC	??0ImVec4@@QAE@XZ				; ImVec4::ImVec4
PUBLIC	??0ImVec4@@QAE@MMMM@Z				; ImVec4::ImVec4
PUBLIC	?Separator@ImGui@@YAXXZ				; ImGui::Separator
PUBLIC	?NewLine@ImGui@@YAXXZ				; ImGui::NewLine
PUBLIC	?Spacing@ImGui@@YAXXZ				; ImGui::Spacing
PUBLIC	?Dummy@ImGui@@YAXABUImVec2@@@Z			; ImGui::Dummy
PUBLIC	?AlignTextToFramePadding@ImGui@@YAXXZ		; ImGui::AlignTextToFramePadding
PUBLIC	?TextUnformatted@ImGui@@YAXPBD0@Z		; ImGui::TextUnformatted
PUBLIC	?Text@ImGui@@YAXPBDZZ				; ImGui::Text
PUBLIC	?TextV@ImGui@@YAXPBDPAD@Z			; ImGui::TextV
PUBLIC	?TextColored@ImGui@@YAXABUImVec4@@PBDZZ		; ImGui::TextColored
PUBLIC	?TextColoredV@ImGui@@YAXABUImVec4@@PBDPAD@Z	; ImGui::TextColoredV
PUBLIC	?TextDisabled@ImGui@@YAXPBDZZ			; ImGui::TextDisabled
PUBLIC	?TextDisabledV@ImGui@@YAXPBDPAD@Z		; ImGui::TextDisabledV
PUBLIC	?TextWrapped@ImGui@@YAXPBDZZ			; ImGui::TextWrapped
PUBLIC	?TextWrappedV@ImGui@@YAXPBDPAD@Z		; ImGui::TextWrappedV
PUBLIC	?LabelText@ImGui@@YAXPBD0ZZ			; ImGui::LabelText
PUBLIC	?LabelTextV@ImGui@@YAXPBD0PAD@Z			; ImGui::LabelTextV
PUBLIC	?BulletText@ImGui@@YAXPBDZZ			; ImGui::BulletText
PUBLIC	?BulletTextV@ImGui@@YAXPBDPAD@Z			; ImGui::BulletTextV
PUBLIC	?Button@ImGui@@YA_NPBDABUImVec2@@@Z		; ImGui::Button
PUBLIC	?SmallButton@ImGui@@YA_NPBD@Z			; ImGui::SmallButton
PUBLIC	?InvisibleButton@ImGui@@YA_NPBDABUImVec2@@@Z	; ImGui::InvisibleButton
PUBLIC	?ArrowButton@ImGui@@YA_NPBDH@Z			; ImGui::ArrowButton
PUBLIC	?Image@ImGui@@YAXPAXABUImVec2@@11ABUImVec4@@2@Z	; ImGui::Image
PUBLIC	?ImageButton@ImGui@@YA_NPAXABUImVec2@@11HABUImVec4@@2@Z ; ImGui::ImageButton
PUBLIC	?Checkbox@ImGui@@YA_NPBDPA_N@Z			; ImGui::Checkbox
PUBLIC	?CheckboxFlags@ImGui@@YA_NPBDPAII@Z		; ImGui::CheckboxFlags
PUBLIC	?RadioButton@ImGui@@YA_NPBD_N@Z			; ImGui::RadioButton
PUBLIC	?RadioButton@ImGui@@YA_NPBDPAHH@Z		; ImGui::RadioButton
PUBLIC	?ProgressBar@ImGui@@YAXMABUImVec2@@PBD@Z	; ImGui::ProgressBar
PUBLIC	?Bullet@ImGui@@YAXXZ				; ImGui::Bullet
PUBLIC	?BeginCombo@ImGui@@YA_NPBD0H@Z			; ImGui::BeginCombo
PUBLIC	?EndCombo@ImGui@@YAXXZ				; ImGui::EndCombo
PUBLIC	?Combo@ImGui@@YA_NPBDPAHQBQBDHH@Z		; ImGui::Combo
PUBLIC	?Combo@ImGui@@YA_NPBDPAH0H@Z			; ImGui::Combo
PUBLIC	?Combo@ImGui@@YA_NPBDPAHP6A_NPAXHPAPBD@Z2HH@Z	; ImGui::Combo
PUBLIC	?DragFloat@ImGui@@YA_NPBDPAMMMM0M@Z		; ImGui::DragFloat
PUBLIC	?DragFloat2@ImGui@@YA_NPBDQAMMMM0M@Z		; ImGui::DragFloat2
PUBLIC	?DragFloat3@ImGui@@YA_NPBDQAMMMM0M@Z		; ImGui::DragFloat3
PUBLIC	?DragFloat4@ImGui@@YA_NPBDQAMMMM0M@Z		; ImGui::DragFloat4
PUBLIC	?DragFloatRange2@ImGui@@YA_NPBDPAM1MMM00M@Z	; ImGui::DragFloatRange2
PUBLIC	?DragInt@ImGui@@YA_NPBDPAHMHH0@Z		; ImGui::DragInt
PUBLIC	?DragInt2@ImGui@@YA_NPBDQAHMHH0@Z		; ImGui::DragInt2
PUBLIC	?DragInt3@ImGui@@YA_NPBDQAHMHH0@Z		; ImGui::DragInt3
PUBLIC	?DragInt4@ImGui@@YA_NPBDQAHMHH0@Z		; ImGui::DragInt4
PUBLIC	?DragIntRange2@ImGui@@YA_NPBDPAH1MHH00@Z	; ImGui::DragIntRange2
PUBLIC	?DragScalar@ImGui@@YA_NPBDHPAXMPBX20M@Z		; ImGui::DragScalar
PUBLIC	?DragScalarN@ImGui@@YA_NPBDHPAXHMPBX20M@Z	; ImGui::DragScalarN
PUBLIC	?SliderFloat@ImGui@@YA_NPBDPAMMM0M@Z		; ImGui::SliderFloat
PUBLIC	?SliderFloat2@ImGui@@YA_NPBDQAMMM0M@Z		; ImGui::SliderFloat2
PUBLIC	?SliderFloat3@ImGui@@YA_NPBDQAMMM0M@Z		; ImGui::SliderFloat3
PUBLIC	?SliderFloat4@ImGui@@YA_NPBDQAMMM0M@Z		; ImGui::SliderFloat4
PUBLIC	?SliderAngle@ImGui@@YA_NPBDPAMMM0@Z		; ImGui::SliderAngle
PUBLIC	?SliderInt@ImGui@@YA_NPBDPAHHH0@Z		; ImGui::SliderInt
PUBLIC	?SliderInt2@ImGui@@YA_NPBDQAHHH0@Z		; ImGui::SliderInt2
PUBLIC	?SliderInt3@ImGui@@YA_NPBDQAHHH0@Z		; ImGui::SliderInt3
PUBLIC	?SliderInt4@ImGui@@YA_NPBDQAHHH0@Z		; ImGui::SliderInt4
PUBLIC	?SliderScalar@ImGui@@YA_NPBDHPAXPBX20M@Z	; ImGui::SliderScalar
PUBLIC	?SliderScalarN@ImGui@@YA_NPBDHPAXHPBX20M@Z	; ImGui::SliderScalarN
PUBLIC	?VSliderFloat@ImGui@@YA_NPBDABUImVec2@@PAMMM0M@Z ; ImGui::VSliderFloat
PUBLIC	?VSliderInt@ImGui@@YA_NPBDABUImVec2@@PAHHH0@Z	; ImGui::VSliderInt
PUBLIC	?VSliderScalar@ImGui@@YA_NPBDABUImVec2@@HPAXPBX30M@Z ; ImGui::VSliderScalar
PUBLIC	?InputText@ImGui@@YA_NPBDPADIHP6AHPAUImGuiInputTextCallbackData@@@ZPAX@Z ; ImGui::InputText
PUBLIC	?InputTextMultiline@ImGui@@YA_NPBDPADIABUImVec2@@HP6AHPAUImGuiInputTextCallbackData@@@ZPAX@Z ; ImGui::InputTextMultiline
PUBLIC	?InputTextWithHint@ImGui@@YA_NPBD0PADIHP6AHPAUImGuiInputTextCallbackData@@@ZPAX@Z ; ImGui::InputTextWithHint
PUBLIC	?InputFloat@ImGui@@YA_NPBDPAMMM0H@Z		; ImGui::InputFloat
PUBLIC	?InputFloat2@ImGui@@YA_NPBDQAM0H@Z		; ImGui::InputFloat2
PUBLIC	?InputFloat3@ImGui@@YA_NPBDQAM0H@Z		; ImGui::InputFloat3
PUBLIC	?InputFloat4@ImGui@@YA_NPBDQAM0H@Z		; ImGui::InputFloat4
PUBLIC	?InputInt@ImGui@@YA_NPBDPAHHHH@Z		; ImGui::InputInt
PUBLIC	?InputInt2@ImGui@@YA_NPBDQAHH@Z			; ImGui::InputInt2
PUBLIC	?InputInt3@ImGui@@YA_NPBDQAHH@Z			; ImGui::InputInt3
PUBLIC	?InputInt4@ImGui@@YA_NPBDQAHH@Z			; ImGui::InputInt4
PUBLIC	?InputDouble@ImGui@@YA_NPBDPANNN0H@Z		; ImGui::InputDouble
PUBLIC	?InputScalar@ImGui@@YA_NPBDHPAXPBX20H@Z		; ImGui::InputScalar
PUBLIC	?InputScalarN@ImGui@@YA_NPBDHPAXHPBX20H@Z	; ImGui::InputScalarN
PUBLIC	?ColorEdit3@ImGui@@YA_NPBDQAMH@Z		; ImGui::ColorEdit3
PUBLIC	?ColorEdit4@ImGui@@YA_NPBDQAMH@Z		; ImGui::ColorEdit4
PUBLIC	?ColorPicker3@ImGui@@YA_NPBDQAMH@Z		; ImGui::ColorPicker3
PUBLIC	?ColorPicker4@ImGui@@YA_NPBDQAMHPBM@Z		; ImGui::ColorPicker4
PUBLIC	?ColorButton@ImGui@@YA_NPBDABUImVec4@@HUImVec2@@@Z ; ImGui::ColorButton
PUBLIC	?SetColorEditOptions@ImGui@@YAXH@Z		; ImGui::SetColorEditOptions
PUBLIC	?TreeNode@ImGui@@YA_NPBD@Z			; ImGui::TreeNode
PUBLIC	?TreeNode@ImGui@@YA_NPBD0ZZ			; ImGui::TreeNode
PUBLIC	?TreeNode@ImGui@@YA_NPBXPBDZZ			; ImGui::TreeNode
PUBLIC	?TreeNodeV@ImGui@@YA_NPBD0PAD@Z			; ImGui::TreeNodeV
PUBLIC	?TreeNodeV@ImGui@@YA_NPBXPBDPAD@Z		; ImGui::TreeNodeV
PUBLIC	?TreeNodeEx@ImGui@@YA_NPBDH@Z			; ImGui::TreeNodeEx
PUBLIC	?TreeNodeEx@ImGui@@YA_NPBDH0ZZ			; ImGui::TreeNodeEx
PUBLIC	?TreeNodeEx@ImGui@@YA_NPBXHPBDZZ		; ImGui::TreeNodeEx
PUBLIC	?TreeNodeExV@ImGui@@YA_NPBDH0PAD@Z		; ImGui::TreeNodeExV
PUBLIC	?TreeNodeExV@ImGui@@YA_NPBXHPBDPAD@Z		; ImGui::TreeNodeExV
PUBLIC	?TreePush@ImGui@@YAXPBD@Z			; ImGui::TreePush
PUBLIC	?TreePush@ImGui@@YAXPBX@Z			; ImGui::TreePush
PUBLIC	?TreePop@ImGui@@YAXXZ				; ImGui::TreePop
PUBLIC	?GetTreeNodeToLabelSpacing@ImGui@@YAMXZ		; ImGui::GetTreeNodeToLabelSpacing
PUBLIC	?CollapsingHeader@ImGui@@YA_NPBDH@Z		; ImGui::CollapsingHeader
PUBLIC	?CollapsingHeader@ImGui@@YA_NPBDPA_NH@Z		; ImGui::CollapsingHeader
PUBLIC	?SetNextItemOpen@ImGui@@YAX_NH@Z		; ImGui::SetNextItemOpen
PUBLIC	?Selectable@ImGui@@YA_NPBD_NHABUImVec2@@@Z	; ImGui::Selectable
PUBLIC	?Selectable@ImGui@@YA_NPBDPA_NHABUImVec2@@@Z	; ImGui::Selectable
PUBLIC	?ListBox@ImGui@@YA_NPBDPAHQBQBDHH@Z		; ImGui::ListBox
PUBLIC	?ListBox@ImGui@@YA_NPBDPAHP6A_NPAXHPAPBD@Z2HH@Z	; ImGui::ListBox
PUBLIC	?ListBoxHeader@ImGui@@YA_NPBDABUImVec2@@@Z	; ImGui::ListBoxHeader
PUBLIC	?ListBoxHeader@ImGui@@YA_NPBDHH@Z		; ImGui::ListBoxHeader
PUBLIC	?ListBoxFooter@ImGui@@YAXXZ			; ImGui::ListBoxFooter
PUBLIC	?PlotLines@ImGui@@YAXPBDPBMHH0MMUImVec2@@H@Z	; ImGui::PlotLines
PUBLIC	?PlotLines@ImGui@@YAXPBDP6AMPAXH@Z1HH0MMUImVec2@@@Z ; ImGui::PlotLines
PUBLIC	?PlotHistogram@ImGui@@YAXPBDPBMHH0MMUImVec2@@H@Z ; ImGui::PlotHistogram
PUBLIC	?PlotHistogram@ImGui@@YAXPBDP6AMPAXH@Z1HH0MMUImVec2@@@Z ; ImGui::PlotHistogram
PUBLIC	?Value@ImGui@@YAXPBD_N@Z			; ImGui::Value
PUBLIC	?Value@ImGui@@YAXPBDH@Z				; ImGui::Value
PUBLIC	?Value@ImGui@@YAXPBDI@Z				; ImGui::Value
PUBLIC	?Value@ImGui@@YAXPBDM0@Z			; ImGui::Value
PUBLIC	?BeginMenuBar@ImGui@@YA_NXZ			; ImGui::BeginMenuBar
PUBLIC	?EndMenuBar@ImGui@@YAXXZ			; ImGui::EndMenuBar
PUBLIC	?BeginMainMenuBar@ImGui@@YA_NXZ			; ImGui::BeginMainMenuBar
PUBLIC	?EndMainMenuBar@ImGui@@YAXXZ			; ImGui::EndMainMenuBar
PUBLIC	?BeginMenu@ImGui@@YA_NPBD_N@Z			; ImGui::BeginMenu
PUBLIC	?EndMenu@ImGui@@YAXXZ				; ImGui::EndMenu
PUBLIC	?MenuItem@ImGui@@YA_NPBD0_N1@Z			; ImGui::MenuItem
PUBLIC	?MenuItem@ImGui@@YA_NPBD0PA_N_N@Z		; ImGui::MenuItem
PUBLIC	?Columns@ImGui@@YAXHPBD_N@Z			; ImGui::Columns
PUBLIC	?NextColumn@ImGui@@YAXXZ			; ImGui::NextColumn
PUBLIC	?GetColumnIndex@ImGui@@YAHXZ			; ImGui::GetColumnIndex
PUBLIC	?GetColumnWidth@ImGui@@YAMH@Z			; ImGui::GetColumnWidth
PUBLIC	?SetColumnWidth@ImGui@@YAXHM@Z			; ImGui::SetColumnWidth
PUBLIC	?GetColumnOffset@ImGui@@YAMH@Z			; ImGui::GetColumnOffset
PUBLIC	?SetColumnOffset@ImGui@@YAXHM@Z			; ImGui::SetColumnOffset
PUBLIC	?GetColumnsCount@ImGui@@YAHXZ			; ImGui::GetColumnsCount
PUBLIC	?BeginTabBar@ImGui@@YA_NPBDH@Z			; ImGui::BeginTabBar
PUBLIC	?EndTabBar@ImGui@@YAXXZ				; ImGui::EndTabBar
PUBLIC	?BeginTabItem@ImGui@@YA_NPBDPA_NH@Z		; ImGui::BeginTabItem
PUBLIC	?EndTabItem@ImGui@@YAXXZ			; ImGui::EndTabItem
PUBLIC	?SetTabItemClosed@ImGui@@YAXPBD@Z		; ImGui::SetTabItemClosed
PUBLIC	??2@YAPAXIUImNewDummy@@PAX@Z			; operator new
PUBLIC	??3@YAXPAXUImNewDummy@@0@Z			; operator delete
PUBLIC	?empty@?$ImVector@G@@QBE_NXZ			; ImVector<unsigned short>::empty
PUBLIC	??A?$ImVector@G@@QAEAAGH@Z			; ImVector<unsigned short>::operator[]
PUBLIC	??A?$ImVector@G@@QBEABGH@Z			; ImVector<unsigned short>::operator[]
PUBLIC	?_grow_capacity@?$ImVector@G@@QBEHH@Z		; ImVector<unsigned short>::_grow_capacity
PUBLIC	?resize@?$ImVector@G@@QAEXH@Z			; ImVector<unsigned short>::resize
PUBLIC	?reserve@?$ImVector@G@@QAEXH@Z			; ImVector<unsigned short>::reserve
PUBLIC	?contains@?$ImVector@G@@QBE_NABG@Z		; ImVector<unsigned short>::contains
PUBLIC	??0ImGuiInputTextCallbackData@@QAE@XZ		; ImGuiInputTextCallbackData::ImGuiInputTextCallbackData
PUBLIC	?DeleteChars@ImGuiInputTextCallbackData@@QAEXHH@Z ; ImGuiInputTextCallbackData::DeleteChars
PUBLIC	?InsertChars@ImGuiInputTextCallbackData@@QAEXHPBD0@Z ; ImGuiInputTextCallbackData::InsertChars
PUBLIC	?InputFloat@ImGui@@YA_NPBDPAMMMHH@Z		; ImGui::InputFloat
PUBLIC	?InputFloat2@ImGui@@YA_NPBDQAMHH@Z		; ImGui::InputFloat2
PUBLIC	?InputFloat3@ImGui@@YA_NPBDQAMHH@Z		; ImGui::InputFloat3
PUBLIC	?InputFloat4@ImGui@@YA_NPBDQAMHH@Z		; ImGui::InputFloat4
PUBLIC	??0?$ImVector@D@@QAE@XZ				; ImVector<char>::ImVector<char>
PUBLIC	?_grow_capacity@?$ImVector@D@@QBEHH@Z		; ImVector<char>::_grow_capacity
PUBLIC	?resize@?$ImVector@D@@QAEXH@Z			; ImVector<char>::resize
PUBLIC	?reserve@?$ImVector@D@@QAEXH@Z			; ImVector<char>::reserve
PUBLIC	??0ImGuiTextBuffer@@QAE@XZ			; ImGuiTextBuffer::ImGuiTextBuffer
PUBLIC	?size@ImGuiTextBuffer@@QBEHXZ			; ImGuiTextBuffer::size
PUBLIC	??0ImGuiListClipper@@QAE@HM@Z			; ImGuiListClipper::ImGuiListClipper
PUBLIC	??1ImGuiListClipper@@QAE@XZ			; ImGuiListClipper::~ImGuiListClipper
PUBLIC	?_grow_capacity@?$ImVector@UImVec2@@@@QBEHH@Z	; ImVector<ImVec2>::_grow_capacity
PUBLIC	?reserve@?$ImVector@UImVec2@@@@QAEXH@Z		; ImVector<ImVec2>::reserve
PUBLIC	?push_back@?$ImVector@UImVec2@@@@QAEXABUImVec2@@@Z ; ImVector<ImVec2>::push_back
PUBLIC	?PathLineTo@ImDrawList@@QAEXABUImVec2@@@Z	; ImDrawList::PathLineTo
PUBLIC	?PathFillConvex@ImDrawList@@QAEXI@Z		; ImDrawList::PathFillConvex
PUBLIC	?PathStroke@ImDrawList@@QAEXI_NM@Z		; ImDrawList::PathStroke
PUBLIC	?ChannelsSplit@ImDrawList@@QAEXH@Z		; ImDrawList::ChannelsSplit
PUBLIC	?ChannelsMerge@ImDrawList@@QAEXXZ		; ImDrawList::ChannelsMerge
PUBLIC	?ChannelsSetCurrent@ImDrawList@@QAEXH@Z		; ImDrawList::ChannelsSetCurrent
PUBLIC	?PrimWriteVtx@ImDrawList@@QAEXABUImVec2@@0I@Z	; ImDrawList::PrimWriteVtx
PUBLIC	?PrimWriteIdx@ImDrawList@@QAEXG@Z		; ImDrawList::PrimWriteIdx
PUBLIC	?PrimVtx@ImDrawList@@QAEXABUImVec2@@0I@Z	; ImDrawList::PrimVtx
PUBLIC	?back@?$ImVector@I@@QAEAAIXZ			; ImVector<unsigned int>::back
PUBLIC	?_grow_capacity@?$ImVector@I@@QBEHH@Z		; ImVector<unsigned int>::_grow_capacity
PUBLIC	?reserve@?$ImVector@I@@QAEXH@Z			; ImVector<unsigned int>::reserve
PUBLIC	?push_back@?$ImVector@I@@QAEXABI@Z		; ImVector<unsigned int>::push_back
PUBLIC	?pop_back@?$ImVector@I@@QAEXXZ			; ImVector<unsigned int>::pop_back
PUBLIC	?empty@?$ImVector@M@@QBE_NXZ			; ImVector<float>::empty
PUBLIC	??A?$ImVector@M@@QBEABMH@Z			; ImVector<float>::operator[]
PUBLIC	?empty@?$ImVector@UImFontGlyph@@@@QBE_NXZ	; ImVector<ImFontGlyph>::empty
PUBLIC	?GetCharAdvance@ImFont@@QBEMG@Z			; ImFont::GetCharAdvance
PUBLIC	___local_stdio_scanf_options
PUBLIC	__vsscanf_l
PUBLIC	_sscanf
PUBLIC	_atan2f
PUBLIC	_cosf
PUBLIC	_fabsf
PUBLIC	_fmodf
PUBLIC	_powf
PUBLIC	_sinf
PUBLIC	?ImParseFormatFindStart@@YAPBDPBD@Z		; ImParseFormatFindStart
PUBLIC	?ImParseFormatFindEnd@@YAPBDPBD@Z		; ImParseFormatFindEnd
PUBLIC	?ImParseFormatTrimDecorations@@YAPBDPBDPADI@Z	; ImParseFormatTrimDecorations
PUBLIC	?ImParseFormatPrecision@@YAHPBDH@Z		; ImParseFormatPrecision
PUBLIC	??0ImRect@@QAE@XZ				; ImRect::ImRect
PUBLIC	??0ImRect@@QAE@ABUImVec2@@0@Z			; ImRect::ImRect
PUBLIC	??0ImRect@@QAE@ABUImVec4@@@Z			; ImRect::ImRect
PUBLIC	??0ImRect@@QAE@MMMM@Z				; ImRect::ImRect
PUBLIC	?GetCenter@ImRect@@QBE?AUImVec2@@XZ		; ImRect::GetCenter
PUBLIC	?GetSize@ImRect@@QBE?AUImVec2@@XZ		; ImRect::GetSize
PUBLIC	?GetWidth@ImRect@@QBEMXZ			; ImRect::GetWidth
PUBLIC	?GetHeight@ImRect@@QBEMXZ			; ImRect::GetHeight
PUBLIC	?GetTL@ImRect@@QBE?AUImVec2@@XZ			; ImRect::GetTL
PUBLIC	?GetTR@ImRect@@QBE?AUImVec2@@XZ			; ImRect::GetTR
PUBLIC	?GetBL@ImRect@@QBE?AUImVec2@@XZ			; ImRect::GetBL
PUBLIC	?GetBR@ImRect@@QBE?AUImVec2@@XZ			; ImRect::GetBR
PUBLIC	?Contains@ImRect@@QBE_NABUImVec2@@@Z		; ImRect::Contains
PUBLIC	?Contains@ImRect@@QBE_NABU1@@Z			; ImRect::Contains
PUBLIC	?Overlaps@ImRect@@QBE_NABU1@@Z			; ImRect::Overlaps
PUBLIC	?Expand@ImRect@@QAEXM@Z				; ImRect::Expand
PUBLIC	?Expand@ImRect@@QAEXABUImVec2@@@Z		; ImRect::Expand
PUBLIC	?Translate@ImRect@@QAEXABUImVec2@@@Z		; ImRect::Translate
PUBLIC	?ClipWith@ImRect@@QAEXABU1@@Z			; ImRect::ClipWith
PUBLIC	??0ImGuiMenuColumns@@QAE@XZ			; ImGuiMenuColumns::ImGuiMenuColumns
PUBLIC	?Update@ImGuiMenuColumns@@QAEXHM_N@Z		; ImGuiMenuColumns::Update
PUBLIC	?DeclColumns@ImGuiMenuColumns@@QAEMMMM@Z	; ImGuiMenuColumns::DeclColumns
PUBLIC	?CalcExtraSpace@ImGuiMenuColumns@@QBEMM@Z	; ImGuiMenuColumns::CalcExtraSpace
PUBLIC	?OnKeyPressed@ImGuiInputTextState@@QAEXH@Z	; ImGuiInputTextState::OnKeyPressed
PUBLIC	?CursorAnimReset@ImGuiInputTextState@@QAEXXZ	; ImGuiInputTextState::CursorAnimReset
PUBLIC	?CursorClamp@ImGuiInputTextState@@QAEXXZ	; ImGuiInputTextState::CursorClamp
PUBLIC	?HasSelection@ImGuiInputTextState@@QBE_NXZ	; ImGuiInputTextState::HasSelection
PUBLIC	?ClearSelection@ImGuiInputTextState@@QAEXXZ	; ImGuiInputTextState::ClearSelection
PUBLIC	?SelectAll@ImGuiInputTextState@@QAEXXZ		; ImGuiInputTextState::SelectAll
PUBLIC	??0ImGuiColumnData@@QAE@XZ			; ImGuiColumnData::ImGuiColumnData
PUBLIC	??0?$ImVector@UImGuiColumnData@@@@QAE@XZ	; ImVector<ImGuiColumnData>::ImVector<ImGuiColumnData>
PUBLIC	??1?$ImVector@UImGuiColumnData@@@@QAE@XZ	; ImVector<ImGuiColumnData>::~ImVector<ImGuiColumnData>
PUBLIC	??A?$ImVector@UImGuiColumnData@@@@QAEAAUImGuiColumnData@@H@Z ; ImVector<ImGuiColumnData>::operator[]
PUBLIC	?clear@?$ImVector@UImGuiColumnData@@@@QAEXXZ	; ImVector<ImGuiColumnData>::clear
PUBLIC	?_grow_capacity@?$ImVector@UImGuiColumnData@@@@QBEHH@Z ; ImVector<ImGuiColumnData>::_grow_capacity
PUBLIC	?resize@?$ImVector@UImGuiColumnData@@@@QAEXH@Z	; ImVector<ImGuiColumnData>::resize
PUBLIC	?reserve@?$ImVector@UImGuiColumnData@@@@QAEXH@Z	; ImVector<ImGuiColumnData>::reserve
PUBLIC	?push_back@?$ImVector@UImGuiColumnData@@@@QAEXABUImGuiColumnData@@@Z ; ImVector<ImGuiColumnData>::push_back
PUBLIC	??0ImGuiColumns@@QAE@XZ				; ImGuiColumns::ImGuiColumns
PUBLIC	?Clear@ImGuiColumns@@QAEXXZ			; ImGuiColumns::Clear
PUBLIC	??1ImGuiColumns@@QAE@XZ				; ImGuiColumns::~ImGuiColumns
PUBLIC	?ClearFlags@ImGuiNextItemData@@QAEXXZ		; ImGuiNextItemData::ClearFlags
PUBLIC	??0ImGuiPtrOrIndex@@QAE@PAX@Z			; ImGuiPtrOrIndex::ImGuiPtrOrIndex
PUBLIC	??0ImGuiPtrOrIndex@@QAE@H@Z			; ImGuiPtrOrIndex::ImGuiPtrOrIndex
PUBLIC	??A?$ImVector@UImGuiPopupData@@@@QAEAAUImGuiPopupData@@H@Z ; ImVector<ImGuiPopupData>::operator[]
PUBLIC	??A?$ImVector@UImGuiTabBar@@@@QAEAAUImGuiTabBar@@H@Z ; ImVector<ImGuiTabBar>::operator[]
PUBLIC	?_grow_capacity@?$ImVector@UImGuiTabBar@@@@QBEHH@Z ; ImVector<ImGuiTabBar>::_grow_capacity
PUBLIC	?resize@?$ImVector@UImGuiTabBar@@@@QAEXH@Z	; ImVector<ImGuiTabBar>::resize
PUBLIC	?reserve@?$ImVector@UImGuiTabBar@@@@QAEXH@Z	; ImVector<ImGuiTabBar>::reserve
PUBLIC	?GetByIndex@?$ImPool@UImGuiTabBar@@@@QAEPAUImGuiTabBar@@H@Z ; ImPool<ImGuiTabBar>::GetByIndex
PUBLIC	?GetIndex@?$ImPool@UImGuiTabBar@@@@QBEHPBUImGuiTabBar@@@Z ; ImPool<ImGuiTabBar>::GetIndex
PUBLIC	?GetOrAddByKey@?$ImPool@UImGuiTabBar@@@@QAEPAUImGuiTabBar@@I@Z ; ImPool<ImGuiTabBar>::GetOrAddByKey
PUBLIC	?Contains@?$ImPool@UImGuiTabBar@@@@QBE_NPBUImGuiTabBar@@@Z ; ImPool<ImGuiTabBar>::Contains
PUBLIC	?Add@?$ImPool@UImGuiTabBar@@@@QAEPAUImGuiTabBar@@XZ ; ImPool<ImGuiTabBar>::Add
PUBLIC	?empty@?$ImVector@UImGuiPtrOrIndex@@@@QBE_NXZ	; ImVector<ImGuiPtrOrIndex>::empty
PUBLIC	?back@?$ImVector@UImGuiPtrOrIndex@@@@QAEAAUImGuiPtrOrIndex@@XZ ; ImVector<ImGuiPtrOrIndex>::back
PUBLIC	?_grow_capacity@?$ImVector@UImGuiPtrOrIndex@@@@QBEHH@Z ; ImVector<ImGuiPtrOrIndex>::_grow_capacity
PUBLIC	?reserve@?$ImVector@UImGuiPtrOrIndex@@@@QAEXH@Z	; ImVector<ImGuiPtrOrIndex>::reserve
PUBLIC	?push_back@?$ImVector@UImGuiPtrOrIndex@@@@QAEXABUImGuiPtrOrIndex@@@Z ; ImVector<ImGuiPtrOrIndex>::push_back
PUBLIC	?pop_back@?$ImVector@UImGuiPtrOrIndex@@@@QAEXXZ	; ImVector<ImGuiPtrOrIndex>::pop_back
PUBLIC	??A?$ImVector@UImGuiShrinkWidthItem@@@@QAEAAUImGuiShrinkWidthItem@@H@Z ; ImVector<ImGuiShrinkWidthItem>::operator[]
PUBLIC	?_grow_capacity@?$ImVector@UImGuiShrinkWidthItem@@@@QBEHH@Z ; ImVector<ImGuiShrinkWidthItem>::_grow_capacity
PUBLIC	?resize@?$ImVector@UImGuiShrinkWidthItem@@@@QAEXH@Z ; ImVector<ImGuiShrinkWidthItem>::resize
PUBLIC	?reserve@?$ImVector@UImGuiShrinkWidthItem@@@@QAEXH@Z ; ImVector<ImGuiShrinkWidthItem>::reserve
PUBLIC	?empty@?$ImVector@UImGuiGroupData@@@@QBE_NXZ	; ImVector<ImGuiGroupData>::empty
PUBLIC	?back@?$ImVector@UImGuiGroupData@@@@QAEAAUImGuiGroupData@@XZ ; ImVector<ImGuiGroupData>::back
PUBLIC	??A?$ImVector@UImGuiColumns@@@@QAEAAUImGuiColumns@@H@Z ; ImVector<ImGuiColumns>::operator[]
PUBLIC	?back@?$ImVector@UImGuiColumns@@@@QAEAAUImGuiColumns@@XZ ; ImVector<ImGuiColumns>::back
PUBLIC	?_grow_capacity@?$ImVector@UImGuiColumns@@@@QBEHH@Z ; ImVector<ImGuiColumns>::_grow_capacity
PUBLIC	?reserve@?$ImVector@UImGuiColumns@@@@QAEXH@Z	; ImVector<ImGuiColumns>::reserve
PUBLIC	?push_back@?$ImVector@UImGuiColumns@@@@QAEXABUImGuiColumns@@@Z ; ImVector<ImGuiColumns>::push_back
PUBLIC	?Rect@ImGuiWindow@@QBE?AUImRect@@XZ		; ImGuiWindow::Rect
PUBLIC	?CalcFontSize@ImGuiWindow@@QBEMXZ		; ImGuiWindow::CalcFontSize
PUBLIC	?TitleBarHeight@ImGuiWindow@@QBEMXZ		; ImGuiWindow::TitleBarHeight
PUBLIC	?MenuBarHeight@ImGuiWindow@@QBEMXZ		; ImGuiWindow::MenuBarHeight
PUBLIC	?MenuBarRect@ImGuiWindow@@QBE?AUImRect@@XZ	; ImGuiWindow::MenuBarRect
PUBLIC	??0ImGuiItemHoveredDataBackup@@QAE@XZ		; ImGuiItemHoveredDataBackup::ImGuiItemHoveredDataBackup
PUBLIC	?Backup@ImGuiItemHoveredDataBackup@@QAEXXZ	; ImGuiItemHoveredDataBackup::Backup
PUBLIC	?Restore@ImGuiItemHoveredDataBackup@@QBEXXZ	; ImGuiItemHoveredDataBackup::Restore
PUBLIC	??0ImGuiTabItem@@QAE@XZ				; ImGuiTabItem::ImGuiTabItem
PUBLIC	??0?$ImVector@UImGuiTabItem@@@@QAE@XZ		; ImVector<ImGuiTabItem>::ImVector<ImGuiTabItem>
PUBLIC	??1?$ImVector@UImGuiTabItem@@@@QAE@XZ		; ImVector<ImGuiTabItem>::~ImVector<ImGuiTabItem>
PUBLIC	??A?$ImVector@UImGuiTabItem@@@@QAEAAUImGuiTabItem@@H@Z ; ImVector<ImGuiTabItem>::operator[]
PUBLIC	?back@?$ImVector@UImGuiTabItem@@@@QAEAAUImGuiTabItem@@XZ ; ImVector<ImGuiTabItem>::back
PUBLIC	?_grow_capacity@?$ImVector@UImGuiTabItem@@@@QBEHH@Z ; ImVector<ImGuiTabItem>::_grow_capacity
PUBLIC	?resize@?$ImVector@UImGuiTabItem@@@@QAEXH@Z	; ImVector<ImGuiTabItem>::resize
PUBLIC	?reserve@?$ImVector@UImGuiTabItem@@@@QAEXH@Z	; ImVector<ImGuiTabItem>::reserve
PUBLIC	?push_back@?$ImVector@UImGuiTabItem@@@@QAEXABUImGuiTabItem@@@Z ; ImVector<ImGuiTabItem>::push_back
PUBLIC	?erase@?$ImVector@UImGuiTabItem@@@@QAEPAUImGuiTabItem@@PBU2@@Z ; ImVector<ImGuiTabItem>::erase
PUBLIC	?index_from_ptr@?$ImVector@UImGuiTabItem@@@@QBEHPBUImGuiTabItem@@@Z ; ImVector<ImGuiTabItem>::index_from_ptr
PUBLIC	??0ImGuiTabBar@@QAE@XZ				; ImGuiTabBar::ImGuiTabBar
PUBLIC	?GetTabOrder@ImGuiTabBar@@QBEHPBUImGuiTabItem@@@Z ; ImGuiTabBar::GetTabOrder
PUBLIC	?GetTabName@ImGuiTabBar@@QBEPBDPBUImGuiTabItem@@@Z ; ImGuiTabBar::GetTabName
PUBLIC	?GetCurrentWindowRead@ImGui@@YAPAUImGuiWindow@@XZ ; ImGui::GetCurrentWindowRead
PUBLIC	?GetCurrentWindow@ImGui@@YAPAUImGuiWindow@@XZ	; ImGui::GetCurrentWindow
PUBLIC	?ShrinkWidths@ImGui@@YAXPAUImGuiShrinkWidthItem@@HM@Z ; ImGui::ShrinkWidths
PUBLIC	?IsKeyPressedMap@ImGui@@YA_NH_N@Z		; ImGui::IsKeyPressedMap
PUBLIC	?IsNavInputDown@ImGui@@YA_NH@Z			; ImGui::IsNavInputDown
PUBLIC	?IsNavInputTest@ImGui@@YA_NHW4ImGuiInputReadMode@@@Z ; ImGui::IsNavInputTest
PUBLIC	?BeginColumns@ImGui@@YAXPBDHH@Z			; ImGui::BeginColumns
PUBLIC	?EndColumns@ImGui@@YAXXZ			; ImGui::EndColumns
PUBLIC	?PushColumnClipRect@ImGui@@YAXH@Z		; ImGui::PushColumnClipRect
PUBLIC	?PushColumnsBackground@ImGui@@YAXXZ		; ImGui::PushColumnsBackground
PUBLIC	?PopColumnsBackground@ImGui@@YAXXZ		; ImGui::PopColumnsBackground
PUBLIC	?GetColumnsID@ImGui@@YAIPBDH@Z			; ImGui::GetColumnsID
PUBLIC	?FindOrCreateColumns@ImGui@@YAPAUImGuiColumns@@PAUImGuiWindow@@I@Z ; ImGui::FindOrCreateColumns
PUBLIC	?GetColumnOffsetFromNorm@ImGui@@YAMPBUImGuiColumns@@M@Z ; ImGui::GetColumnOffsetFromNorm
PUBLIC	?GetColumnNormFromOffset@ImGui@@YAMPBUImGuiColumns@@M@Z ; ImGui::GetColumnNormFromOffset
PUBLIC	?BeginTabBarEx@ImGui@@YA_NPAUImGuiTabBar@@ABUImRect@@H@Z ; ImGui::BeginTabBarEx
PUBLIC	?TabBarFindTabByID@ImGui@@YAPAUImGuiTabItem@@PAUImGuiTabBar@@I@Z ; ImGui::TabBarFindTabByID
PUBLIC	?TabBarRemoveTab@ImGui@@YAXPAUImGuiTabBar@@I@Z	; ImGui::TabBarRemoveTab
PUBLIC	?TabBarCloseTab@ImGui@@YAXPAUImGuiTabBar@@PAUImGuiTabItem@@@Z ; ImGui::TabBarCloseTab
PUBLIC	?TabBarQueueChangeTabOrder@ImGui@@YAXPAUImGuiTabBar@@PBUImGuiTabItem@@H@Z ; ImGui::TabBarQueueChangeTabOrder
PUBLIC	?TabItemEx@ImGui@@YA_NPAUImGuiTabBar@@PBDPA_NH@Z ; ImGui::TabItemEx
PUBLIC	?TabItemCalcSize@ImGui@@YA?AUImVec2@@PBD_N@Z	; ImGui::TabItemCalcSize
PUBLIC	?TabItemBackground@ImGui@@YAXPAUImDrawList@@ABUImRect@@HI@Z ; ImGui::TabItemBackground
PUBLIC	?TabItemLabelAndCloseButton@ImGui@@YA_NPAUImDrawList@@ABUImRect@@HUImVec2@@PBDII@Z ; ImGui::TabItemLabelAndCloseButton
PUBLIC	?RenderColorRectWithAlphaCheckerboard@ImGui@@YAXUImVec2@@0IM0MH@Z ; ImGui::RenderColorRectWithAlphaCheckerboard
PUBLIC	?TextEx@ImGui@@YAXPBD0H@Z			; ImGui::TextEx
PUBLIC	?ButtonEx@ImGui@@YA_NPBDABUImVec2@@H@Z		; ImGui::ButtonEx
PUBLIC	?CloseButton@ImGui@@YA_NIABUImVec2@@@Z		; ImGui::CloseButton
PUBLIC	?CollapseButton@ImGui@@YA_NIABUImVec2@@@Z	; ImGui::CollapseButton
PUBLIC	?ArrowButtonEx@ImGui@@YA_NPBDHUImVec2@@H@Z	; ImGui::ArrowButtonEx
PUBLIC	?Scrollbar@ImGui@@YAXW4ImGuiAxis@@@Z		; ImGui::Scrollbar
PUBLIC	?ScrollbarEx@ImGui@@YA_NABUImRect@@IW4ImGuiAxis@@PAMMMH@Z ; ImGui::ScrollbarEx
PUBLIC	?GetWindowScrollbarID@ImGui@@YAIPAUImGuiWindow@@W4ImGuiAxis@@@Z ; ImGui::GetWindowScrollbarID
PUBLIC	?SeparatorEx@ImGui@@YAXH@Z			; ImGui::SeparatorEx
PUBLIC	?ButtonBehavior@ImGui@@YA_NABUImRect@@IPA_N1H@Z	; ImGui::ButtonBehavior
PUBLIC	?DragBehavior@ImGui@@YA_NIHPAXMPBX1PBDMH@Z	; ImGui::DragBehavior
PUBLIC	?SliderBehavior@ImGui@@YA_NABUImRect@@IHPAXPBX2PBDMHPAU2@@Z ; ImGui::SliderBehavior
PUBLIC	?SplitterBehavior@ImGui@@YA_NABUImRect@@IW4ImGuiAxis@@PAM2MMMM@Z ; ImGui::SplitterBehavior
PUBLIC	?TreeNodeBehavior@ImGui@@YA_NIHPBD0@Z		; ImGui::TreeNodeBehavior
PUBLIC	?TreeNodeBehaviorIsOpen@ImGui@@YA_NIH@Z		; ImGui::TreeNodeBehaviorIsOpen
PUBLIC	?TreePushOverrideID@ImGui@@YAXI@Z		; ImGui::TreePushOverrideID
PUBLIC	?DataTypeGetInfo@ImGui@@YAPBUImGuiDataTypeInfo@@H@Z ; ImGui::DataTypeGetInfo
PUBLIC	?DataTypeFormatString@ImGui@@YAHPADHHPBXPBD@Z	; ImGui::DataTypeFormatString
PUBLIC	?DataTypeApplyOp@ImGui@@YAXHHPAX0PBX@Z		; ImGui::DataTypeApplyOp
PUBLIC	?DataTypeApplyOpFromText@ImGui@@YA_NPBD0HPAX0@Z	; ImGui::DataTypeApplyOpFromText
PUBLIC	?InputTextEx@ImGui@@YA_NPBD0PADHABUImVec2@@HP6AHPAUImGuiInputTextCallbackData@@@ZPAX@Z ; ImGui::InputTextEx
PUBLIC	?TempInputTextScalar@ImGui@@YA_NABUImRect@@IPBDHPAX1@Z ; ImGui::TempInputTextScalar
PUBLIC	?TempInputTextIsActive@ImGui@@YA_NI@Z		; ImGui::TempInputTextIsActive
PUBLIC	?ColorTooltip@ImGui@@YAXPBDPBMH@Z		; ImGui::ColorTooltip
PUBLIC	?ColorEditOptionsPopup@ImGui@@YAXPBMH@Z		; ImGui::ColorEditOptionsPopup
PUBLIC	?ColorPickerOptionsPopup@ImGui@@YAXPBMH@Z	; ImGui::ColorPickerOptionsPopup
PUBLIC	?PlotEx@ImGui@@YAXW4ImGuiPlotType@@PBDP6AMPAXH@Z2HH1MMUImVec2@@@Z ; ImGui::PlotEx
PUBLIC	??$DragBehaviorT@HHM@ImGui@@YA_NHPAHMHHPBDMH@Z	; ImGui::DragBehaviorT<int,int,float>
PUBLIC	??$DragBehaviorT@IHM@ImGui@@YA_NHPAIMIIPBDMH@Z	; ImGui::DragBehaviorT<unsigned int,int,float>
PUBLIC	??$DragBehaviorT@_J_JN@ImGui@@YA_NHPA_JM_J1PBDMH@Z ; ImGui::DragBehaviorT<__int64,__int64,double>
PUBLIC	??$DragBehaviorT@_K_JN@ImGui@@YA_NHPA_KM_K1PBDMH@Z ; ImGui::DragBehaviorT<unsigned __int64,__int64,double>
PUBLIC	??$DragBehaviorT@MMM@ImGui@@YA_NHPAMMMMPBDMH@Z	; ImGui::DragBehaviorT<float,float,float>
PUBLIC	??$DragBehaviorT@NNN@ImGui@@YA_NHPANMNNPBDMH@Z	; ImGui::DragBehaviorT<double,double,double>
PUBLIC	??$SliderBehaviorT@HHM@ImGui@@YA_NABUImRect@@IHPAHHHPBDMHPAU1@@Z ; ImGui::SliderBehaviorT<int,int,float>
PUBLIC	??$SliderBehaviorT@IHM@ImGui@@YA_NABUImRect@@IHPAIIIPBDMHPAU1@@Z ; ImGui::SliderBehaviorT<unsigned int,int,float>
PUBLIC	??$SliderBehaviorT@_J_JN@ImGui@@YA_NABUImRect@@IHPA_J_J2PBDMHPAU1@@Z ; ImGui::SliderBehaviorT<__int64,__int64,double>
PUBLIC	??$SliderBehaviorT@_K_JN@ImGui@@YA_NABUImRect@@IHPA_K_K2PBDMHPAU1@@Z ; ImGui::SliderBehaviorT<unsigned __int64,__int64,double>
PUBLIC	??$SliderBehaviorT@MMM@ImGui@@YA_NABUImRect@@IHPAMMMPBDMHPAU1@@Z ; ImGui::SliderBehaviorT<float,float,float>
PUBLIC	??$SliderBehaviorT@NNN@ImGui@@YA_NABUImRect@@IHPANNNPBDMHPAU1@@Z ; ImGui::SliderBehaviorT<double,double,double>
PUBLIC	??0ImGuiPlotArrayGetterData@@QAE@PBMH@Z		; ImGuiPlotArrayGetterData::ImGuiPlotArrayGetterData
PUBLIC	??$RoundScalarWithFormatT@HH@ImGui@@YAHPBDHH@Z	; ImGui::RoundScalarWithFormatT<int,int>
PUBLIC	??$RoundScalarWithFormatT@IH@ImGui@@YAIPBDHI@Z	; ImGui::RoundScalarWithFormatT<unsigned int,int>
PUBLIC	??$RoundScalarWithFormatT@_J_J@ImGui@@YA_JPBDH_J@Z ; ImGui::RoundScalarWithFormatT<__int64,__int64>
PUBLIC	??$RoundScalarWithFormatT@_K_J@ImGui@@YA_KPBDH_K@Z ; ImGui::RoundScalarWithFormatT<unsigned __int64,__int64>
PUBLIC	??$RoundScalarWithFormatT@MM@ImGui@@YAMPBDHM@Z	; ImGui::RoundScalarWithFormatT<float,float>
PUBLIC	??$RoundScalarWithFormatT@NN@ImGui@@YANPBDHN@Z	; ImGui::RoundScalarWithFormatT<double,double>
PUBLIC	??$SliderCalcRatioFromValueT@HM@ImGui@@YAMHHHHMM@Z ; ImGui::SliderCalcRatioFromValueT<int,float>
PUBLIC	??$SliderCalcRatioFromValueT@IM@ImGui@@YAMHIIIMM@Z ; ImGui::SliderCalcRatioFromValueT<unsigned int,float>
PUBLIC	??$SliderCalcRatioFromValueT@_JN@ImGui@@YAMH_J00MM@Z ; ImGui::SliderCalcRatioFromValueT<__int64,double>
PUBLIC	??$SliderCalcRatioFromValueT@_KN@ImGui@@YAMH_K00MM@Z ; ImGui::SliderCalcRatioFromValueT<unsigned __int64,double>
PUBLIC	??$SliderCalcRatioFromValueT@MM@ImGui@@YAMHMMMMM@Z ; ImGui::SliderCalcRatioFromValueT<float,float>
PUBLIC	??$SliderCalcRatioFromValueT@NN@ImGui@@YAMHNNNMM@Z ; ImGui::SliderCalcRatioFromValueT<double,double>
PUBLIC	__JustMyCode_Default
PUBLIC	??_C@_1KC@LHOPDKO@?$AAD?$AA?3?$AA?2?$AAP?$AAr?$AAo?$AAg?$AAr?$AAa?$AAm?$AAm?$AAi?$AAe?$AAr?$AAe@ ; `string'
PUBLIC	??_C@_1BC@IIGHOJGM@?$AAi?$AAd?$AAx?$AA?5?$AA?$DM?$AA?$DN?$AA?5?$AA1@ ; `string'
PUBLIC	??_C@_13COJANIEC@?$AA0@				; `string'
PUBLIC	??_C@_1CC@IHACEFEE@?$AAI?$AAt?$AAe?$AAm?$AAs?$AAC?$AAo?$AAu?$AAn?$AAt?$AA?5?$AA?$DN?$AA?$DN?$AA?5?$AA?9@ ; `string'
PUBLIC	?_OptionsStorage@?1??__local_stdio_scanf_options@@9@4_KA ; `__local_stdio_scanf_options'::`2'::_OptionsStorage
PUBLIC	??_C@_1LE@HAMNIKDF@?$AAD?$AA?3?$AA?2?$AAP?$AAr?$AAo?$AAg?$AAr?$AAa?$AAm?$AAm?$AAi?$AAe?$AAr?$AAe@ ; `string'
PUBLIC	??_C@_1HM@PJKJLKEH@?$AAt?$AAa?$AAb?$AA?9?$AA?$DO?$AAN?$AAa?$AAm?$AAe?$AAO?$AAf?$AAf?$AAs?$AAe?$AAt@ ; `string'
PUBLIC	?__LINE__Var@?0??TextEx@ImGui@@YAXPBD0H@Z@4JA	; `ImGui::TextEx'::`1'::__LINE__Var
PUBLIC	??_C@_1LG@NBNJEEME@?$AAD?$AA?3?$AA?2?$AAP?$AAr?$AAo?$AAg?$AAr?$AAa?$AAm?$AAm?$AAi?$AAe?$AAr?$AAe@ ; `string'
PUBLIC	??_C@_1BE@HMGDGFIB@?$AAt?$AAe?$AAx?$AAt?$AA?5?$AA?$CB?$AA?$DN?$AA?5?$AA0@ ; `string'
PUBLIC	?__LINE__Var@?0??InvisibleButton@ImGui@@YA_NPBDABUImVec2@@@Z@4JA ; `ImGui::InvisibleButton'::`1'::__LINE__Var
PUBLIC	??_C@_1FC@KJEAANOI@?$AAs?$AAi?$AAz?$AAe?$AA_?$AAa?$AAr?$AAg?$AA?4?$AAx?$AA?5?$AA?$CB?$AA?$DN?$AA?5?$AA0@ ; `string'
PUBLIC	??_C@_08ENAFOMOP@?$CDSCROLLX@			; `string'
PUBLIC	??_C@_08FEBONNKO@?$CDSCROLLY@			; `string'
PUBLIC	?__LINE__Var@?0??ScrollbarEx@ImGui@@YA_NABUImRect@@IW4ImGuiAxis@@PAMMMH@Z@4JA ; `ImGui::ScrollbarEx'::`1'::__LINE__Var
PUBLIC	??_C@_1FI@OFJDJLOI@?$AAI?$AAm?$AAM?$AAa?$AAx?$AA?$CI?$AAs?$AAi?$AAz?$AAe?$AA_?$AAc?$AAo?$AAn?$AAt@ ; `string'
PUBLIC	?__LINE__Var@?0??Scrollbar@ImGui@@YAXW4ImGuiAxis@@@Z@4JA ; `ImGui::Scrollbar'::`1'::__LINE__Var
PUBLIC	??_C@_1CM@GFPJIOBE@?$AAs?$AAc?$AAr?$AAo?$AAl?$AAl?$AAb?$AAa?$AAr?$AA_?$AAs?$AAi?$AAz?$AAe?$AA?5@ ; `string'
PUBLIC	??_C@_06EBHDMMP@?$CDimage@			; `string'
PUBLIC	??_C@_03JHEALCLB@?$FLx?$FN@			; `string'
PUBLIC	??_C@_03PFOPMNLJ@?$FL?5?$FN@			; `string'
PUBLIC	??_C@_03KFJJABDB@?$CIx?$CJ@			; `string'
PUBLIC	??_C@_03MHDGHODJ@?$CI?5?$CJ@			; `string'
PUBLIC	??_C@_06KLKJBGEJ@?$CF?40f?$CF?$CF@		; `string'
PUBLIC	?__LINE__Var@?0??SeparatorEx@ImGui@@YAXH@Z@4JA	; `ImGui::SeparatorEx'::`1'::__LINE__Var
PUBLIC	??_C@_1LA@FPPCKOP@?$AAI?$AAm?$AAI?$AAs?$AAP?$AAo?$AAw?$AAe?$AAr?$AAO?$AAf?$AAT?$AAw?$AAo?$AA?$CI@ ; `string'
PUBLIC	??_C@_02LLHJFGPH@?5?$HM@			; `string'
PUBLIC	??_C@_0CB@GNHPAIID@?9?9?9?9?9?9?9?9?9?9?9?9?9?9?9?9?9?9?9?9?9?9?9?9?9?9?9?9?9?9?9@ ; `string'
PUBLIC	?__LINE__Var@?0??SplitterBehavior@ImGui@@YA_NABUImRect@@IW4ImGuiAxis@@PAM2MMMM@Z@4JA ; `ImGui::SplitterBehavior'::`1'::__LINE__Var
PUBLIC	??_C@_1EE@HJGLFFIG@?$AA?$CK?$AAs?$AAi?$AAz?$AAe?$AA1?$AA?5?$AA?$CL?$AA?5?$AAm?$AAo?$AAu?$AAs?$AAe?$AA_@ ; `string'
PUBLIC	??_C@_1EE@LBEKBPGJ@?$AA?$CK?$AAs?$AAi?$AAz?$AAe?$AA2?$AA?5?$AA?9?$AA?5?$AAm?$AAo?$AAu?$AAs?$AAe?$AA_@ ; `string'
PUBLIC	?__LINE__Var@?0??BeginCombo@ImGui@@YA_NPBD0H@Z@4JA ; `ImGui::BeginCombo'::`1'::__LINE__Var
PUBLIC	??_C@_1BAK@ONBANIIG@?$AA?$CI?$AAf?$AAl?$AAa?$AAg?$AAs?$AA?5?$AA?$CG?$AA?5?$AA?$CI?$AAI?$AAm?$AAG?$AAu?$AAi@ ; `string'
PUBLIC	??_C@_1GI@IOEAHNLK@?$AAI?$AAm?$AAI?$AAs?$AAP?$AAo?$AAw?$AAe?$AAr?$AAO?$AAf?$AAT?$AAw?$AAo?$AA?$CI@ ; `string'
PUBLIC	??_C@_0N@JOGGDHMO@?$CD?$CDCombo_?$CF02d@	; `string'
PUBLIC	??_C@_0P@HFPOEILF@?$CKUnknown?5item?$CK@	; `string'
PUBLIC	??_C@_09JKJEEIJP@?$CF?4?$CKs?$CF?$CFd?$CFs@	; `string'
PUBLIC	?__LINE__Var@?0??DataTypeGetInfo@ImGui@@YAPBUImGuiDataTypeInfo@@H@Z@4JA ; `ImGui::DataTypeGetInfo'::`1'::__LINE__Var
PUBLIC	??_C@_1GE@PMGCKKHF@?$AAd?$AAa?$AAt?$AAa?$AA_?$AAt?$AAy?$AAp?$AAe?$AA?5?$AA?$DO?$AA?$DN?$AA?5?$AA0?$AA?5@ ; `string'
PUBLIC	?__LINE__Var@?0??DataTypeFormatString@ImGui@@YAHPADHHPBXPBD@Z@4JA ; `ImGui::DataTypeFormatString'::`1'::__LINE__Var
PUBLIC	?__LINE__Var@?0??DataTypeApplyOp@ImGui@@YAXHHPAX0PBX@Z@4JA ; `ImGui::DataTypeApplyOp'::`1'::__LINE__Var
PUBLIC	??_C@_1CO@LEDHMGOL@?$AAo?$AAp?$AA?5?$AA?$DN?$AA?$DN?$AA?5?$AA?8?$AA?$CL?$AA?8?$AA?5?$AA?$HM?$AA?$HM?$AA?5?$AAo?$AAp@ ; `string'
PUBLIC	?__LINE__Var@?0??DataTypeApplyOpFromText@ImGui@@YA_NPBD0HPAX0@Z@4JA ; `ImGui::DataTypeApplyOpFromText'::`1'::__LINE__Var
PUBLIC	??_C@_1EA@ILBKEPMO@?$AAd?$AAa?$AAt?$AAa?$AA_?$AAt?$AAy?$AAp?$AAe?$AA?5?$AA?$DM?$AA?5?$AAI?$AAm?$AAG@ ; `string'
PUBLIC	??_C@_1EO@OEMFLDEM@?$AAt?$AAy?$AAp?$AAe?$AA_?$AAi?$AAn?$AAf?$AAo?$AA?9?$AA?$DO?$AAS?$AAi?$AAz?$AAe@ ; `string'
PUBLIC	?__LINE__Var@?0??DragBehavior@ImGui@@YA_NIHPAXMPBX1PBDMH@Z@4JA ; `ImGui::DragBehavior'::`1'::__LINE__Var
PUBLIC	?__LINE__Var@?0??DragScalar@ImGui@@YA_NPBDHPAXMPBX20M@Z@4JA ; `ImGui::DragScalar'::`1'::__LINE__Var
PUBLIC	??_C@_1DC@IAANKGPJ@?$AAp?$AA_?$AAm?$AAi?$AAn?$AA?5?$AA?$CB?$AA?$DN?$AA?5?$AA0?$AA?5?$AA?$CG?$AA?$CG?$AA?5?$AAp@ ; `string'
PUBLIC	??_C@_00CNPNBAHC@@				; `string'
PUBLIC	??_C@_05DMFAOFEI@?$CD?$CDmin@			; `string'
PUBLIC	??_C@_05CONLABCH@?$CD?$CDmax@			; `string'
PUBLIC	?__LINE__Var@?0??SliderBehavior@ImGui@@YA_NABUImRect@@IHPAXPBX2PBDMHPAU3@@Z@4JA ; `ImGui::SliderBehavior'::`1'::__LINE__Var
PUBLIC	??_C@_1JK@KBPJHMJO@?$AA?$CK?$AA?$CI?$AAc?$AAo?$AAn?$AAs?$AAt?$AA?5?$AAI?$AAm?$AAS?$AA3?$AA2?$AA?$CK?$AA?$CJ@ ; `string'
PUBLIC	??_C@_1EK@CNKAEFCM@?$AA?$CK?$AA?$CI?$AAc?$AAo?$AAn?$AAs?$AAt?$AA?5?$AAI?$AAm?$AAU?$AA3?$AA2?$AA?$CK?$AA?$CJ@ ; `string'
PUBLIC	??_C@_1JK@NOHGLDJN@?$AA?$CK?$AA?$CI?$AAc?$AAo?$AAn?$AAs?$AAt?$AA?5?$AAI?$AAm?$AAS?$AA6?$AA4?$AA?$CK?$AA?$CJ@ ; `string'
PUBLIC	??_C@_1EK@CBABBPPD@?$AA?$CK?$AA?$CI?$AAc?$AAo?$AAn?$AAs?$AAt?$AA?5?$AAI?$AAm?$AAU?$AA6?$AA4?$AA?$CK?$AA?$CJ@ ; `string'
PUBLIC	??_C@_1MA@ELIKKGKL@?$AA?$CK?$AA?$CI?$AAc?$AAo?$AAn?$AAs?$AAt?$AA?5?$AAf?$AAl?$AAo?$AAa?$AAt?$AA?$CK?$AA?$CJ@ ; `string'
PUBLIC	??_C@_1OA@OEHGOKMN@?$AA?$CK?$AA?$CI?$AAc?$AAo?$AAn?$AAs?$AAt?$AA?5?$AAd?$AAo?$AAu?$AAb?$AAl?$AAe?$AA?$CK@ ; `string'
PUBLIC	??_C@_08FKIHKODH@?$CF?40f?5deg@			; `string'
PUBLIC	?__LINE__Var@?0??TempInputTextScalar@ImGui@@YA_NABUImRect@@IPBDHPAX1@Z@4JA ; `ImGui::TempInputTextScalar'::`1'::__LINE__Var
PUBLIC	??_C@_1CC@LLIJAMKA@?$AAg?$AA?4?$AAA?$AAc?$AAt?$AAi?$AAv?$AAe?$AAI?$AAd?$AA?5?$AA?$DN?$AA?$DN?$AA?5?$AAi@ ; `string'
PUBLIC	??_C@_01JOAMLHOP@?9@				; `string'
PUBLIC	??_C@_01MIFGBAGJ@?$CL@				; `string'
PUBLIC	??_C@_06DNBDMDIL@?$CF?$CF?4?$CFdf@		; `string'
PUBLIC	??_C@_04JIMNDDED@?$CF08X@			; `string'
PUBLIC	?__LINE__Var@?0??InputText@ImGui@@YA_NPBDPADIHP6AHPAUImGuiInputTextCallbackData@@@ZPAX@Z@4JA ; `ImGui::InputText'::`1'::__LINE__Var
PUBLIC	??_C@_1FC@IFNBIILP@?$AA?$CB?$AA?$CI?$AAf?$AAl?$AAa?$AAg?$AAs?$AA?5?$AA?$CG?$AA?5?$AAI?$AAm?$AAG?$AAu?$AAi@ ; `string'
PUBLIC	?__LINE__Var@?0??InputTextWithHint@ImGui@@YA_NPBD0PADIHP6AHPAUImGuiInputTextCallbackData@@@ZPAX@Z@4JA ; `ImGui::InputTextWithHint'::`1'::__LINE__Var
PUBLIC	?__LINE__Var@?0??STB_TEXTEDIT_INSERTCHARS@ImStb@@YA_NPAUImGuiInputTextState@@HPBGH@Z@4JA ; `ImStb::STB_TEXTEDIT_INSERTCHARS'::`1'::__LINE__Var
PUBLIC	??_C@_1CA@MNHDBBDP@?$AAp?$AAo?$AAs?$AA?5?$AA?$DM?$AA?$DN?$AA?5?$AAt?$AAe?$AAx?$AAt?$AA_?$AAl?$AAe?$AAn@ ; `string'
PUBLIC	??_C@_1DG@IEAPMEMO@?$AAt?$AAe?$AAx?$AAt?$AA_?$AAl?$AAe?$AAn?$AA?5?$AA?$DM?$AA?5?$AAo?$AAb?$AAj?$AA?9@ ; `string'
PUBLIC	?__LINE__Var@?0??stb_textedit_discard_redo@ImStb@@YAXPAUStbUndoState@2@@Z@4JA ; `ImStb::stb_textedit_discard_redo'::`1'::__LINE__Var
PUBLIC	??_C@_1LE@DPFBMFBF@?$AAD?$AA?3?$AA?2?$AAP?$AAr?$AAo?$AAg?$AAr?$AAa?$AAm?$AAm?$AAi?$AAe?$AAr?$AAe@ ; `string'
PUBLIC	??_C@_1HI@OHEJKGLD@?$AA?$CI?$AA?$CI?$AAc?$AAh?$AAa?$AAr?$AA?$CK?$AA?$CJ?$AA?$CI?$AAs?$AAt?$AAa?$AAt?$AAe?$AA?9@ ; `string'
PUBLIC	??_C@_1JE@JEJNCKKO@?$AA?$CI?$AA?$CI?$AAc?$AAh?$AAa?$AAr?$AA?$CK?$AA?$CJ?$AA?$CI?$AAs?$AAt?$AAa?$AAt?$AAe?$AA?9@ ; `string'
PUBLIC	?__LINE__Var@?0??DeleteChars@ImGuiInputTextCallbackData@@QAEXHH@Z@4JA ; `ImGuiInputTextCallbackData::DeleteChars'::`1'::__LINE__Var
PUBLIC	??_C@_1EA@OOMMGKHM@?$AAp?$AAo?$AAs?$AA?5?$AA?$CL?$AA?5?$AAb?$AAy?$AAt?$AAe?$AAs?$AA_?$AAc?$AAo?$AAu@ ; `string'
PUBLIC	?__LINE__Var@?0??InsertChars@ImGuiInputTextCallbackData@@QAEXHPBD0@Z@4JA ; `ImGuiInputTextCallbackData::InsertChars'::`1'::__LINE__Var
PUBLIC	??_C@_1GI@EFFMAEBL@?$AAe?$AAd?$AAi?$AAt?$AA_?$AAs?$AAt?$AAa?$AAt?$AAe?$AA?9?$AA?$DO?$AAI?$AAD?$AA?5@ ; `string'
PUBLIC	??_C@_1DM@LDGOBGNL@?$AAB?$AAu?$AAf?$AA?5?$AA?$DN?$AA?$DN?$AA?5?$AAe?$AAd?$AAi?$AAt?$AA_?$AAs?$AAt?$AAa@ ; `string'
PUBLIC	?__LINE__Var@?0??InputTextEx@ImGui@@YA_NPBD0PADHABUImVec2@@HP6AHPAUImGuiInputTextCallbackData@@@ZPAX@Z@4JA ; `ImGui::InputTextEx'::`1'::__LINE__Var
PUBLIC	??_C@_1LI@BDNHGOFF@?$AA?$CB?$AA?$CI?$AA?$CI?$AAf?$AAl?$AAa?$AAg?$AAs?$AA?5?$AA?$CG?$AA?5?$AAI?$AAm?$AAG?$AAu@ ; `string'
PUBLIC	??_C@_1MG@MGOPIKJM@?$AA?$CB?$AA?$CI?$AA?$CI?$AAf?$AAl?$AAa?$AAg?$AAs?$AA?5?$AA?$CG?$AA?5?$AAI?$AAm?$AAG?$AAu@ ; `string'
PUBLIC	??_C@_1BM@CBGPMFEC@?$AAc?$AAa?$AAl?$AAl?$AAb?$AAa?$AAc?$AAk?$AA?5?$AA?$CB?$AA?$DN?$AA?5?$AA0@ ; `string'
PUBLIC	??_C@_1DC@CMKEKNGP@?$AAs?$AAt?$AAa?$AAt?$AAe?$AA?5?$AA?$CG?$AA?$CG?$AA?5?$AAs?$AAt?$AAa?$AAt?$AAe?$AA?9@ ; `string'
PUBLIC	??_C@_1NI@EFFIGGBI@?$AAp?$AAa?$AAs?$AAs?$AAw?$AAo?$AAr?$AAd?$AA_?$AAf?$AAo?$AAn?$AAt?$AA?9?$AA?$DO@ ; `string'
PUBLIC	??_C@_1BG@FOPGMADN@?$AAs?$AAt?$AAa?$AAt?$AAe?$AA?5?$AA?$CB?$AA?$DN?$AA?5?$AA0@ ; `string'
PUBLIC	??_C@_1EO@GEAEFBFI@?$AAc?$AAa?$AAl?$AAl?$AAb?$AAa?$AAc?$AAk?$AA_?$AAd?$AAa?$AAt?$AAa?$AA?4?$AAB@ ; `string'
PUBLIC	??_C@_1FK@GDPCIOA@?$AAc?$AAa?$AAl?$AAl?$AAb?$AAa?$AAc?$AAk?$AA_?$AAd?$AAa?$AAt?$AAa?$AA?4?$AAB@ ; `string'
PUBLIC	??_C@_1DK@HOPDKFNI@?$AAc?$AAa?$AAl?$AAl?$AAb?$AAa?$AAc?$AAk?$AA_?$AAd?$AAa?$AAt?$AAa?$AA?4?$AAF@ ; `string'
PUBLIC	??_C@_1HG@EHLBBEIB@?$AAc?$AAa?$AAl?$AAl?$AAb?$AAa?$AAc?$AAk?$AA_?$AAd?$AAa?$AAt?$AAa?$AA?4?$AAB@ ; `string'
PUBLIC	??_C@_1DG@CHDFECEK@?$AAa?$AAp?$AAp?$AAl?$AAy?$AA_?$AAn?$AAe?$AAw?$AA_?$AAt?$AAe?$AAx?$AAt?$AA_@ ; `string'
PUBLIC	??_C@_1EE@MOOHJKEO@?$AAa?$AAp?$AAp?$AAl?$AAy?$AA_?$AAn?$AAe?$AAw?$AA_?$AAt?$AAe?$AAx?$AAt?$AA_@ ; `string'
PUBLIC	?__LINE__Var@?0??ColorEdit4@ImGui@@YA_NPBDQAMH@Z@4JA ; `ImGui::ColorEdit4'::`1'::__LINE__Var
PUBLIC	??_C@_1HC@IFIJNDDD@?$AAI?$AAm?$AAI?$AAs?$AAP?$AAo?$AAw?$AAe?$AAr?$AAO?$AAf?$AAT?$AAw?$AAo?$AA?$CI@ ; `string'
PUBLIC	??_C@_1GO@CDHIBPHM@?$AAI?$AAm?$AAI?$AAs?$AAP?$AAo?$AAw?$AAe?$AAr?$AAO?$AAf?$AAT?$AAw?$AAo?$AA?$CI@ ; `string'
PUBLIC	??_C@_07FFNLLALM@M?30?4000@			; `string'
PUBLIC	??_C@_05BNGMMMAL@M?3000@			; `string'
PUBLIC	??_C@_07JKKCBBMM@context@			; `string'
PUBLIC	??_C@_0BC@CKPCOFBK@?$CD?$CF02X?$CF02X?$CF02X?$CF02X@ ; `string'
PUBLIC	??_C@_0O@MBPBDFLP@?$CD?$CF02X?$CF02X?$CF02X@	; `string'
PUBLIC	??_C@_06MNCEJPDI@?$CD?$CDText@			; `string'
PUBLIC	??_C@_0BB@DDMGLOLI@?$CF02X?$CF02X?$CF02X?$CF02X@ ; `string'
PUBLIC	??_C@_0N@KODLFHPJ@?$CF02X?$CF02X?$CF02X@	; `string'
PUBLIC	??_C@_0O@GLNBIEEK@?$CD?$CDColorButton@		; `string'
PUBLIC	??_C@_06MAKAMBBI@picker@			; `string'
PUBLIC	??_C@_08HHEANBBL@?$CD?$CDpicker@		; `string'
PUBLIC	??_C@_06LFKNFKEK@_COL3F@			; `string'
PUBLIC	??_C@_06LAOCEMMP@_COL4F@			; `string'
PUBLIC	?__LINE__Var@?0??ColorPicker4@ImGui@@YA_NPBDQAMHPBM@Z@4JA ; `ImGui::ColorPicker4'::`1'::__LINE__Var
PUBLIC	??_C@_1HA@IEGAFBEB@?$AAI?$AAm?$AAI?$AAs?$AAP?$AAo?$AAw?$AAe?$AAr?$AAO?$AAf?$AAT?$AAw?$AAo?$AA?$CI@ ; `string'
PUBLIC	??_C@_03PPLPHHG@hsv@				; `string'
PUBLIC	??_C@_02CPGMCOJE@sv@				; `string'
PUBLIC	??_C@_03GKJJMKFG@hue@				; `string'
PUBLIC	??_C@_05IAEKHIAN@alpha@				; `string'
PUBLIC	??_C@_07EDIFFIJI@Current@			; `string'
PUBLIC	??_C@_09CDENILGE@?$CD?$CDcurrent@		; `string'
PUBLIC	??_C@_08DCPBJHAO@Original@			; `string'
PUBLIC	??_C@_0L@IGJKOBOK@?$CD?$CDoriginal@		; `string'
PUBLIC	??_C@_05JCABMAIH@?$CD?$CDrgb@			; `string'
PUBLIC	??_C@_05JICEKLIF@?$CD?$CDhsv@			; `string'
PUBLIC	??_C@_05BOAMFJMJ@?$CD?$CDhex@			; `string'
PUBLIC	??_C@_05PDOBBJNA@Color@				; `string'
PUBLIC	?__LINE__Var@?0??SetColorEditOptions@ImGui@@YAXH@Z@4JA ; `ImGui::SetColorEditOptions'::`1'::__LINE__Var
PUBLIC	??_C@_1HE@ECJOEGME@?$AAI?$AAm?$AAI?$AAs?$AAP?$AAo?$AAw?$AAe?$AAr?$AAO?$AAf?$AAT?$AAw?$AAo?$AA?$CI@ ; `string'
PUBLIC	??_C@_09JCCDBEFL@?$CD?$CDpreview@		; `string'
PUBLIC	??_C@_0DF@FAPNKOHO@?$CD?$CF02X?$CF02X?$CF02X?6R?3?5?$CFd?0?5G?3?5?$CFd?0?5B?3?5@ ; `string'
PUBLIC	??_C@_0EC@EBPMGCGK@?$CD?$CF02X?$CF02X?$CF02X?$CF02X?6R?3?$CFd?0?5G?3?$CFd?0?5B@ ; `string'
PUBLIC	??_C@_0BK@HKNBICJE@H?3?5?$CF?43f?0?5S?3?5?$CF?43f?0?5V?3?5?$CF?43f@ ; `string'
PUBLIC	??_C@_0CD@EEDEAEPG@H?3?5?$CF?43f?0?5S?3?5?$CF?43f?0?5V?3?5?$CF?43f?0?5A?3?5?$CF@ ; `string'
PUBLIC	??_C@_03ICFFBAI@RGB@				; `string'
PUBLIC	??_C@_03CAADKAK@HSV@				; `string'
PUBLIC	??_C@_03CJOBKKAE@Hex@				; `string'
PUBLIC	??_C@_06FDBEKFBH@0?4?4255@			; `string'
PUBLIC	??_C@_0L@MDNPBJBM@0?400?4?41?400@		; `string'
PUBLIC	??_C@_09NMCCFHEI@Copy?5as?4?4@			; `string'
PUBLIC	??_C@_04OPMHGHMB@Copy@				; `string'
PUBLIC	??_C@_0BN@GKCJMPCH@?$CI?$CF?43ff?0?5?$CF?43ff?0?5?$CF?43ff?0?5?$CF?43ff?$CJ@ ; `string'
PUBLIC	??_C@_0O@EJHNAHBL@?$CI?$CFd?0?$CFd?0?$CFd?0?$CFd?$CJ@ ; `string'
PUBLIC	??_C@_0P@GDANBODO@0x?$CF02X?$CF02X?$CF02X@	; `string'
PUBLIC	??_C@_0BD@MLNOPBDA@0x?$CF02X?$CF02X?$CF02X?$CF02X@ ; `string'
PUBLIC	??_C@_0N@KFBFGFJL@?$CD?$CDselectable@		; `string'
PUBLIC	??_C@_0O@KNMNNHNH@?$CD?$CDdummypicker@		; `string'
PUBLIC	??_C@_09KEDLMDJL@Alpha?5Bar@			; `string'
PUBLIC	??_C@_03DFKEEPFP@?6?$CD?$CD@			; `string'
PUBLIC	??_C@_02IEBMKJDF@?$CD?$CD@			; `string'
PUBLIC	??_C@_01PPODPGHN@?$DO@				; `string'
PUBLIC	??_C@_09GHACPMKF@?$CDTreePush@			; `string'
PUBLIC	?__LINE__Var@?0??TreePop@ImGui@@YAXXZ@4JA	; `ImGui::TreePop'::`1'::__LINE__Var
PUBLIC	??_C@_1DC@KOOPJPAL@?$AAw?$AAi?$AAn?$AAd?$AAo?$AAw?$AA?9?$AA?$DO?$AAI?$AAD?$AAS?$AAt?$AAa?$AAc?$AAk@ ; `string'
PUBLIC	?__LINE__Var@?0??PlotEx@ImGui@@YAXW4ImGuiPlotType@@PBDP6AMPAXH@Z2HH1MMUImVec2@@@Z@4JA ; `ImGui::PlotEx'::`1'::__LINE__Var
PUBLIC	??_C@_1EG@HCGMCBDC@?$AAv?$AA_?$AAi?$AAd?$AAx?$AA?5?$AA?$DO?$AA?$DN?$AA?5?$AA0?$AA?5?$AA?$CG?$AA?$CG?$AA?5?$AAv@ ; `string'
PUBLIC	??_C@_0BE@OBCBLNMM@?$CFd?3?5?$CF8?44g?6?$CFd?3?5?$CF8?44g@ ; `string'
PUBLIC	??_C@_09OADNPGHP@?$CFd?3?5?$CF8?44g@		; `string'
PUBLIC	??_C@_1EK@JIGPMMPH@?$AAv?$AA1?$AA_?$AAi?$AAd?$AAx?$AA?5?$AA?$DO?$AA?$DN?$AA?5?$AA0?$AA?5?$AA?$CG?$AA?$CG?$AA?5@ ; `string'
PUBLIC	??_C@_04LOAJBDKD@true@				; `string'
PUBLIC	??_C@_05LAPONLG@false@				; `string'
PUBLIC	??_C@_06DJHOIPC@?$CFs?3?5?$CFs@			; `string'
PUBLIC	??_C@_06GBEGMGE@?$CFs?3?5?$CFd@			; `string'
PUBLIC	??_C@_07EKEPIENH@?$CF?$CFs?3?5?$CFs@		; `string'
PUBLIC	??_C@_08KELGKKHF@?$CFs?3?5?$CF?43f@		; `string'
PUBLIC	?__LINE__Var@?0??Update@ImGuiMenuColumns@@QAEXHM_N@Z@4JA ; `ImGuiMenuColumns::Update'::`1'::__LINE__Var
PUBLIC	??_C@_1FK@BNPKANMO@?$AAc?$AAo?$AAu?$AAn?$AAt?$AA?5?$AA?$DN?$AA?$DN?$AA?5?$AA?$CI?$AA?$CI?$AAi?$AAn?$AAt?$AA?$CJ@ ; `string'
PUBLIC	?__LINE__Var@?0??BeginMenuBar@ImGui@@YA_NXZ@4JA	; `ImGui::BeginMenuBar'::`1'::__LINE__Var
PUBLIC	??_C@_1DK@MIADNLCN@?$AA?$CB?$AAw?$AAi?$AAn?$AAd?$AAo?$AAw?$AA?9?$AA?$DO?$AAD?$AAC?$AA?4?$AAM?$AAe?$AAn@ ; `string'
PUBLIC	??_C@_09FHPMMDGK@?$CD?$CDmenubar@		; `string'
PUBLIC	?__LINE__Var@?0??EndMenuBar@ImGui@@YAXXZ@4JA	; `ImGui::EndMenuBar'::`1'::__LINE__Var
PUBLIC	??_C@_1GC@NKCHGHAD@?$AAw?$AAi?$AAn?$AAd?$AAo?$AAw?$AA?9?$AA?$DO?$AAD?$AAC?$AA?4?$AAN?$AAa?$AAv?$AAL@ ; `string'
PUBLIC	??_C@_1FC@MMAFNJJP@?$AAw?$AAi?$AAn?$AAd?$AAo?$AAw?$AA?9?$AA?$DO?$AAF?$AAl?$AAa?$AAg?$AAs?$AA?5?$AA?$CG@ ; `string'
PUBLIC	??_C@_1DI@HJHPMKIH@?$AAw?$AAi?$AAn?$AAd?$AAo?$AAw?$AA?9?$AA?$DO?$AAD?$AAC?$AA?4?$AAM?$AAe?$AAn?$AAu@ ; `string'
PUBLIC	??_C@_0O@BKOLOJFE@?$CD?$CDMainMenuBar@		; `string'
PUBLIC	?__LINE__Var@?0??BeginTabBarEx@ImGui@@YA_NPAUImGuiTabBar@@ABUImRect@@H@Z@4JA ; `ImGui::BeginTabBarEx'::`1'::__LINE__Var
PUBLIC	?__LINE__Var@?0??EndTabBar@ImGui@@YAXXZ@4JA	; `ImGui::EndTabBar'::`1'::__LINE__Var
PUBLIC	??_C@_0CG@DPIPLNLI@Mismatched?5BeginTabBar?$CI?$CJ?1EndTab@ ; `string'
PUBLIC	??_C@_1HE@HMPOLDED@?$AA?$CI?$AAt?$AAa?$AAb?$AA_?$AAb?$AAa?$AAr?$AA?5?$AA?$CB?$AA?$DN?$AA?5?$AA0?$AA?$CJ?$AA?5@ ; `string'
PUBLIC	?__LINE__Var@?0??TabBarLayout@ImGui@@YAXPAUImGuiTabBar@@@Z@4JA ; `ImGui::TabBarLayout'::`1'::__LINE__Var
PUBLIC	??_C@_1GG@ODBMJKON@?$AAt?$AAa?$AAb?$AA?9?$AA?$DO?$AAL?$AAa?$AAs?$AAt?$AAF?$AAr?$AAa?$AAm?$AAe?$AAV@ ; `string'
PUBLIC	??_C@_1CE@HKABMAAD@?$AAt?$AAa?$AAb?$AA?9?$AA?$DO?$AAW?$AAi?$AAd?$AAt?$AAh?$AA?5?$AA?$DO?$AA?5?$AA0?$AA?4@ ; `string'
PUBLIC	?__LINE__Var@?0??TabBarQueueChangeTabOrder@ImGui@@YAXPAUImGuiTabBar@@PBUImGuiTabItem@@H@Z@4JA ; `ImGui::TabBarQueueChangeTabOrder'::`1'::__LINE__Var
PUBLIC	??_C@_1CO@FGAFEEBL@?$AAd?$AAi?$AAr?$AA?5?$AA?$DN?$AA?$DN?$AA?5?$AA?9?$AA1?$AA?5?$AA?$HM?$AA?$HM?$AA?5?$AAd?$AAi@ ; `string'
PUBLIC	??_C@_1EE@NGAACFPK@?$AAt?$AAa?$AAb?$AA_?$AAb?$AAa?$AAr?$AA?9?$AA?$DO?$AAR?$AAe?$AAo?$AAr?$AAd?$AAe@ ; `string'
PUBLIC	??_C@_03CFMEKBHF@?$CD?$CD?$DM@			; `string'
PUBLIC	??_C@_03BHPCMDPH@?$CD?$CD?$DO@			; `string'
PUBLIC	??_C@_03CPFCAGPK@?$CD?$CDv@			; `string'
PUBLIC	?__LINE__Var@?0??BeginTabItem@ImGui@@YA_NPBDPA_NH@Z@4JA ; `ImGui::BeginTabItem'::`1'::__LINE__Var
PUBLIC	??_C@_0EJ@BGGEHPHF@BeginTabItem?$CI?$CJ?5Needs?5to?5be?5call@ ; `string'
PUBLIC	??_C@_1LA@GNEGANEK@?$AA?$CI?$AAt?$AAa?$AAb?$AA_?$AAb?$AAa?$AAr?$AA?$CJ?$AA?5?$AA?$CG?$AA?$CG?$AA?5?$AA?$CC?$AAB@ ; `string'
PUBLIC	?__LINE__Var@?0??EndTabItem@ImGui@@YAXXZ@4JA	; `ImGui::EndTabItem'::`1'::__LINE__Var
PUBLIC	??_C@_0DK@EHILAJFJ@Needs?5to?5be?5called?5between?5Begi@ ; `string'
PUBLIC	??_C@_1JI@HFPIFMIP@?$AAt?$AAa?$AAb?$AA_?$AAb?$AAa?$AAr?$AA?5?$AA?$CB?$AA?$DN?$AA?5?$AA0?$AA?5?$AA?$CG?$AA?$CG@ ; `string'
PUBLIC	??_C@_1DK@HGEILAOB@?$AAt?$AAa?$AAb?$AA_?$AAb?$AAa?$AAr?$AA?9?$AA?$DO?$AAL?$AAa?$AAs?$AAt?$AAT?$AAa@ ; `string'
PUBLIC	??_C@_04EBNJJJJI@?$CF?4?$CKs@			; `string'
PUBLIC	?__LINE__Var@?0??SetTabItemClosed@ImGui@@YAXPBD@Z@4JA ; `ImGui::SetTabItemClosed'::`1'::__LINE__Var
PUBLIC	??_C@_1CI@FDDNDGMG@?$AAt?$AAa?$AAb?$AA_?$AAb?$AAa?$AAr?$AA?9?$AA?$DO?$AAW?$AAa?$AAn?$AAt?$AAL?$AAa@ ; `string'
PUBLIC	?__LINE__Var@?0??TabItemBackground@ImGui@@YAXPAUImDrawList@@ABUImRect@@HI@Z@4JA ; `ImGui::TabItemBackground'::`1'::__LINE__Var
PUBLIC	??_C@_1BK@HMBBPDPB@?$AAw?$AAi?$AAd?$AAt?$AAh?$AA?5?$AA?$DO?$AA?5?$AA0?$AA?4?$AA0?$AAf@ ; `string'
PUBLIC	??_C@_01NBENCBCI@?$CK@				; `string'
PUBLIC	?__LINE__Var@?0??GetDraggedColumnOffset@@YAMPAUImGuiColumns@@H@Z@4JA ; `GetDraggedColumnOffset'::`1'::__LINE__Var
PUBLIC	??_C@_1CC@HNMGCLDB@?$AAc?$AAo?$AAl?$AAu?$AAm?$AAn?$AA_?$AAi?$AAn?$AAd?$AAe?$AAx?$AA?5?$AA?$DO?$AA?5@ ; `string'
PUBLIC	??_C@_1GE@CFLLPKGA@?$AAg?$AA?4?$AAA?$AAc?$AAt?$AAi?$AAv?$AAe?$AAI?$AAd?$AA?5?$AA?$DN?$AA?$DN?$AA?5?$AAc@ ; `string'
PUBLIC	?__LINE__Var@?0??GetColumnOffset@ImGui@@YAMH@Z@4JA ; `ImGui::GetColumnOffset'::`1'::__LINE__Var
PUBLIC	??_C@_1EK@FCGFMMCK@?$AAc?$AAo?$AAl?$AAu?$AAm?$AAn?$AA_?$AAi?$AAn?$AAd?$AAe?$AAx?$AA?5?$AA?$DM?$AA?5@ ; `string'
PUBLIC	?__LINE__Var@?0??SetColumnOffset@ImGui@@YAXHM@Z@4JA ; `ImGui::SetColumnOffset'::`1'::__LINE__Var
PUBLIC	??_C@_1BK@FLGDBJKG@?$AAc?$AAo?$AAl?$AAu?$AAm?$AAn?$AAs?$AA?5?$AA?$CB?$AA?$DN?$AA?5?$AA0@ ; `string'
PUBLIC	?__LINE__Var@?0??SetColumnWidth@ImGui@@YAXHM@Z@4JA ; `ImGui::SetColumnWidth'::`1'::__LINE__Var
PUBLIC	?__LINE__Var@?0??PushColumnsBackground@ImGui@@YAXXZ@4JA ; `ImGui::PushColumnsBackground'::`1'::__LINE__Var
PUBLIC	??_C@_1FK@BKCOEDF@?$AAc?$AAm?$AAd?$AA_?$AAs?$AAi?$AAz?$AAe?$AA?5?$AA?$DN?$AA?$DN?$AA?5?$AAw?$AAi?$AAn@ ; `string'
PUBLIC	??_C@_07HIFEPIJN@columns@			; `string'
PUBLIC	?__LINE__Var@?0??BeginColumns@ImGui@@YAXPBDHH@Z@4JA ; `ImGui::BeginColumns'::`1'::__LINE__Var
PUBLIC	??_C@_1CG@GDAJJGIO@?$AAc?$AAo?$AAl?$AAu?$AAm?$AAn?$AAs?$AA_?$AAc?$AAo?$AAu?$AAn?$AAt?$AA?5?$AA?$DO@ ; `string'
PUBLIC	??_C@_1DO@BPFJENMI@?$AAw?$AAi?$AAn?$AAd?$AAo?$AAw?$AA?9?$AA?$DO?$AAD?$AAC?$AA?4?$AAC?$AAu?$AAr?$AAr@ ; `string'
PUBLIC	??_C@_1CE@IJEAECLN@?$AAc?$AAo?$AAl?$AAu?$AAm?$AAn?$AAs?$AA?9?$AA?$DO?$AAI?$AAD?$AA?5?$AA?$DN?$AA?$DN?$AA?5@ ; `string'
PUBLIC	?__LINE__Var@?0??NextColumn@ImGui@@YAXXZ@4JA	; `ImGui::NextColumn'::`1'::__LINE__Var
PUBLIC	??_C@_1CM@HCFAHNAF@?$AAc?$AAo?$AAl?$AAu?$AAm?$AAn?$AAs?$AA?9?$AA?$DO?$AAC?$AAu?$AAr?$AAr?$AAe?$AAn@ ; `string'
PUBLIC	?__LINE__Var@?0??EndColumns@ImGui@@YAXXZ@4JA	; `ImGui::EndColumns'::`1'::__LINE__Var
PUBLIC	?__LINE__Var@?0??Columns@ImGui@@YAXHPBD_N@Z@4JA	; `ImGui::Columns'::`1'::__LINE__Var
PUBLIC	??_C@_1DO@NPHOAPAC@?$AAi?$AAt?$AA?5?$AA?$DO?$AA?$DN?$AA?5?$AAD?$AAa?$AAt?$AAa?$AA?5?$AA?$CG?$AA?$CG?$AA?5?$AAi@ ; `string'
PUBLIC	??_C@_1DK@JJGEFOJO@?$AAi?$AAt?$AA?5?$AA?$DO?$AA?$DN?$AA?5?$AAD?$AAa?$AAt?$AAa?$AA?5?$AA?$CG?$AA?$CG?$AA?5?$AAi@ ; `string'
PUBLIC	??_C@_1BC@KCECIPDP@?$AAS?$AAi?$AAz?$AAe?$AA?5?$AA?$DO?$AA?5?$AA0@ ; `string'
PUBLIC	??_C@_1BC@DCMHDKFO@?$AAi?$AA?5?$AA?$DM?$AA?5?$AAS?$AAi?$AAz?$AAe@ ; `string'
PUBLIC	??_C@_1FC@BIEMKEOL@?$AAp?$AA?5?$AA?$DO?$AA?$DN?$AA?5?$AAB?$AAu?$AAf?$AA?4?$AAD?$AAa?$AAt?$AAa?$AA?5?$AA?$CG@ ; `string'
PUBLIC	__real@00000000
PUBLIC	__real@0000000000000000
PUBLIC	__real@00800000
PUBLIC	__real@358637bd
PUBLIC	__real@3727c5ac
PUBLIC	__real@38d1b717
PUBLIC	__real@3b808081
PUBLIC	__real@3c23d70a
PUBLIC	__real@3cdd2f1b
PUBLIC	__real@3da3d70a
PUBLIC	__real@3dcccccd
PUBLIC	__real@3e09374c
PUBLIC	__real@3e19999a
PUBLIC	__real@3e4ccccd
PUBLIC	__real@3e800000
PUBLIC	__real@3e99999a
PUBLIC	__real@3ecccccd
PUBLIC	__real@3f000000
PUBLIC	__real@3f0ccccd
PUBLIC	__real@3f19999a
PUBLIC	__real@3f266666
PUBLIC	__real@3f333333
PUBLIC	__real@3f350481
PUBLIC	__real@3f4ccccd
PUBLIC	__real@3f5db22d
PUBLIC	__real@3f5db3d0
PUBLIC	__real@3f7ff972
PUBLIC	__real@3f800000
PUBLIC	__real@3f99999a
PUBLIC	__real@3fb33333
PUBLIC	__real@3fc00000
PUBLIC	__real@3fe0000000000000
PUBLIC	__real@3ff0000000000000
PUBLIC	__real@40000000
PUBLIC	__real@4024000000000000
PUBLIC	__real@403f5c29
PUBLIC	__real@40400000
PUBLIC	__real@40490fdb
PUBLIC	__real@4059000000000000
PUBLIC	__real@40666666
PUBLIC	__real@40800000
PUBLIC	__real@40a00000
PUBLIC	__real@40c00000
PUBLIC	__real@40c90fdb
PUBLIC	__real@40eccccd
PUBLIC	__real@41000000
PUBLIC	__real@41200000
PUBLIC	__real@41400000
PUBLIC	__real@41a00000
PUBLIC	__real@41f00000
PUBLIC	__real@428c0000
PUBLIC	__real@42c80000
PUBLIC	__real@437f0000
PUBLIC	__real@43b40000
PUBLIC	__real@43e0000000000000
PUBLIC	__real@47efffffe0000000
PUBLIC	__real@7effffff
PUBLIC	__real@7f7fffff
PUBLIC	__real@7fdfffffffffffff
PUBLIC	__real@7fefffffffffffff
PUBLIC	__real@be99999a
PUBLIC	__real@bf000000
PUBLIC	__real@bf400000
PUBLIC	__real@bf5db3d0
PUBLIC	__real@bf800000
PUBLIC	__real@c059000000000000
PUBLIC	__real@c2c80000
PUBLIC	__real@feffffff
PUBLIC	__real@ff7fffff
PUBLIC	__real@ffdfffffffffffff
PUBLIC	__real@ffefffffffffffff
PUBLIC	__xmm@41f00000000000000000000000000000
PUBLIC	__xmm@80000000000000008000000000000000
PUBLIC	__xmm@80000000800000008000000080000000
EXTRN	_memchr:PROC
EXTRN	_memcmp:PROC
EXTRN	_memcpy:PROC
EXTRN	_memmove:PROC
EXTRN	_memset:PROC
EXTRN	_strcmp:PROC
EXTRN	_strlen:PROC
EXTRN	__imp___wassert:PROC
EXTRN	?GetStyle@ImGui@@YAAAUImGuiStyle@@XZ:PROC	; ImGui::GetStyle
EXTRN	?Begin@ImGui@@YA_NPBDPA_NH@Z:PROC		; ImGui::Begin
EXTRN	?End@ImGui@@YAXXZ:PROC				; ImGui::End
EXTRN	?SetNextWindowPos@ImGui@@YAXABUImVec2@@H0@Z:PROC ; ImGui::SetNextWindowPos
EXTRN	?SetNextWindowSize@ImGui@@YAXABUImVec2@@H@Z:PROC ; ImGui::SetNextWindowSize
EXTRN	?SetNextWindowSizeConstraints@ImGui@@YAXABUImVec2@@0P6AXPAUImGuiSizeCallbackData@@@ZPAX@Z:PROC ; ImGui::SetNextWindowSizeConstraints
EXTRN	?GetContentRegionMax@ImGui@@YA?AUImVec2@@XZ:PROC ; ImGui::GetContentRegionMax
EXTRN	?GetContentRegionAvail@ImGui@@YA?AUImVec2@@XZ:PROC ; ImGui::GetContentRegionAvail
EXTRN	?GetWindowContentRegionMax@ImGui@@YA?AUImVec2@@XZ:PROC ; ImGui::GetWindowContentRegionMax
EXTRN	?GetScrollMaxY@ImGui@@YAMXZ:PROC		; ImGui::GetScrollMaxY
EXTRN	?PushFont@ImGui@@YAXPAUImFont@@@Z:PROC		; ImGui::PushFont
EXTRN	?PopFont@ImGui@@YAXXZ:PROC			; ImGui::PopFont
EXTRN	?PushStyleColor@ImGui@@YAXHABUImVec4@@@Z:PROC	; ImGui::PushStyleColor
EXTRN	?PopStyleColor@ImGui@@YAXH@Z:PROC		; ImGui::PopStyleColor
EXTRN	?PushStyleVar@ImGui@@YAXHM@Z:PROC		; ImGui::PushStyleVar
EXTRN	?PushStyleVar@ImGui@@YAXHABUImVec2@@@Z:PROC	; ImGui::PushStyleVar
EXTRN	?PopStyleVar@ImGui@@YAXH@Z:PROC			; ImGui::PopStyleVar
EXTRN	?GetFontTexUvWhitePixel@ImGui@@YA?AUImVec2@@XZ:PROC ; ImGui::GetFontTexUvWhitePixel
EXTRN	?GetColorU32@ImGui@@YAIHM@Z:PROC		; ImGui::GetColorU32
EXTRN	?GetColorU32@ImGui@@YAIABUImVec4@@@Z:PROC	; ImGui::GetColorU32
EXTRN	?GetColorU32@ImGui@@YAII@Z:PROC			; ImGui::GetColorU32
EXTRN	?PushItemWidth@ImGui@@YAXM@Z:PROC		; ImGui::PushItemWidth
EXTRN	?PopItemWidth@ImGui@@YAXXZ:PROC			; ImGui::PopItemWidth
EXTRN	?SetNextItemWidth@ImGui@@YAXM@Z:PROC		; ImGui::SetNextItemWidth
EXTRN	?CalcItemWidth@ImGui@@YAMXZ:PROC		; ImGui::CalcItemWidth
EXTRN	?PushTextWrapPos@ImGui@@YAXM@Z:PROC		; ImGui::PushTextWrapPos
EXTRN	?PopTextWrapPos@ImGui@@YAXXZ:PROC		; ImGui::PopTextWrapPos
EXTRN	?SameLine@ImGui@@YAXMM@Z:PROC			; ImGui::SameLine
EXTRN	?Indent@ImGui@@YAXM@Z:PROC			; ImGui::Indent
EXTRN	?Unindent@ImGui@@YAXM@Z:PROC			; ImGui::Unindent
EXTRN	?BeginGroup@ImGui@@YAXXZ:PROC			; ImGui::BeginGroup
EXTRN	?EndGroup@ImGui@@YAXXZ:PROC			; ImGui::EndGroup
EXTRN	?GetCursorScreenPos@ImGui@@YA?AUImVec2@@XZ:PROC	; ImGui::GetCursorScreenPos
EXTRN	?SetCursorScreenPos@ImGui@@YAXABUImVec2@@@Z:PROC ; ImGui::SetCursorScreenPos
EXTRN	?GetTextLineHeight@ImGui@@YAMXZ:PROC		; ImGui::GetTextLineHeight
EXTRN	?GetTextLineHeightWithSpacing@ImGui@@YAMXZ:PROC	; ImGui::GetTextLineHeightWithSpacing
EXTRN	?GetFrameHeight@ImGui@@YAMXZ:PROC		; ImGui::GetFrameHeight
EXTRN	?PushID@ImGui@@YAXPBD@Z:PROC			; ImGui::PushID
EXTRN	?PushID@ImGui@@YAXPBX@Z:PROC			; ImGui::PushID
EXTRN	?PushID@ImGui@@YAXH@Z:PROC			; ImGui::PushID
EXTRN	?PopID@ImGui@@YAXXZ:PROC			; ImGui::PopID
EXTRN	?GetID@ImGui@@YAIPBD@Z:PROC			; ImGui::GetID
EXTRN	?EndTooltip@ImGui@@YAXXZ:PROC			; ImGui::EndTooltip
EXTRN	?SetTooltip@ImGui@@YAXPBDZZ:PROC		; ImGui::SetTooltip
EXTRN	?OpenPopup@ImGui@@YAXPBD@Z:PROC			; ImGui::OpenPopup
EXTRN	?BeginPopup@ImGui@@YA_NPBDH@Z:PROC		; ImGui::BeginPopup
EXTRN	?EndPopup@ImGui@@YAXXZ:PROC			; ImGui::EndPopup
EXTRN	?OpenPopupOnItemClick@ImGui@@YA_NPBDH@Z:PROC	; ImGui::OpenPopupOnItemClick
EXTRN	?CloseCurrentPopup@ImGui@@YAXXZ:PROC		; ImGui::CloseCurrentPopup
EXTRN	?LogText@ImGui@@YAXPBDZZ:PROC			; ImGui::LogText
EXTRN	?BeginDragDropSource@ImGui@@YA_NH@Z:PROC	; ImGui::BeginDragDropSource
EXTRN	?SetDragDropPayload@ImGui@@YA_NPBDPBXIH@Z:PROC	; ImGui::SetDragDropPayload
EXTRN	?EndDragDropSource@ImGui@@YAXXZ:PROC		; ImGui::EndDragDropSource
EXTRN	?BeginDragDropTarget@ImGui@@YA_NXZ:PROC		; ImGui::BeginDragDropTarget
EXTRN	?AcceptDragDropPayload@ImGui@@YAPBUImGuiPayload@@PBDH@Z:PROC ; ImGui::AcceptDragDropPayload
EXTRN	?EndDragDropTarget@ImGui@@YAXXZ:PROC		; ImGui::EndDragDropTarget
EXTRN	?PushClipRect@ImGui@@YAXABUImVec2@@0_N@Z:PROC	; ImGui::PushClipRect
EXTRN	?PopClipRect@ImGui@@YAXXZ:PROC			; ImGui::PopClipRect
EXTRN	?SetItemDefaultFocus@ImGui@@YAXXZ:PROC		; ImGui::SetItemDefaultFocus
EXTRN	?IsItemHovered@ImGui@@YA_NH@Z:PROC		; ImGui::IsItemHovered
EXTRN	?IsItemActive@ImGui@@YA_NXZ:PROC		; ImGui::IsItemActive
EXTRN	?SetItemAllowOverlap@ImGui@@YAXXZ:PROC		; ImGui::SetItemAllowOverlap
EXTRN	?IsRectVisible@ImGui@@YA_NABUImVec2@@0@Z:PROC	; ImGui::IsRectVisible
EXTRN	?CalcTextSize@ImGui@@YA?AUImVec2@@PBD0_NM@Z:PROC ; ImGui::CalcTextSize
EXTRN	?BeginChildFrame@ImGui@@YA_NIABUImVec2@@H@Z:PROC ; ImGui::BeginChildFrame
EXTRN	?EndChildFrame@ImGui@@YAXXZ:PROC		; ImGui::EndChildFrame
EXTRN	?ColorConvertFloat4ToU32@ImGui@@YAIABUImVec4@@@Z:PROC ; ImGui::ColorConvertFloat4ToU32
EXTRN	?ColorConvertRGBtoHSV@ImGui@@YAXMMMAAM00@Z:PROC	; ImGui::ColorConvertRGBtoHSV
EXTRN	?ColorConvertHSVtoRGB@ImGui@@YAXMMMAAM00@Z:PROC	; ImGui::ColorConvertHSVtoRGB
EXTRN	?IsKeyPressed@ImGui@@YA_NH_N@Z:PROC		; ImGui::IsKeyPressed
EXTRN	?IsMouseClicked@ImGui@@YA_NH_N@Z:PROC		; ImGui::IsMouseClicked
EXTRN	?IsMouseReleased@ImGui@@YA_NH@Z:PROC		; ImGui::IsMouseReleased
EXTRN	?IsMousePosValid@ImGui@@YA_NPBUImVec2@@@Z:PROC	; ImGui::IsMousePosValid
EXTRN	?IsMouseDragging@ImGui@@YA_NHM@Z:PROC		; ImGui::IsMouseDragging
EXTRN	?SetMouseCursor@ImGui@@YAXH@Z:PROC		; ImGui::SetMouseCursor
EXTRN	?GetClipboardText@ImGui@@YAPBDXZ:PROC		; ImGui::GetClipboardText
EXTRN	?SetClipboardText@ImGui@@YAXPBD@Z:PROC		; ImGui::SetClipboardText
EXTRN	?MemAlloc@ImGui@@YAPAXI@Z:PROC			; ImGui::MemAlloc
EXTRN	?MemFree@ImGui@@YAXPAX@Z:PROC			; ImGui::MemFree
EXTRN	?append@ImGuiTextBuffer@@QAEXPBD0@Z:PROC	; ImGuiTextBuffer::append
EXTRN	?GetInt@ImGuiStorage@@QBEHIH@Z:PROC		; ImGuiStorage::GetInt
EXTRN	?SetInt@ImGuiStorage@@QAEXIH@Z:PROC		; ImGuiStorage::SetInt
EXTRN	?GetIntRef@ImGuiStorage@@QAEPAHIH@Z:PROC	; ImGuiStorage::GetIntRef
EXTRN	?Step@ImGuiListClipper@@QAE_NXZ:PROC		; ImGuiListClipper::Step
EXTRN	?Begin@ImGuiListClipper@@QAEXHM@Z:PROC		; ImGuiListClipper::Begin
EXTRN	?Split@ImDrawListSplitter@@QAEXPAUImDrawList@@H@Z:PROC ; ImDrawListSplitter::Split
EXTRN	?Merge@ImDrawListSplitter@@QAEXPAUImDrawList@@@Z:PROC ; ImDrawListSplitter::Merge
EXTRN	?SetCurrentChannel@ImDrawListSplitter@@QAEXPAUImDrawList@@H@Z:PROC ; ImDrawListSplitter::SetCurrentChannel
EXTRN	?AddLine@ImDrawList@@QAEXABUImVec2@@0IM@Z:PROC	; ImDrawList::AddLine
EXTRN	?AddRect@ImDrawList@@QAEXABUImVec2@@0IMHM@Z:PROC ; ImDrawList::AddRect
EXTRN	?AddRectFilled@ImDrawList@@QAEXABUImVec2@@0IMH@Z:PROC ; ImDrawList::AddRectFilled
EXTRN	?AddRectFilledMultiColor@ImDrawList@@QAEXABUImVec2@@0IIII@Z:PROC ; ImDrawList::AddRectFilledMultiColor
EXTRN	?AddTriangle@ImDrawList@@QAEXABUImVec2@@00IM@Z:PROC ; ImDrawList::AddTriangle
EXTRN	?AddCircle@ImDrawList@@QAEXABUImVec2@@MIHM@Z:PROC ; ImDrawList::AddCircle
EXTRN	?AddCircleFilled@ImDrawList@@QAEXABUImVec2@@MIH@Z:PROC ; ImDrawList::AddCircleFilled
EXTRN	?AddText@ImDrawList@@QAEXPBUImFont@@MABUImVec2@@IPBD2MPBUImVec4@@@Z:PROC ; ImDrawList::AddText
EXTRN	?AddPolyline@ImDrawList@@QAEXPBUImVec2@@HI_NM@Z:PROC ; ImDrawList::AddPolyline
EXTRN	?AddConvexPolyFilled@ImDrawList@@QAEXPBUImVec2@@HI@Z:PROC ; ImDrawList::AddConvexPolyFilled
EXTRN	?AddImage@ImDrawList@@QAEXPAXABUImVec2@@111I@Z:PROC ; ImDrawList::AddImage
EXTRN	?PathArcTo@ImDrawList@@QAEXABUImVec2@@MMMH@Z:PROC ; ImDrawList::PathArcTo
EXTRN	?PathArcToFast@ImDrawList@@QAEXABUImVec2@@MHH@Z:PROC ; ImDrawList::PathArcToFast
EXTRN	?PrimReserve@ImDrawList@@QAEXHH@Z:PROC		; ImDrawList::PrimReserve
EXTRN	?FindGlyph@ImFont@@QBEPBUImFontGlyph@@G@Z:PROC	; ImFont::FindGlyph
EXTRN	__imp____stdio_common_vsscanf:PROC
EXTRN	__imp__qsort:PROC
EXTRN	__imp__atof:PROC
EXTRN	_atan2:PROC
EXTRN	_cos:PROC
EXTRN	_fabs:PROC
EXTRN	_fmod:PROC
EXTRN	_pow:PROC
EXTRN	_sin:PROC
EXTRN	?ImHashStr@@YAIPBDII@Z:PROC			; ImHashStr
EXTRN	?ImStrncpy@@YAXPADPBDI@Z:PROC			; ImStrncpy
EXTRN	?ImStrbolW@@YAPBGPBG0@Z:PROC			; ImStrbolW
EXTRN	?ImStrTrimBlanks@@YAXPAD@Z:PROC			; ImStrTrimBlanks
EXTRN	?ImFormatString@@YAHPADIPBDZZ:PROC		; ImFormatString
EXTRN	?ImFormatStringV@@YAHPADIPBD0@Z:PROC		; ImFormatStringV
EXTRN	?ImTextStrToUtf8@@YAHPADHPBG1@Z:PROC		; ImTextStrToUtf8
EXTRN	?ImTextCharFromUtf8@@YAHPAIPBD1@Z:PROC		; ImTextCharFromUtf8
EXTRN	?ImTextStrFromUtf8@@YAHPAGHPBD1PAPBD@Z:PROC	; ImTextStrFromUtf8
EXTRN	?ImTextCountCharsFromUtf8@@YAHPBD0@Z:PROC	; ImTextCountCharsFromUtf8
EXTRN	?ImTextCountUtf8BytesFromStr@@YAHPBG0@Z:PROC	; ImTextCountUtf8BytesFromStr
EXTRN	?ImTriangleContainsPoint@@YA_NABUImVec2@@000@Z:PROC ; ImTriangleContainsPoint
EXTRN	?ImTriangleClosestPoint@@YA?AUImVec2@@ABU1@000@Z:PROC ; ImTriangleClosestPoint
EXTRN	?ImTriangleBarycentricCoords@@YAXABUImVec2@@000AAM11@Z:PROC ; ImTriangleBarycentricCoords
EXTRN	?GetID@ImGuiWindow@@QAEIPBD0@Z:PROC		; ImGuiWindow::GetID
EXTRN	?GetID@ImGuiWindow@@QAEIPBX@Z:PROC		; ImGuiWindow::GetID
EXTRN	?GetIDNoKeepAlive@ImGuiWindow@@QAEIPBD0@Z:PROC	; ImGuiWindow::GetIDNoKeepAlive
EXTRN	?FindWindowByName@ImGui@@YAPAUImGuiWindow@@PBD@Z:PROC ; ImGui::FindWindowByName
EXTRN	?FocusWindow@ImGui@@YAXPAUImGuiWindow@@@Z:PROC	; ImGui::FocusWindow
EXTRN	?FocusTopMostWindowUnderOne@ImGui@@YAXPAUImGuiWindow@@0@Z:PROC ; ImGui::FocusTopMostWindowUnderOne
EXTRN	?CalcWindowExpectedSize@ImGui@@YA?AUImVec2@@PAUImGuiWindow@@@Z:PROC ; ImGui::CalcWindowExpectedSize
EXTRN	?GetWindowAllowedExtentRect@ImGui@@YA?AUImRect@@PAUImGuiWindow@@@Z:PROC ; ImGui::GetWindowAllowedExtentRect
EXTRN	?StartMouseMovingWindow@ImGui@@YAXPAUImGuiWindow@@@Z:PROC ; ImGui::StartMouseMovingWindow
EXTRN	?MarkIniSettingsDirty@ImGui@@YAXXZ:PROC		; ImGui::MarkIniSettingsDirty
EXTRN	?SetScrollY@ImGui@@YAXPAUImGuiWindow@@M@Z:PROC	; ImGui::SetScrollY
EXTRN	?SetActiveID@ImGui@@YAXIPAUImGuiWindow@@@Z:PROC	; ImGui::SetActiveID
EXTRN	?SetFocusID@ImGui@@YAXIPAUImGuiWindow@@@Z:PROC	; ImGui::SetFocusID
EXTRN	?ClearActiveID@ImGui@@YAXXZ:PROC		; ImGui::ClearActiveID
EXTRN	?SetHoveredID@ImGui@@YAXI@Z:PROC		; ImGui::SetHoveredID
EXTRN	?KeepAliveID@ImGui@@YAXI@Z:PROC			; ImGui::KeepAliveID
EXTRN	?MarkItemEdited@ImGui@@YAXI@Z:PROC		; ImGui::MarkItemEdited
EXTRN	?PushOverrideID@ImGui@@YAXI@Z:PROC		; ImGui::PushOverrideID
EXTRN	?ItemSize@ImGui@@YAXABUImVec2@@M@Z:PROC		; ImGui::ItemSize
EXTRN	?ItemSize@ImGui@@YAXABUImRect@@M@Z:PROC		; ImGui::ItemSize
EXTRN	?ItemAdd@ImGui@@YA_NABUImRect@@IPBU2@@Z:PROC	; ImGui::ItemAdd
EXTRN	?ItemHoverable@ImGui@@YA_NABUImRect@@I@Z:PROC	; ImGui::ItemHoverable
EXTRN	?IsClippedEx@ImGui@@YA_NABUImRect@@I_N@Z:PROC	; ImGui::IsClippedEx
EXTRN	?FocusableItemRegister@ImGui@@YA_NPAUImGuiWindow@@I@Z:PROC ; ImGui::FocusableItemRegister
EXTRN	?FocusableItemUnregister@ImGui@@YAXPAUImGuiWindow@@@Z:PROC ; ImGui::FocusableItemUnregister
EXTRN	?CalcItemSize@ImGui@@YA?AUImVec2@@U2@MM@Z:PROC	; ImGui::CalcItemSize
EXTRN	?CalcWrapWidthForPos@ImGui@@YAMABUImVec2@@M@Z:PROC ; ImGui::CalcWrapWidthForPos
EXTRN	?PushMultiItemsWidths@ImGui@@YAXHM@Z:PROC	; ImGui::PushMultiItemsWidths
EXTRN	?PushItemFlag@ImGui@@YAXH_N@Z:PROC		; ImGui::PushItemFlag
EXTRN	?PopItemFlag@ImGui@@YAXXZ:PROC			; ImGui::PopItemFlag
EXTRN	?OpenPopupEx@ImGui@@YAXI@Z:PROC			; ImGui::OpenPopupEx
EXTRN	?ClosePopupToLevel@ImGui@@YAXH_N@Z:PROC		; ImGui::ClosePopupToLevel
EXTRN	?IsPopupOpen@ImGui@@YA_NI@Z:PROC		; ImGui::IsPopupOpen
EXTRN	?BeginPopupEx@ImGui@@YA_NIH@Z:PROC		; ImGui::BeginPopupEx
EXTRN	?BeginTooltipEx@ImGui@@YAXH_N@Z:PROC		; ImGui::BeginTooltipEx
EXTRN	?FindBestWindowPosForPopupEx@ImGui@@YA?AUImVec2@@ABU2@0PAHABUImRect@@2W4ImGuiPopupPositionPolicy@@@Z:PROC ; ImGui::FindBestWindowPosForPopupEx
EXTRN	?NavMoveRequestButNoResultYet@ImGui@@YA_NXZ:PROC ; ImGui::NavMoveRequestButNoResultYet
EXTRN	?NavMoveRequestCancel@ImGui@@YAXXZ:PROC		; ImGui::NavMoveRequestCancel
EXTRN	?GetNavInputAmount@ImGui@@YAMHW4ImGuiInputReadMode@@@Z:PROC ; ImGui::GetNavInputAmount
EXTRN	?GetNavInputAmount2d@ImGui@@YA?AUImVec2@@HW4ImGuiInputReadMode@@MM@Z:PROC ; ImGui::GetNavInputAmount2d
EXTRN	?CalcTypematicRepeatAmount@ImGui@@YAHMMMM@Z:PROC ; ImGui::CalcTypematicRepeatAmount
EXTRN	?SetNavID@ImGui@@YAXIH@Z:PROC			; ImGui::SetNavID
EXTRN	?SetNavIDWithRectRel@ImGui@@YAXIHABUImRect@@@Z:PROC ; ImGui::SetNavIDWithRectRel
EXTRN	?RenderText@ImGui@@YAXUImVec2@@PBD1_N@Z:PROC	; ImGui::RenderText
EXTRN	?RenderTextWrapped@ImGui@@YAXUImVec2@@PBD1M@Z:PROC ; ImGui::RenderTextWrapped
EXTRN	?RenderTextClipped@ImGui@@YAXABUImVec2@@0PBD1PBU2@0PBUImRect@@@Z:PROC ; ImGui::RenderTextClipped
EXTRN	?RenderTextClippedEx@ImGui@@YAXPAUImDrawList@@ABUImVec2@@1PBD2PBU3@1PBUImRect@@@Z:PROC ; ImGui::RenderTextClippedEx
EXTRN	?RenderTextEllipsis@ImGui@@YAXPAUImDrawList@@ABUImVec2@@1MMPBD2PBU3@@Z:PROC ; ImGui::RenderTextEllipsis
EXTRN	?RenderFrame@ImGui@@YAXUImVec2@@0I_NM@Z:PROC	; ImGui::RenderFrame
EXTRN	?RenderFrameBorder@ImGui@@YAXUImVec2@@0M@Z:PROC	; ImGui::RenderFrameBorder
EXTRN	?RenderCheckMark@ImGui@@YAXUImVec2@@IM@Z:PROC	; ImGui::RenderCheckMark
EXTRN	?RenderNavHighlight@ImGui@@YAXABUImRect@@IH@Z:PROC ; ImGui::RenderNavHighlight
EXTRN	?FindRenderedTextEnd@ImGui@@YAPBDPBD0@Z:PROC	; ImGui::FindRenderedTextEnd
EXTRN	?LogRenderedText@ImGui@@YAXPBUImVec2@@PBD1@Z:PROC ; ImGui::LogRenderedText
EXTRN	?RenderArrow@ImGui@@YAXPAUImDrawList@@UImVec2@@IHM@Z:PROC ; ImGui::RenderArrow
EXTRN	?RenderBullet@ImGui@@YAXPAUImDrawList@@UImVec2@@I@Z:PROC ; ImGui::RenderBullet
EXTRN	?RenderArrowPointingAt@ImGui@@YAXPAUImDrawList@@UImVec2@@1HI@Z:PROC ; ImGui::RenderArrowPointingAt
EXTRN	?RenderRectFilledRangeH@ImGui@@YAXPAUImDrawList@@ABUImRect@@IMMM@Z:PROC ; ImGui::RenderRectFilledRangeH
EXTRN	?ShadeVertsLinearColorGradientKeepAlpha@ImGui@@YAXPAUImDrawList@@HHUImVec2@@1II@Z:PROC ; ImGui::ShadeVertsLinearColorGradientKeepAlpha
EXTRN	@_RTC_CheckStackVars@8:PROC
EXTRN	@__CheckForDebuggerJustMyCode@4:PROC
EXTRN	@__security_check_cookie@4:PROC
EXTRN	__RTC_CheckEsp:PROC
EXTRN	__RTC_InitBase:PROC
EXTRN	__RTC_Shutdown:PROC
EXTRN	___CxxFrameHandler3:PROC
EXTRN	__alldiv:PROC
EXTRN	__allmul:PROC
EXTRN	__aulldiv:PROC
EXTRN	__dtol3:PROC
EXTRN	__dtoul3:PROC
EXTRN	__ftol2:PROC
EXTRN	__ftol2_sse:PROC
EXTRN	__ftol3:PROC
EXTRN	__ftoui3:PROC
EXTRN	__ftoul3:PROC
EXTRN	__ltod3:PROC
EXTRN	__ultod3:PROC
EXTRN	?GImGui@@3PAUImGuiContext@@A:DWORD		; GImGui
EXTRN	___security_cookie:DWORD
EXTRN	__fltused:DWORD
;	COMDAT ?_OptionsStorage@?1??__local_stdio_scanf_options@@9@4_KA
_BSS	SEGMENT
?_OptionsStorage@?1??__local_stdio_scanf_options@@9@4_KA DQ 01H DUP (?) ; `__local_stdio_scanf_options'::`2'::_OptionsStorage
_BSS	ENDS
;	COMDAT __xmm@80000000800000008000000080000000
CONST	SEGMENT
__xmm@80000000800000008000000080000000 DB 00H, 00H, 00H, 080H, 00H, 00H, 00H
	DB	080H, 00H, 00H, 00H, 080H, 00H, 00H, 00H, 080H
CONST	ENDS
;	COMDAT __xmm@80000000000000008000000000000000
CONST	SEGMENT
__xmm@80000000000000008000000000000000 DB 00H, 00H, 00H, 00H, 00H, 00H, 00H
	DB	080H, 00H, 00H, 00H, 00H, 00H, 00H, 00H, 080H
CONST	ENDS
;	COMDAT __xmm@41f00000000000000000000000000000
CONST	SEGMENT
__xmm@41f00000000000000000000000000000 DB 00H, 00H, 00H, 00H, 00H, 00H, 00H
	DB	00H, 00H, 00H, 00H, 00H, 00H, 00H, 0f0H, 'A'
CONST	ENDS
;	COMDAT __real@ffefffffffffffff
CONST	SEGMENT
__real@ffefffffffffffff DQ 0ffefffffffffffffr	; -1.79769e+308
CONST	ENDS
;	COMDAT __real@ffdfffffffffffff
CONST	SEGMENT
__real@ffdfffffffffffff DQ 0ffdfffffffffffffr	; -8.98847e+307
CONST	ENDS
;	COMDAT __real@ff7fffff
CONST	SEGMENT
__real@ff7fffff DD 0ff7fffffr			; -3.40282e+38
CONST	ENDS
;	COMDAT __real@feffffff
CONST	SEGMENT
__real@feffffff DD 0feffffffr			; -1.70141e+38
CONST	ENDS
;	COMDAT __real@c2c80000
CONST	SEGMENT
__real@c2c80000 DD 0c2c80000r			; -100
CONST	ENDS
;	COMDAT __real@c059000000000000
CONST	SEGMENT
__real@c059000000000000 DQ 0c059000000000000r	; -100
CONST	ENDS
;	COMDAT __real@bf800000
CONST	SEGMENT
__real@bf800000 DD 0bf800000r			; -1
CONST	ENDS
;	COMDAT __real@bf5db3d0
CONST	SEGMENT
__real@bf5db3d0 DD 0bf5db3d0r			; -0.866025
CONST	ENDS
;	COMDAT __real@bf400000
CONST	SEGMENT
__real@bf400000 DD 0bf400000r			; -0.75
CONST	ENDS
;	COMDAT __real@bf000000
CONST	SEGMENT
__real@bf000000 DD 0bf000000r			; -0.5
CONST	ENDS
;	COMDAT __real@be99999a
CONST	SEGMENT
__real@be99999a DD 0be99999ar			; -0.3
CONST	ENDS
;	COMDAT __real@7fefffffffffffff
CONST	SEGMENT
__real@7fefffffffffffff DQ 07fefffffffffffffr	; 1.79769e+308
CONST	ENDS
;	COMDAT __real@7fdfffffffffffff
CONST	SEGMENT
__real@7fdfffffffffffff DQ 07fdfffffffffffffr	; 8.98847e+307
CONST	ENDS
;	COMDAT __real@7f7fffff
CONST	SEGMENT
__real@7f7fffff DD 07f7fffffr			; 3.40282e+38
CONST	ENDS
;	COMDAT __real@7effffff
CONST	SEGMENT
__real@7effffff DD 07effffffr			; 1.70141e+38
CONST	ENDS
;	COMDAT __real@47efffffe0000000
CONST	SEGMENT
__real@47efffffe0000000 DQ 047efffffe0000000r	; 3.40282e+38
CONST	ENDS
;	COMDAT __real@43e0000000000000
CONST	SEGMENT
__real@43e0000000000000 DQ 043e0000000000000r	; 9.22337e+18
CONST	ENDS
;	COMDAT __real@43b40000
CONST	SEGMENT
__real@43b40000 DD 043b40000r			; 360
CONST	ENDS
;	COMDAT __real@437f0000
CONST	SEGMENT
__real@437f0000 DD 0437f0000r			; 255
CONST	ENDS
;	COMDAT __real@42c80000
CONST	SEGMENT
__real@42c80000 DD 042c80000r			; 100
CONST	ENDS
;	COMDAT __real@428c0000
CONST	SEGMENT
__real@428c0000 DD 0428c0000r			; 70
CONST	ENDS
;	COMDAT __real@41f00000
CONST	SEGMENT
__real@41f00000 DD 041f00000r			; 30
CONST	ENDS
;	COMDAT __real@41a00000
CONST	SEGMENT
__real@41a00000 DD 041a00000r			; 20
CONST	ENDS
;	COMDAT __real@41400000
CONST	SEGMENT
__real@41400000 DD 041400000r			; 12
CONST	ENDS
;	COMDAT __real@41200000
CONST	SEGMENT
__real@41200000 DD 041200000r			; 10
CONST	ENDS
;	COMDAT __real@41000000
CONST	SEGMENT
__real@41000000 DD 041000000r			; 8
CONST	ENDS
;	COMDAT __real@40eccccd
CONST	SEGMENT
__real@40eccccd DD 040eccccdr			; 7.4
CONST	ENDS
;	COMDAT __real@40c90fdb
CONST	SEGMENT
__real@40c90fdb DD 040c90fdbr			; 6.28319
CONST	ENDS
;	COMDAT __real@40c00000
CONST	SEGMENT
__real@40c00000 DD 040c00000r			; 6
CONST	ENDS
;	COMDAT __real@40a00000
CONST	SEGMENT
__real@40a00000 DD 040a00000r			; 5
CONST	ENDS
;	COMDAT __real@40800000
CONST	SEGMENT
__real@40800000 DD 040800000r			; 4
CONST	ENDS
;	COMDAT __real@40666666
CONST	SEGMENT
__real@40666666 DD 040666666r			; 3.6
CONST	ENDS
;	COMDAT __real@4059000000000000
CONST	SEGMENT
__real@4059000000000000 DQ 04059000000000000r	; 100
CONST	ENDS
;	COMDAT __real@40490fdb
CONST	SEGMENT
__real@40490fdb DD 040490fdbr			; 3.14159
CONST	ENDS
;	COMDAT __real@40400000
CONST	SEGMENT
__real@40400000 DD 040400000r			; 3
CONST	ENDS
;	COMDAT __real@403f5c29
CONST	SEGMENT
__real@403f5c29 DD 0403f5c29r			; 2.99
CONST	ENDS
;	COMDAT __real@4024000000000000
CONST	SEGMENT
__real@4024000000000000 DQ 04024000000000000r	; 10
CONST	ENDS
;	COMDAT __real@40000000
CONST	SEGMENT
__real@40000000 DD 040000000r			; 2
CONST	ENDS
;	COMDAT __real@3ff0000000000000
CONST	SEGMENT
__real@3ff0000000000000 DQ 03ff0000000000000r	; 1
CONST	ENDS
;	COMDAT __real@3fe0000000000000
CONST	SEGMENT
__real@3fe0000000000000 DQ 03fe0000000000000r	; 0.5
CONST	ENDS
;	COMDAT __real@3fc00000
CONST	SEGMENT
__real@3fc00000 DD 03fc00000r			; 1.5
CONST	ENDS
;	COMDAT __real@3fb33333
CONST	SEGMENT
__real@3fb33333 DD 03fb33333r			; 1.4
CONST	ENDS
;	COMDAT __real@3f99999a
CONST	SEGMENT
__real@3f99999a DD 03f99999ar			; 1.2
CONST	ENDS
;	COMDAT __real@3f800000
CONST	SEGMENT
__real@3f800000 DD 03f800000r			; 1
CONST	ENDS
;	COMDAT __real@3f7ff972
CONST	SEGMENT
__real@3f7ff972 DD 03f7ff972r			; 0.9999
CONST	ENDS
;	COMDAT __real@3f5db3d0
CONST	SEGMENT
__real@3f5db3d0 DD 03f5db3d0r			; 0.866025
CONST	ENDS
;	COMDAT __real@3f5db22d
CONST	SEGMENT
__real@3f5db22d DD 03f5db22dr			; 0.866
CONST	ENDS
;	COMDAT __real@3f4ccccd
CONST	SEGMENT
__real@3f4ccccd DD 03f4ccccdr			; 0.8
CONST	ENDS
;	COMDAT __real@3f350481
CONST	SEGMENT
__real@3f350481 DD 03f350481r			; 0.7071
CONST	ENDS
;	COMDAT __real@3f333333
CONST	SEGMENT
__real@3f333333 DD 03f333333r			; 0.7
CONST	ENDS
;	COMDAT __real@3f266666
CONST	SEGMENT
__real@3f266666 DD 03f266666r			; 0.65
CONST	ENDS
;	COMDAT __real@3f19999a
CONST	SEGMENT
__real@3f19999a DD 03f19999ar			; 0.6
CONST	ENDS
;	COMDAT __real@3f0ccccd
CONST	SEGMENT
__real@3f0ccccd DD 03f0ccccdr			; 0.55
CONST	ENDS
;	COMDAT __real@3f000000
CONST	SEGMENT
__real@3f000000 DD 03f000000r			; 0.5
CONST	ENDS
;	COMDAT __real@3ecccccd
CONST	SEGMENT
__real@3ecccccd DD 03ecccccdr			; 0.4
CONST	ENDS
;	COMDAT __real@3e99999a
CONST	SEGMENT
__real@3e99999a DD 03e99999ar			; 0.3
CONST	ENDS
;	COMDAT __real@3e800000
CONST	SEGMENT
__real@3e800000 DD 03e800000r			; 0.25
CONST	ENDS
;	COMDAT __real@3e4ccccd
CONST	SEGMENT
__real@3e4ccccd DD 03e4ccccdr			; 0.2
CONST	ENDS
;	COMDAT __real@3e19999a
CONST	SEGMENT
__real@3e19999a DD 03e19999ar			; 0.15
CONST	ENDS
;	COMDAT __real@3e09374c
CONST	SEGMENT
__real@3e09374c DD 03e09374cr			; 0.134
CONST	ENDS
;	COMDAT __real@3dcccccd
CONST	SEGMENT
__real@3dcccccd DD 03dcccccdr			; 0.1
CONST	ENDS
;	COMDAT __real@3da3d70a
CONST	SEGMENT
__real@3da3d70a DD 03da3d70ar			; 0.08
CONST	ENDS
;	COMDAT __real@3cdd2f1b
CONST	SEGMENT
__real@3cdd2f1b DD 03cdd2f1br			; 0.027
CONST	ENDS
;	COMDAT __real@3c23d70a
CONST	SEGMENT
__real@3c23d70a DD 03c23d70ar			; 0.01
CONST	ENDS
;	COMDAT __real@3b808081
CONST	SEGMENT
__real@3b808081 DD 03b808081r			; 0.00392157
CONST	ENDS
;	COMDAT __real@38d1b717
CONST	SEGMENT
__real@38d1b717 DD 038d1b717r			; 0.0001
CONST	ENDS
;	COMDAT __real@3727c5ac
CONST	SEGMENT
__real@3727c5ac DD 03727c5acr			; 1e-05
CONST	ENDS
;	COMDAT __real@358637bd
CONST	SEGMENT
__real@358637bd DD 0358637bdr			; 1e-06
CONST	ENDS
;	COMDAT __real@00800000
CONST	SEGMENT
__real@00800000 DD 000800000r			; 1.17549e-38
CONST	ENDS
;	COMDAT __real@0000000000000000
CONST	SEGMENT
__real@0000000000000000 DQ 00000000000000000r	; 0
CONST	ENDS
;	COMDAT __real@00000000
CONST	SEGMENT
__real@00000000 DD 000000000r			; 0
CONST	ENDS
;	COMDAT rtc$TMZ
rtc$TMZ	SEGMENT
__RTC_Shutdown.rtc$TMZ DD FLAT:__RTC_Shutdown
rtc$TMZ	ENDS
;	COMDAT rtc$IMZ
rtc$IMZ	SEGMENT
__RTC_InitBase.rtc$IMZ DD FLAT:__RTC_InitBase
rtc$IMZ	ENDS
;	COMDAT ??_C@_1FC@BIEMKEOL@?$AAp?$AA?5?$AA?$DO?$AA?$DN?$AA?5?$AAB?$AAu?$AAf?$AA?4?$AAD?$AAa?$AAt?$AAa?$AA?5?$AA?$CG@
CONST	SEGMENT
??_C@_1FC@BIEMKEOL@?$AAp?$AA?5?$AA?$DO?$AA?$DN?$AA?5?$AAB?$AAu?$AAf?$AA?4?$AAD?$AAa?$AAt?$AAa?$AA?5?$AA?$CG@ DB 'p'
	DB	00H, ' ', 00H, '>', 00H, '=', 00H, ' ', 00H, 'B', 00H, 'u', 00H
	DB	'f', 00H, '.', 00H, 'D', 00H, 'a', 00H, 't', 00H, 'a', 00H, ' '
	DB	00H, '&', 00H, '&', 00H, ' ', 00H, 'p', 00H, ' ', 00H, '<', 00H
	DB	' ', 00H, 'B', 00H, 'u', 00H, 'f', 00H, '.', 00H, 'D', 00H, 'a'
	DB	00H, 't', 00H, 'a', 00H, ' ', 00H, '+', 00H, ' ', 00H, 'B', 00H
	DB	'u', 00H, 'f', 00H, '.', 00H, 'S', 00H, 'i', 00H, 'z', 00H, 'e'
	DB	00H, 00H, 00H				; `string'
CONST	ENDS
;	COMDAT ??_C@_1BC@DCMHDKFO@?$AAi?$AA?5?$AA?$DM?$AA?5?$AAS?$AAi?$AAz?$AAe@
CONST	SEGMENT
??_C@_1BC@DCMHDKFO@?$AAi?$AA?5?$AA?$DM?$AA?5?$AAS?$AAi?$AAz?$AAe@ DB 'i', 00H
	DB	' ', 00H, '<', 00H, ' ', 00H, 'S', 00H, 'i', 00H, 'z', 00H, 'e'
	DB	00H, 00H, 00H				; `string'
CONST	ENDS
;	COMDAT ??_C@_1BC@KCECIPDP@?$AAS?$AAi?$AAz?$AAe?$AA?5?$AA?$DO?$AA?5?$AA0@
CONST	SEGMENT
??_C@_1BC@KCECIPDP@?$AAS?$AAi?$AAz?$AAe?$AA?5?$AA?$DO?$AA?5?$AA0@ DB 'S', 00H
	DB	'i', 00H, 'z', 00H, 'e', 00H, ' ', 00H, '>', 00H, ' ', 00H, '0'
	DB	00H, 00H, 00H				; `string'
CONST	ENDS
;	COMDAT ??_C@_1DK@JJGEFOJO@?$AAi?$AAt?$AA?5?$AA?$DO?$AA?$DN?$AA?5?$AAD?$AAa?$AAt?$AAa?$AA?5?$AA?$CG?$AA?$CG?$AA?5?$AAi@
CONST	SEGMENT
??_C@_1DK@JJGEFOJO@?$AAi?$AAt?$AA?5?$AA?$DO?$AA?$DN?$AA?5?$AAD?$AAa?$AAt?$AAa?$AA?5?$AA?$CG?$AA?$CG?$AA?5?$AAi@ DB 'i'
	DB	00H, 't', 00H, ' ', 00H, '>', 00H, '=', 00H, ' ', 00H, 'D', 00H
	DB	'a', 00H, 't', 00H, 'a', 00H, ' ', 00H, '&', 00H, '&', 00H, ' '
	DB	00H, 'i', 00H, 't', 00H, ' ', 00H, '<', 00H, ' ', 00H, 'D', 00H
	DB	'a', 00H, 't', 00H, 'a', 00H, '+', 00H, 'S', 00H, 'i', 00H, 'z'
	DB	00H, 'e', 00H, 00H, 00H			; `string'
CONST	ENDS
;	COMDAT ??_C@_1DO@NPHOAPAC@?$AAi?$AAt?$AA?5?$AA?$DO?$AA?$DN?$AA?5?$AAD?$AAa?$AAt?$AAa?$AA?5?$AA?$CG?$AA?$CG?$AA?5?$AAi@
CONST	SEGMENT
??_C@_1DO@NPHOAPAC@?$AAi?$AAt?$AA?5?$AA?$DO?$AA?$DN?$AA?5?$AAD?$AAa?$AAt?$AAa?$AA?5?$AA?$CG?$AA?$CG?$AA?5?$AAi@ DB 'i'
	DB	00H, 't', 00H, ' ', 00H, '>', 00H, '=', 00H, ' ', 00H, 'D', 00H
	DB	'a', 00H, 't', 00H, 'a', 00H, ' ', 00H, '&', 00H, '&', 00H, ' '
	DB	00H, 'i', 00H, 't', 00H, ' ', 00H, '<', 00H, ' ', 00H, 'D', 00H
	DB	'a', 00H, 't', 00H, 'a', 00H, ' ', 00H, '+', 00H, ' ', 00H, 'S'
	DB	00H, 'i', 00H, 'z', 00H, 'e', 00H, 00H, 00H	; `string'
CONST	ENDS
;	COMDAT ?__LINE__Var@?0??Columns@ImGui@@YAXHPBD_N@Z@4JA
_DATA	SEGMENT
?__LINE__Var@?0??Columns@ImGui@@YAXHPBD_N@Z@4JA DD 01dbdH ; `ImGui::Columns'::`1'::__LINE__Var
_DATA	ENDS
;	COMDAT ?__LINE__Var@?0??EndColumns@ImGui@@YAXXZ@4JA
_DATA	SEGMENT
?__LINE__Var@?0??EndColumns@ImGui@@YAXXZ@4JA DD 01d71H	; `ImGui::EndColumns'::`1'::__LINE__Var
_DATA	ENDS
;	COMDAT ??_C@_1CM@HCFAHNAF@?$AAc?$AAo?$AAl?$AAu?$AAm?$AAn?$AAs?$AA?9?$AA?$DO?$AAC?$AAu?$AAr?$AAr?$AAe?$AAn@
CONST	SEGMENT
??_C@_1CM@HCFAHNAF@?$AAc?$AAo?$AAl?$AAu?$AAm?$AAn?$AAs?$AA?9?$AA?$DO?$AAC?$AAu?$AAr?$AAr?$AAe?$AAn@ DB 'c'
	DB	00H, 'o', 00H, 'l', 00H, 'u', 00H, 'm', 00H, 'n', 00H, 's', 00H
	DB	'-', 00H, '>', 00H, 'C', 00H, 'u', 00H, 'r', 00H, 'r', 00H, 'e'
	DB	00H, 'n', 00H, 't', 00H, ' ', 00H, '=', 00H, '=', 00H, ' ', 00H
	DB	'0', 00H, 00H, 00H				; `string'
CONST	ENDS
;	COMDAT ?__LINE__Var@?0??NextColumn@ImGui@@YAXXZ@4JA
_DATA	SEGMENT
?__LINE__Var@?0??NextColumn@ImGui@@YAXXZ@4JA DD 01d3eH	; `ImGui::NextColumn'::`1'::__LINE__Var
_DATA	ENDS
;	COMDAT ??_C@_1CE@IJEAECLN@?$AAc?$AAo?$AAl?$AAu?$AAm?$AAn?$AAs?$AA?9?$AA?$DO?$AAI?$AAD?$AA?5?$AA?$DN?$AA?$DN?$AA?5@
CONST	SEGMENT
??_C@_1CE@IJEAECLN@?$AAc?$AAo?$AAl?$AAu?$AAm?$AAn?$AAs?$AA?9?$AA?$DO?$AAI?$AAD?$AA?5?$AA?$DN?$AA?$DN?$AA?5@ DB 'c'
	DB	00H, 'o', 00H, 'l', 00H, 'u', 00H, 'm', 00H, 'n', 00H, 's', 00H
	DB	'-', 00H, '>', 00H, 'I', 00H, 'D', 00H, ' ', 00H, '=', 00H, '='
	DB	00H, ' ', 00H, 'i', 00H, 'd', 00H, 00H, 00H	; `string'
CONST	ENDS
;	COMDAT ??_C@_1DO@BPFJENMI@?$AAw?$AAi?$AAn?$AAd?$AAo?$AAw?$AA?9?$AA?$DO?$AAD?$AAC?$AA?4?$AAC?$AAu?$AAr?$AAr@
CONST	SEGMENT
??_C@_1DO@BPFJENMI@?$AAw?$AAi?$AAn?$AAd?$AAo?$AAw?$AA?9?$AA?$DO?$AAD?$AAC?$AA?4?$AAC?$AAu?$AAr?$AAr@ DB 'w'
	DB	00H, 'i', 00H, 'n', 00H, 'd', 00H, 'o', 00H, 'w', 00H, '-', 00H
	DB	'>', 00H, 'D', 00H, 'C', 00H, '.', 00H, 'C', 00H, 'u', 00H, 'r'
	DB	00H, 'r', 00H, 'e', 00H, 'n', 00H, 't', 00H, 'C', 00H, 'o', 00H
	DB	'l', 00H, 'u', 00H, 'm', 00H, 'n', 00H, 's', 00H, ' ', 00H, '='
	DB	00H, '=', 00H, ' ', 00H, '0', 00H, 00H, 00H	; `string'
CONST	ENDS
;	COMDAT ??_C@_1CG@GDAJJGIO@?$AAc?$AAo?$AAl?$AAu?$AAm?$AAn?$AAs?$AA_?$AAc?$AAo?$AAu?$AAn?$AAt?$AA?5?$AA?$DO@
CONST	SEGMENT
??_C@_1CG@GDAJJGIO@?$AAc?$AAo?$AAl?$AAu?$AAm?$AAn?$AAs?$AA_?$AAc?$AAo?$AAu?$AAn?$AAt?$AA?5?$AA?$DO@ DB 'c'
	DB	00H, 'o', 00H, 'l', 00H, 'u', 00H, 'm', 00H, 'n', 00H, 's', 00H
	DB	'_', 00H, 'c', 00H, 'o', 00H, 'u', 00H, 'n', 00H, 't', 00H, ' '
	DB	00H, '>', 00H, '=', 00H, ' ', 00H, '1', 00H, 00H, 00H ; `string'
CONST	ENDS
;	COMDAT ?__LINE__Var@?0??BeginColumns@ImGui@@YAXPBDHH@Z@4JA
_DATA	SEGMENT
?__LINE__Var@?0??BeginColumns@ImGui@@YAXPBDHH@Z@4JA DD 01cf2H ; `ImGui::BeginColumns'::`1'::__LINE__Var
_DATA	ENDS
;	COMDAT ??_C@_07HIFEPIJN@columns@
CONST	SEGMENT
??_C@_07HIFEPIJN@columns@ DB 'columns', 00H		; `string'
CONST	ENDS
;	COMDAT ??_C@_1FK@BKCOEDF@?$AAc?$AAm?$AAd?$AA_?$AAs?$AAi?$AAz?$AAe?$AA?5?$AA?$DN?$AA?$DN?$AA?5?$AAw?$AAi?$AAn@
CONST	SEGMENT
??_C@_1FK@BKCOEDF@?$AAc?$AAm?$AAd?$AA_?$AAs?$AAi?$AAz?$AAe?$AA?5?$AA?$DN?$AA?$DN?$AA?5?$AAw?$AAi?$AAn@ DB 'c'
	DB	00H, 'm', 00H, 'd', 00H, '_', 00H, 's', 00H, 'i', 00H, 'z', 00H
	DB	'e', 00H, ' ', 00H, '=', 00H, '=', 00H, ' ', 00H, 'w', 00H, 'i'
	DB	00H, 'n', 00H, 'd', 00H, 'o', 00H, 'w', 00H, '-', 00H, '>', 00H
	DB	'D', 00H, 'r', 00H, 'a', 00H, 'w', 00H, 'L', 00H, 'i', 00H, 's'
	DB	00H, 't', 00H, '-', 00H, '>', 00H, 'C', 00H, 'm', 00H, 'd', 00H
	DB	'B', 00H, 'u', 00H, 'f', 00H, 'f', 00H, 'e', 00H, 'r', 00H, '.'
	DB	00H, 'S', 00H, 'i', 00H, 'z', 00H, 'e', 00H, 00H, 00H ; `string'
CONST	ENDS
;	COMDAT ?__LINE__Var@?0??PushColumnsBackground@ImGui@@YAXXZ@4JA
_DATA	SEGMENT
?__LINE__Var@?0??PushColumnsBackground@ImGui@@YAXXZ@4JA DD 01cc1H ; `ImGui::PushColumnsBackground'::`1'::__LINE__Var
_DATA	ENDS
;	COMDAT ?__LINE__Var@?0??SetColumnWidth@ImGui@@YAXHM@Z@4JA
_DATA	SEGMENT
?__LINE__Var@?0??SetColumnWidth@ImGui@@YAXHM@Z@4JA DD 01caaH ; `ImGui::SetColumnWidth'::`1'::__LINE__Var
_DATA	ENDS
;	COMDAT ??_C@_1BK@FLGDBJKG@?$AAc?$AAo?$AAl?$AAu?$AAm?$AAn?$AAs?$AA?5?$AA?$CB?$AA?$DN?$AA?5?$AA0@
CONST	SEGMENT
??_C@_1BK@FLGDBJKG@?$AAc?$AAo?$AAl?$AAu?$AAm?$AAn?$AAs?$AA?5?$AA?$CB?$AA?$DN?$AA?5?$AA0@ DB 'c'
	DB	00H, 'o', 00H, 'l', 00H, 'u', 00H, 'm', 00H, 'n', 00H, 's', 00H
	DB	' ', 00H, '!', 00H, '=', 00H, ' ', 00H, '0', 00H, 00H, 00H ; `string'
CONST	ENDS
;	COMDAT ?__LINE__Var@?0??SetColumnOffset@ImGui@@YAXHM@Z@4JA
_DATA	SEGMENT
?__LINE__Var@?0??SetColumnOffset@ImGui@@YAXHM@Z@4JA DD 01c94H ; `ImGui::SetColumnOffset'::`1'::__LINE__Var
_DATA	ENDS
;	COMDAT ??_C@_1EK@FCGFMMCK@?$AAc?$AAo?$AAl?$AAu?$AAm?$AAn?$AA_?$AAi?$AAn?$AAd?$AAe?$AAx?$AA?5?$AA?$DM?$AA?5@
CONST	SEGMENT
??_C@_1EK@FCGFMMCK@?$AAc?$AAo?$AAl?$AAu?$AAm?$AAn?$AA_?$AAi?$AAn?$AAd?$AAe?$AAx?$AA?5?$AA?$DM?$AA?5@ DB 'c'
	DB	00H, 'o', 00H, 'l', 00H, 'u', 00H, 'm', 00H, 'n', 00H, '_', 00H
	DB	'i', 00H, 'n', 00H, 'd', 00H, 'e', 00H, 'x', 00H, ' ', 00H, '<'
	DB	00H, ' ', 00H, 'c', 00H, 'o', 00H, 'l', 00H, 'u', 00H, 'm', 00H
	DB	'n', 00H, 's', 00H, '-', 00H, '>', 00H, 'C', 00H, 'o', 00H, 'l'
	DB	00H, 'u', 00H, 'm', 00H, 'n', 00H, 's', 00H, '.', 00H, 'S', 00H
	DB	'i', 00H, 'z', 00H, 'e', 00H, 00H, 00H	; `string'
CONST	ENDS
;	COMDAT ?__LINE__Var@?0??GetColumnOffset@ImGui@@YAMH@Z@4JA
_DATA	SEGMENT
?__LINE__Var@?0??GetColumnOffset@ImGui@@YAMH@Z@4JA DD 01c6aH ; `ImGui::GetColumnOffset'::`1'::__LINE__Var
_DATA	ENDS
;	COMDAT ??_C@_1GE@CFLLPKGA@?$AAg?$AA?4?$AAA?$AAc?$AAt?$AAi?$AAv?$AAe?$AAI?$AAd?$AA?5?$AA?$DN?$AA?$DN?$AA?5?$AAc@
CONST	SEGMENT
??_C@_1GE@CFLLPKGA@?$AAg?$AA?4?$AAA?$AAc?$AAt?$AAi?$AAv?$AAe?$AAI?$AAd?$AA?5?$AA?$DN?$AA?$DN?$AA?5?$AAc@ DB 'g'
	DB	00H, '.', 00H, 'A', 00H, 'c', 00H, 't', 00H, 'i', 00H, 'v', 00H
	DB	'e', 00H, 'I', 00H, 'd', 00H, ' ', 00H, '=', 00H, '=', 00H, ' '
	DB	00H, 'c', 00H, 'o', 00H, 'l', 00H, 'u', 00H, 'm', 00H, 'n', 00H
	DB	's', 00H, '-', 00H, '>', 00H, 'I', 00H, 'D', 00H, ' ', 00H, '+'
	DB	00H, ' ', 00H, 'I', 00H, 'm', 00H, 'G', 00H, 'u', 00H, 'i', 00H
	DB	'I', 00H, 'D', 00H, '(', 00H, 'c', 00H, 'o', 00H, 'l', 00H, 'u'
	DB	00H, 'm', 00H, 'n', 00H, '_', 00H, 'i', 00H, 'n', 00H, 'd', 00H
	DB	'e', 00H, 'x', 00H, ')', 00H, 00H, 00H	; `string'
CONST	ENDS
;	COMDAT ??_C@_1CC@HNMGCLDB@?$AAc?$AAo?$AAl?$AAu?$AAm?$AAn?$AA_?$AAi?$AAn?$AAd?$AAe?$AAx?$AA?5?$AA?$DO?$AA?5@
CONST	SEGMENT
??_C@_1CC@HNMGCLDB@?$AAc?$AAo?$AAl?$AAu?$AAm?$AAn?$AA_?$AAi?$AAn?$AAd?$AAe?$AAx?$AA?5?$AA?$DO?$AA?5@ DB 'c'
	DB	00H, 'o', 00H, 'l', 00H, 'u', 00H, 'm', 00H, 'n', 00H, '_', 00H
	DB	'i', 00H, 'n', 00H, 'd', 00H, 'e', 00H, 'x', 00H, ' ', 00H, '>'
	DB	00H, ' ', 00H, '0', 00H, 00H, 00H		; `string'
CONST	ENDS
;	COMDAT ?__LINE__Var@?0??GetDraggedColumnOffset@@YAMPAUImGuiColumns@@H@Z@4JA
_DATA	SEGMENT
?__LINE__Var@?0??GetDraggedColumnOffset@@YAMPAUImGuiColumns@@H@Z@4JA DD 01c59H ; `GetDraggedColumnOffset'::`1'::__LINE__Var
_DATA	ENDS
;	COMDAT ??_C@_01NBENCBCI@?$CK@
CONST	SEGMENT
??_C@_01NBENCBCI@?$CK@ DB '*', 00H			; `string'
CONST	ENDS
;	COMDAT ??_C@_1BK@HMBBPDPB@?$AAw?$AAi?$AAd?$AAt?$AAh?$AA?5?$AA?$DO?$AA?5?$AA0?$AA?4?$AA0?$AAf@
CONST	SEGMENT
??_C@_1BK@HMBBPDPB@?$AAw?$AAi?$AAd?$AAt?$AAh?$AA?5?$AA?$DO?$AA?5?$AA0?$AA?4?$AA0?$AAf@ DB 'w'
	DB	00H, 'i', 00H, 'd', 00H, 't', 00H, 'h', 00H, ' ', 00H, '>', 00H
	DB	' ', 00H, '0', 00H, '.', 00H, '0', 00H, 'f', 00H, 00H, 00H ; `string'
CONST	ENDS
;	COMDAT ?__LINE__Var@?0??TabItemBackground@ImGui@@YAXPAUImDrawList@@ABUImRect@@HI@Z@4JA
_DATA	SEGMENT
?__LINE__Var@?0??TabItemBackground@ImGui@@YAXPAUImDrawList@@ABUImRect@@HI@Z@4JA DD 01bddH ; `ImGui::TabItemBackground'::`1'::__LINE__Var
_DATA	ENDS
;	COMDAT ??_C@_1CI@FDDNDGMG@?$AAt?$AAa?$AAb?$AA_?$AAb?$AAa?$AAr?$AA?9?$AA?$DO?$AAW?$AAa?$AAn?$AAt?$AAL?$AAa@
CONST	SEGMENT
??_C@_1CI@FDDNDGMG@?$AAt?$AAa?$AAb?$AA_?$AAb?$AAa?$AAr?$AA?9?$AA?$DO?$AAW?$AAa?$AAn?$AAt?$AAL?$AAa@ DB 't'
	DB	00H, 'a', 00H, 'b', 00H, '_', 00H, 'b', 00H, 'a', 00H, 'r', 00H
	DB	'-', 00H, '>', 00H, 'W', 00H, 'a', 00H, 'n', 00H, 't', 00H, 'L'
	DB	00H, 'a', 00H, 'y', 00H, 'o', 00H, 'u', 00H, 't', 00H, 00H, 00H ; `string'
CONST	ENDS
;	COMDAT ?__LINE__Var@?0??SetTabItemClosed@ImGui@@YAXPBD@Z@4JA
_DATA	SEGMENT
?__LINE__Var@?0??SetTabItemClosed@ImGui@@YAXPBD@Z@4JA DD 01bc4H ; `ImGui::SetTabItemClosed'::`1'::__LINE__Var
_DATA	ENDS
;	COMDAT ??_C@_04EBNJJJJI@?$CF?4?$CKs@
CONST	SEGMENT
??_C@_04EBNJJJJI@?$CF?4?$CKs@ DB '%.*s', 00H		; `string'
CONST	ENDS
;	COMDAT ??_C@_1DK@HGEILAOB@?$AAt?$AAa?$AAb?$AA_?$AAb?$AAa?$AAr?$AA?9?$AA?$DO?$AAL?$AAa?$AAs?$AAt?$AAT?$AAa@
CONST	SEGMENT
??_C@_1DK@HGEILAOB@?$AAt?$AAa?$AAb?$AA_?$AAb?$AAa?$AAr?$AA?9?$AA?$DO?$AAL?$AAa?$AAs?$AAt?$AAT?$AAa@ DB 't'
	DB	00H, 'a', 00H, 'b', 00H, '_', 00H, 'b', 00H, 'a', 00H, 'r', 00H
	DB	'-', 00H, '>', 00H, 'L', 00H, 'a', 00H, 's', 00H, 't', 00H, 'T'
	DB	00H, 'a', 00H, 'b', 00H, 'I', 00H, 't', 00H, 'e', 00H, 'm', 00H
	DB	'I', 00H, 'd', 00H, 'x', 00H, ' ', 00H, '>', 00H, '=', 00H, ' '
	DB	00H, '0', 00H, 00H, 00H			; `string'
CONST	ENDS
;	COMDAT ??_C@_1JI@HFPIFMIP@?$AAt?$AAa?$AAb?$AA_?$AAb?$AAa?$AAr?$AA?5?$AA?$CB?$AA?$DN?$AA?5?$AA0?$AA?5?$AA?$CG?$AA?$CG@
CONST	SEGMENT
??_C@_1JI@HFPIFMIP@?$AAt?$AAa?$AAb?$AA_?$AAb?$AAa?$AAr?$AA?5?$AA?$CB?$AA?$DN?$AA?5?$AA0?$AA?5?$AA?$CG?$AA?$CG@ DB 't'
	DB	00H, 'a', 00H, 'b', 00H, '_', 00H, 'b', 00H, 'a', 00H, 'r', 00H
	DB	' ', 00H, '!', 00H, '=', 00H, ' ', 00H, '0', 00H, ' ', 00H, '&'
	DB	00H, '&', 00H, ' ', 00H, '"', 00H, 'N', 00H, 'e', 00H, 'e', 00H
	DB	'd', 00H, 's', 00H, ' ', 00H, 't', 00H, 'o', 00H, ' ', 00H, 'b'
	DB	00H, 'e', 00H, ' ', 00H, 'c', 00H, 'a', 00H, 'l', 00H, 'l', 00H
	DB	'e', 00H, 'd', 00H, ' ', 00H, 'b', 00H, 'e', 00H, 't', 00H, 'w'
	DB	00H, 'e', 00H, 'e', 00H, 'n', 00H, ' ', 00H, 'B', 00H, 'e', 00H
	DB	'g', 00H, 'i', 00H, 'n', 00H, 'T', 00H, 'a', 00H, 'b', 00H, 'B'
	DB	00H, 'a', 00H, 'r', 00H, '(', 00H, ')', 00H, ' ', 00H, 'a', 00H
	DB	'n', 00H, 'd', 00H, ' ', 00H, 'E', 00H, 'n', 00H, 'd', 00H, 'T'
	DB	00H, 'a', 00H, 'b', 00H, 'B', 00H, 'a', 00H, 'r', 00H, '(', 00H
	DB	')', 00H, '!', 00H, '"', 00H, 00H, 00H	; `string'
CONST	ENDS
;	COMDAT ??_C@_0DK@EHILAJFJ@Needs?5to?5be?5called?5between?5Begi@
CONST	SEGMENT
??_C@_0DK@EHILAJFJ@Needs?5to?5be?5called?5between?5Begi@ DB 'Needs to be '
	DB	'called between BeginTabBar() and EndTabBar()!', 00H ; `string'
CONST	ENDS
;	COMDAT ?__LINE__Var@?0??EndTabItem@ImGui@@YAXXZ@4JA
_DATA	SEGMENT
?__LINE__Var@?0??EndTabItem@ImGui@@YAXXZ@4JA DD 01ae9H	; `ImGui::EndTabItem'::`1'::__LINE__Var
_DATA	ENDS
;	COMDAT ??_C@_1LA@GNEGANEK@?$AA?$CI?$AAt?$AAa?$AAb?$AA_?$AAb?$AAa?$AAr?$AA?$CJ?$AA?5?$AA?$CG?$AA?$CG?$AA?5?$AA?$CC?$AAB@
CONST	SEGMENT
??_C@_1LA@GNEGANEK@?$AA?$CI?$AAt?$AAa?$AAb?$AA_?$AAb?$AAa?$AAr?$AA?$CJ?$AA?5?$AA?$CG?$AA?$CG?$AA?5?$AA?$CC?$AAB@ DB '('
	DB	00H, 't', 00H, 'a', 00H, 'b', 00H, '_', 00H, 'b', 00H, 'a', 00H
	DB	'r', 00H, ')', 00H, ' ', 00H, '&', 00H, '&', 00H, ' ', 00H, '"'
	DB	00H, 'B', 00H, 'e', 00H, 'g', 00H, 'i', 00H, 'n', 00H, 'T', 00H
	DB	'a', 00H, 'b', 00H, 'I', 00H, 't', 00H, 'e', 00H, 'm', 00H, '('
	DB	00H, ')', 00H, ' ', 00H, 'N', 00H, 'e', 00H, 'e', 00H, 'd', 00H
	DB	's', 00H, ' ', 00H, 't', 00H, 'o', 00H, ' ', 00H, 'b', 00H, 'e'
	DB	00H, ' ', 00H, 'c', 00H, 'a', 00H, 'l', 00H, 'l', 00H, 'e', 00H
	DB	'd', 00H, ' ', 00H, 'b', 00H, 'e', 00H, 't', 00H, 'w', 00H, 'e'
	DB	00H, 'e', 00H, 'n', 00H, ' ', 00H, 'B', 00H, 'e', 00H, 'g', 00H
	DB	'i', 00H, 'n', 00H, 'T', 00H, 'a', 00H, 'b', 00H, 'B', 00H, 'a'
	DB	00H, 'r', 00H, '(', 00H, ')', 00H, ' ', 00H, 'a', 00H, 'n', 00H
	DB	'd', 00H, ' ', 00H, 'E', 00H, 'n', 00H, 'd', 00H, 'T', 00H, 'a'
	DB	00H, 'b', 00H, 'B', 00H, 'a', 00H, 'r', 00H, '(', 00H, ')', 00H
	DB	'!', 00H, '"', 00H, 00H, 00H			; `string'
CONST	ENDS
;	COMDAT ??_C@_0EJ@BGGEHPHF@BeginTabItem?$CI?$CJ?5Needs?5to?5be?5call@
CONST	SEGMENT
??_C@_0EJ@BGGEHPHF@BeginTabItem?$CI?$CJ?5Needs?5to?5be?5call@ DB 'BeginTa'
	DB	'bItem() Needs to be called between BeginTabBar() and EndTabBa'
	DB	'r()!', 00H					; `string'
CONST	ENDS
;	COMDAT ?__LINE__Var@?0??BeginTabItem@ImGui@@YA_NPBDPA_NH@Z@4JA
_DATA	SEGMENT
?__LINE__Var@?0??BeginTabItem@ImGui@@YA_NPBDPA_NH@Z@4JA DD 01ad3H ; `ImGui::BeginTabItem'::`1'::__LINE__Var
_DATA	ENDS
;	COMDAT ??_C@_03CPFCAGPK@?$CD?$CDv@
CONST	SEGMENT
??_C@_03CPFCAGPK@?$CD?$CDv@ DB '##v', 00H		; `string'
CONST	ENDS
;	COMDAT ??_C@_03BHPCMDPH@?$CD?$CD?$DO@
CONST	SEGMENT
??_C@_03BHPCMDPH@?$CD?$CD?$DO@ DB '##>', 00H		; `string'
CONST	ENDS
;	COMDAT ??_C@_03CFMEKBHF@?$CD?$CD?$DM@
CONST	SEGMENT
??_C@_03CFMEKBHF@?$CD?$CD?$DM@ DB '##<', 00H		; `string'
CONST	ENDS
;	COMDAT ??_C@_1EE@NGAACFPK@?$AAt?$AAa?$AAb?$AA_?$AAb?$AAa?$AAr?$AA?9?$AA?$DO?$AAR?$AAe?$AAo?$AAr?$AAd?$AAe@
CONST	SEGMENT
??_C@_1EE@NGAACFPK@?$AAt?$AAa?$AAb?$AA_?$AAb?$AAa?$AAr?$AA?9?$AA?$DO?$AAR?$AAe?$AAo?$AAr?$AAd?$AAe@ DB 't'
	DB	00H, 'a', 00H, 'b', 00H, '_', 00H, 'b', 00H, 'a', 00H, 'r', 00H
	DB	'-', 00H, '>', 00H, 'R', 00H, 'e', 00H, 'o', 00H, 'r', 00H, 'd'
	DB	00H, 'e', 00H, 'r', 00H, 'R', 00H, 'e', 00H, 'q', 00H, 'u', 00H
	DB	'e', 00H, 's', 00H, 't', 00H, 'T', 00H, 'a', 00H, 'b', 00H, 'I'
	DB	00H, 'd', 00H, ' ', 00H, '=', 00H, '=', 00H, ' ', 00H, '0', 00H
	DB	00H, 00H					; `string'
CONST	ENDS
;	COMDAT ??_C@_1CO@FGAFEEBL@?$AAd?$AAi?$AAr?$AA?5?$AA?$DN?$AA?$DN?$AA?5?$AA?9?$AA1?$AA?5?$AA?$HM?$AA?$HM?$AA?5?$AAd?$AAi@
CONST	SEGMENT
??_C@_1CO@FGAFEEBL@?$AAd?$AAi?$AAr?$AA?5?$AA?$DN?$AA?$DN?$AA?5?$AA?9?$AA1?$AA?5?$AA?$HM?$AA?$HM?$AA?5?$AAd?$AAi@ DB 'd'
	DB	00H, 'i', 00H, 'r', 00H, ' ', 00H, '=', 00H, '=', 00H, ' ', 00H
	DB	'-', 00H, '1', 00H, ' ', 00H, '|', 00H, '|', 00H, ' ', 00H, 'd'
	DB	00H, 'i', 00H, 'r', 00H, ' ', 00H, '=', 00H, '=', 00H, ' ', 00H
	DB	'+', 00H, '1', 00H, 00H, 00H			; `string'
CONST	ENDS
;	COMDAT ?__LINE__Var@?0??TabBarQueueChangeTabOrder@ImGui@@YAXPAUImGuiTabBar@@PBUImGuiTabItem@@H@Z@4JA
_DATA	SEGMENT
?__LINE__Var@?0??TabBarQueueChangeTabOrder@ImGui@@YAXPAUImGuiTabBar@@PBUImGuiTabItem@@H@Z@4JA DD 01a63H ; `ImGui::TabBarQueueChangeTabOrder'::`1'::__LINE__Var
_DATA	ENDS
;	COMDAT ??_C@_1CE@HKABMAAD@?$AAt?$AAa?$AAb?$AA?9?$AA?$DO?$AAW?$AAi?$AAd?$AAt?$AAh?$AA?5?$AA?$DO?$AA?5?$AA0?$AA?4@
CONST	SEGMENT
??_C@_1CE@HKABMAAD@?$AAt?$AAa?$AAb?$AA?9?$AA?$DO?$AAW?$AAi?$AAd?$AAt?$AAh?$AA?5?$AA?$DO?$AA?5?$AA0?$AA?4@ DB 't'
	DB	00H, 'a', 00H, 'b', 00H, '-', 00H, '>', 00H, 'W', 00H, 'i', 00H
	DB	'd', 00H, 't', 00H, 'h', 00H, ' ', 00H, '>', 00H, ' ', 00H, '0'
	DB	00H, '.', 00H, '0', 00H, 'f', 00H, 00H, 00H	; `string'
CONST	ENDS
;	COMDAT ??_C@_1GG@ODBMJKON@?$AAt?$AAa?$AAb?$AA?9?$AA?$DO?$AAL?$AAa?$AAs?$AAt?$AAF?$AAr?$AAa?$AAm?$AAe?$AAV@
CONST	SEGMENT
??_C@_1GG@ODBMJKON@?$AAt?$AAa?$AAb?$AA?9?$AA?$DO?$AAL?$AAa?$AAs?$AAt?$AAF?$AAr?$AAa?$AAm?$AAe?$AAV@ DB 't'
	DB	00H, 'a', 00H, 'b', 00H, '-', 00H, '>', 00H, 'L', 00H, 'a', 00H
	DB	's', 00H, 't', 00H, 'F', 00H, 'r', 00H, 'a', 00H, 'm', 00H, 'e'
	DB	00H, 'V', 00H, 'i', 00H, 's', 00H, 'i', 00H, 'b', 00H, 'l', 00H
	DB	'e', 00H, ' ', 00H, '>', 00H, '=', 00H, ' ', 00H, 't', 00H, 'a'
	DB	00H, 'b', 00H, '_', 00H, 'b', 00H, 'a', 00H, 'r', 00H, '-', 00H
	DB	'>', 00H, 'P', 00H, 'r', 00H, 'e', 00H, 'v', 00H, 'F', 00H, 'r'
	DB	00H, 'a', 00H, 'm', 00H, 'e', 00H, 'V', 00H, 'i', 00H, 's', 00H
	DB	'i', 00H, 'b', 00H, 'l', 00H, 'e', 00H, 00H, 00H ; `string'
CONST	ENDS
;	COMDAT ?__LINE__Var@?0??TabBarLayout@ImGui@@YAXPAUImGuiTabBar@@@Z@4JA
_DATA	SEGMENT
?__LINE__Var@?0??TabBarLayout@ImGui@@YAXPAUImGuiTabBar@@@Z@4JA DD 01966H ; `ImGui::TabBarLayout'::`1'::__LINE__Var
_DATA	ENDS
;	COMDAT ??_C@_1HE@HMPOLDED@?$AA?$CI?$AAt?$AAa?$AAb?$AA_?$AAb?$AAa?$AAr?$AA?5?$AA?$CB?$AA?$DN?$AA?5?$AA0?$AA?$CJ?$AA?5@
CONST	SEGMENT
??_C@_1HE@HMPOLDED@?$AA?$CI?$AAt?$AAa?$AAb?$AA_?$AAb?$AAa?$AAr?$AA?5?$AA?$CB?$AA?$DN?$AA?5?$AA0?$AA?$CJ?$AA?5@ DB '('
	DB	00H, 't', 00H, 'a', 00H, 'b', 00H, '_', 00H, 'b', 00H, 'a', 00H
	DB	'r', 00H, ' ', 00H, '!', 00H, '=', 00H, ' ', 00H, '0', 00H, ')'
	DB	00H, ' ', 00H, '&', 00H, '&', 00H, ' ', 00H, '"', 00H, 'M', 00H
	DB	'i', 00H, 's', 00H, 'm', 00H, 'a', 00H, 't', 00H, 'c', 00H, 'h'
	DB	00H, 'e', 00H, 'd', 00H, ' ', 00H, 'B', 00H, 'e', 00H, 'g', 00H
	DB	'i', 00H, 'n', 00H, 'T', 00H, 'a', 00H, 'b', 00H, 'B', 00H, 'a'
	DB	00H, 'r', 00H, '(', 00H, ')', 00H, '/', 00H, 'E', 00H, 'n', 00H
	DB	'd', 00H, 'T', 00H, 'a', 00H, 'b', 00H, 'B', 00H, 'a', 00H, 'r'
	DB	00H, '(', 00H, ')', 00H, '!', 00H, '"', 00H, 00H, 00H ; `string'
CONST	ENDS
;	COMDAT ??_C@_0CG@DPIPLNLI@Mismatched?5BeginTabBar?$CI?$CJ?1EndTab@
CONST	SEGMENT
??_C@_0CG@DPIPLNLI@Mismatched?5BeginTabBar?$CI?$CJ?1EndTab@ DB 'Mismatche'
	DB	'd BeginTabBar()/EndTabBar()!', 00H		; `string'
CONST	ENDS
;	COMDAT ?__LINE__Var@?0??EndTabBar@ImGui@@YAXXZ@4JA
_DATA	SEGMENT
?__LINE__Var@?0??EndTabBar@ImGui@@YAXXZ@4JA DD 01946H	; `ImGui::EndTabBar'::`1'::__LINE__Var
_DATA	ENDS
;	COMDAT ?__LINE__Var@?0??BeginTabBarEx@ImGui@@YA_NPAUImGuiTabBar@@ABUImRect@@H@Z@4JA
_DATA	SEGMENT
?__LINE__Var@?0??BeginTabBarEx@ImGui@@YA_NPAUImGuiTabBar@@ABUImRect@@H@Z@4JA DD 01912H ; `ImGui::BeginTabBarEx'::`1'::__LINE__Var
_DATA	ENDS
;	COMDAT ??_C@_0O@BKOLOJFE@?$CD?$CDMainMenuBar@
CONST	SEGMENT
??_C@_0O@BKOLOJFE@?$CD?$CDMainMenuBar@ DB '##MainMenuBar', 00H ; `string'
CONST	ENDS
;	COMDAT ??_C@_1DI@HJHPMKIH@?$AAw?$AAi?$AAn?$AAd?$AAo?$AAw?$AA?9?$AA?$DO?$AAD?$AAC?$AA?4?$AAM?$AAe?$AAn?$AAu@
CONST	SEGMENT
??_C@_1DI@HJHPMKIH@?$AAw?$AAi?$AAn?$AAd?$AAo?$AAw?$AA?9?$AA?$DO?$AAD?$AAC?$AA?4?$AAM?$AAe?$AAn?$AAu@ DB 'w'
	DB	00H, 'i', 00H, 'n', 00H, 'd', 00H, 'o', 00H, 'w', 00H, '-', 00H
	DB	'>', 00H, 'D', 00H, 'C', 00H, '.', 00H, 'M', 00H, 'e', 00H, 'n'
	DB	00H, 'u', 00H, 'B', 00H, 'a', 00H, 'r', 00H, 'A', 00H, 'p', 00H
	DB	'p', 00H, 'e', 00H, 'n', 00H, 'd', 00H, 'i', 00H, 'n', 00H, 'g'
	DB	00H, 00H, 00H				; `string'
CONST	ENDS
;	COMDAT ??_C@_1FC@MMAFNJJP@?$AAw?$AAi?$AAn?$AAd?$AAo?$AAw?$AA?9?$AA?$DO?$AAF?$AAl?$AAa?$AAg?$AAs?$AA?5?$AA?$CG@
CONST	SEGMENT
??_C@_1FC@MMAFNJJP@?$AAw?$AAi?$AAn?$AAd?$AAo?$AAw?$AA?9?$AA?$DO?$AAF?$AAl?$AAa?$AAg?$AAs?$AA?5?$AA?$CG@ DB 'w'
	DB	00H, 'i', 00H, 'n', 00H, 'd', 00H, 'o', 00H, 'w', 00H, '-', 00H
	DB	'>', 00H, 'F', 00H, 'l', 00H, 'a', 00H, 'g', 00H, 's', 00H, ' '
	DB	00H, '&', 00H, ' ', 00H, 'I', 00H, 'm', 00H, 'G', 00H, 'u', 00H
	DB	'i', 00H, 'W', 00H, 'i', 00H, 'n', 00H, 'd', 00H, 'o', 00H, 'w'
	DB	00H, 'F', 00H, 'l', 00H, 'a', 00H, 'g', 00H, 's', 00H, '_', 00H
	DB	'M', 00H, 'e', 00H, 'n', 00H, 'u', 00H, 'B', 00H, 'a', 00H, 'r'
	DB	00H, 00H, 00H				; `string'
CONST	ENDS
;	COMDAT ??_C@_1GC@NKCHGHAD@?$AAw?$AAi?$AAn?$AAd?$AAo?$AAw?$AA?9?$AA?$DO?$AAD?$AAC?$AA?4?$AAN?$AAa?$AAv?$AAL@
CONST	SEGMENT
??_C@_1GC@NKCHGHAD@?$AAw?$AAi?$AAn?$AAd?$AAo?$AAw?$AA?9?$AA?$DO?$AAD?$AAC?$AA?4?$AAN?$AAa?$AAv?$AAL@ DB 'w'
	DB	00H, 'i', 00H, 'n', 00H, 'd', 00H, 'o', 00H, 'w', 00H, '-', 00H
	DB	'>', 00H, 'D', 00H, 'C', 00H, '.', 00H, 'N', 00H, 'a', 00H, 'v'
	DB	00H, 'L', 00H, 'a', 00H, 'y', 00H, 'e', 00H, 'r', 00H, 'A', 00H
	DB	'c', 00H, 't', 00H, 'i', 00H, 'v', 00H, 'e', 00H, 'M', 00H, 'a'
	DB	00H, 's', 00H, 'k', 00H, 'N', 00H, 'e', 00H, 'x', 00H, 't', 00H
	DB	' ', 00H, '&', 00H, ' ', 00H, '(', 00H, '1', 00H, ' ', 00H, '<'
	DB	00H, '<', 00H, ' ', 00H, 'l', 00H, 'a', 00H, 'y', 00H, 'e', 00H
	DB	'r', 00H, ')', 00H, 00H, 00H			; `string'
CONST	ENDS
;	COMDAT ?__LINE__Var@?0??EndMenuBar@ImGui@@YAXXZ@4JA
_DATA	SEGMENT
?__LINE__Var@?0??EndMenuBar@ImGui@@YAXXZ@4JA DD 0179cH	; `ImGui::EndMenuBar'::`1'::__LINE__Var
_DATA	ENDS
;	COMDAT ??_C@_09FHPMMDGK@?$CD?$CDmenubar@
CONST	SEGMENT
??_C@_09FHPMMDGK@?$CD?$CDmenubar@ DB '##menubar', 00H	; `string'
CONST	ENDS
;	COMDAT ??_C@_1DK@MIADNLCN@?$AA?$CB?$AAw?$AAi?$AAn?$AAd?$AAo?$AAw?$AA?9?$AA?$DO?$AAD?$AAC?$AA?4?$AAM?$AAe?$AAn@
CONST	SEGMENT
??_C@_1DK@MIADNLCN@?$AA?$CB?$AAw?$AAi?$AAn?$AAd?$AAo?$AAw?$AA?9?$AA?$DO?$AAD?$AAC?$AA?4?$AAM?$AAe?$AAn@ DB '!'
	DB	00H, 'w', 00H, 'i', 00H, 'n', 00H, 'd', 00H, 'o', 00H, 'w', 00H
	DB	'-', 00H, '>', 00H, 'D', 00H, 'C', 00H, '.', 00H, 'M', 00H, 'e'
	DB	00H, 'n', 00H, 'u', 00H, 'B', 00H, 'a', 00H, 'r', 00H, 'A', 00H
	DB	'p', 00H, 'p', 00H, 'e', 00H, 'n', 00H, 'd', 00H, 'i', 00H, 'n'
	DB	00H, 'g', 00H, 00H, 00H			; `string'
CONST	ENDS
;	COMDAT ?__LINE__Var@?0??BeginMenuBar@ImGui@@YA_NXZ@4JA
_DATA	SEGMENT
?__LINE__Var@?0??BeginMenuBar@ImGui@@YA_NXZ@4JA DD 01780H ; `ImGui::BeginMenuBar'::`1'::__LINE__Var
_DATA	ENDS
;	COMDAT ??_C@_1FK@BNPKANMO@?$AAc?$AAo?$AAu?$AAn?$AAt?$AA?5?$AA?$DN?$AA?$DN?$AA?5?$AA?$CI?$AA?$CI?$AAi?$AAn?$AAt?$AA?$CJ@
CONST	SEGMENT
??_C@_1FK@BNPKANMO@?$AAc?$AAo?$AAu?$AAn?$AAt?$AA?5?$AA?$DN?$AA?$DN?$AA?5?$AA?$CI?$AA?$CI?$AAi?$AAn?$AAt?$AA?$CJ@ DB 'c'
	DB	00H, 'o', 00H, 'u', 00H, 'n', 00H, 't', 00H, ' ', 00H, '=', 00H
	DB	'=', 00H, ' ', 00H, '(', 00H, '(', 00H, 'i', 00H, 'n', 00H, 't'
	DB	00H, ')', 00H, '(', 00H, 's', 00H, 'i', 00H, 'z', 00H, 'e', 00H
	DB	'o', 00H, 'f', 00H, '(', 00H, 'P', 00H, 'o', 00H, 's', 00H, ')'
	DB	00H, ' ', 00H, '/', 00H, ' ', 00H, 's', 00H, 'i', 00H, 'z', 00H
	DB	'e', 00H, 'o', 00H, 'f', 00H, '(', 00H, '*', 00H, 'P', 00H, 'o'
	DB	00H, 's', 00H, ')', 00H, ')', 00H, ')', 00H, 00H, 00H ; `string'
CONST	ENDS
;	COMDAT ?__LINE__Var@?0??Update@ImGuiMenuColumns@@QAEXHM_N@Z@4JA
_DATA	SEGMENT
?__LINE__Var@?0??Update@ImGuiMenuColumns@@QAEXHM_N@Z@4JA DD 0175aH ; `ImGuiMenuColumns::Update'::`1'::__LINE__Var
_DATA	ENDS
;	COMDAT ??_C@_08KELGKKHF@?$CFs?3?5?$CF?43f@
CONST	SEGMENT
??_C@_08KELGKKHF@?$CFs?3?5?$CF?43f@ DB '%s: %.3f', 00H	; `string'
CONST	ENDS
;	COMDAT ??_C@_07EKEPIENH@?$CF?$CFs?3?5?$CFs@
CONST	SEGMENT
??_C@_07EKEPIENH@?$CF?$CFs?3?5?$CFs@ DB '%%s: %s', 00H	; `string'
CONST	ENDS
;	COMDAT ??_C@_06GBEGMGE@?$CFs?3?5?$CFd@
CONST	SEGMENT
??_C@_06GBEGMGE@?$CFs?3?5?$CFd@ DB '%s: %d', 00H	; `string'
CONST	ENDS
;	COMDAT ??_C@_06DJHOIPC@?$CFs?3?5?$CFs@
CONST	SEGMENT
??_C@_06DJHOIPC@?$CFs?3?5?$CFs@ DB '%s: %s', 00H	; `string'
CONST	ENDS
;	COMDAT ??_C@_05LAPONLG@false@
CONST	SEGMENT
??_C@_05LAPONLG@false@ DB 'false', 00H			; `string'
CONST	ENDS
;	COMDAT ??_C@_04LOAJBDKD@true@
CONST	SEGMENT
??_C@_04LOAJBDKD@true@ DB 'true', 00H			; `string'
CONST	ENDS
;	COMDAT ??_C@_1EK@JIGPMMPH@?$AAv?$AA1?$AA_?$AAi?$AAd?$AAx?$AA?5?$AA?$DO?$AA?$DN?$AA?5?$AA0?$AA?5?$AA?$CG?$AA?$CG?$AA?5@
CONST	SEGMENT
??_C@_1EK@JIGPMMPH@?$AAv?$AA1?$AA_?$AAi?$AAd?$AAx?$AA?5?$AA?$DO?$AA?$DN?$AA?5?$AA0?$AA?5?$AA?$CG?$AA?$CG?$AA?5@ DB 'v'
	DB	00H, '1', 00H, '_', 00H, 'i', 00H, 'd', 00H, 'x', 00H, ' ', 00H
	DB	'>', 00H, '=', 00H, ' ', 00H, '0', 00H, ' ', 00H, '&', 00H, '&'
	DB	00H, ' ', 00H, 'v', 00H, '1', 00H, '_', 00H, 'i', 00H, 'd', 00H
	DB	'x', 00H, ' ', 00H, '<', 00H, ' ', 00H, 'v', 00H, 'a', 00H, 'l'
	DB	00H, 'u', 00H, 'e', 00H, 's', 00H, '_', 00H, 'c', 00H, 'o', 00H
	DB	'u', 00H, 'n', 00H, 't', 00H, 00H, 00H	; `string'
CONST	ENDS
;	COMDAT ??_C@_09OADNPGHP@?$CFd?3?5?$CF8?44g@
CONST	SEGMENT
??_C@_09OADNPGHP@?$CFd?3?5?$CF8?44g@ DB '%d: %8.4g', 00H ; `string'
CONST	ENDS
;	COMDAT ??_C@_0BE@OBCBLNMM@?$CFd?3?5?$CF8?44g?6?$CFd?3?5?$CF8?44g@
CONST	SEGMENT
??_C@_0BE@OBCBLNMM@?$CFd?3?5?$CF8?44g?6?$CFd?3?5?$CF8?44g@ DB '%d: %8.4g', 0aH
	DB	'%d: %8.4g', 00H				; `string'
CONST	ENDS
;	COMDAT ??_C@_1EG@HCGMCBDC@?$AAv?$AA_?$AAi?$AAd?$AAx?$AA?5?$AA?$DO?$AA?$DN?$AA?5?$AA0?$AA?5?$AA?$CG?$AA?$CG?$AA?5?$AAv@
CONST	SEGMENT
??_C@_1EG@HCGMCBDC@?$AAv?$AA_?$AAi?$AAd?$AAx?$AA?5?$AA?$DO?$AA?$DN?$AA?5?$AA0?$AA?5?$AA?$CG?$AA?$CG?$AA?5?$AAv@ DB 'v'
	DB	00H, '_', 00H, 'i', 00H, 'd', 00H, 'x', 00H, ' ', 00H, '>', 00H
	DB	'=', 00H, ' ', 00H, '0', 00H, ' ', 00H, '&', 00H, '&', 00H, ' '
	DB	00H, 'v', 00H, '_', 00H, 'i', 00H, 'd', 00H, 'x', 00H, ' ', 00H
	DB	'<', 00H, ' ', 00H, 'v', 00H, 'a', 00H, 'l', 00H, 'u', 00H, 'e'
	DB	00H, 's', 00H, '_', 00H, 'c', 00H, 'o', 00H, 'u', 00H, 'n', 00H
	DB	't', 00H, 00H, 00H				; `string'
CONST	ENDS
;	COMDAT ?__LINE__Var@?0??PlotEx@ImGui@@YAXW4ImGuiPlotType@@PBDP6AMPAXH@Z2HH1MMUImVec2@@@Z@4JA
_DATA	SEGMENT
?__LINE__Var@?0??PlotEx@ImGui@@YAXW4ImGuiPlotType@@PBDP6AMPAXH@Z2HH1MMUImVec2@@@Z@4JA DD 0168aH ; `ImGui::PlotEx'::`1'::__LINE__Var
_DATA	ENDS
;	COMDAT ??_C@_1DC@KOOPJPAL@?$AAw?$AAi?$AAn?$AAd?$AAo?$AAw?$AA?9?$AA?$DO?$AAI?$AAD?$AAS?$AAt?$AAa?$AAc?$AAk@
CONST	SEGMENT
??_C@_1DC@KOOPJPAL@?$AAw?$AAi?$AAn?$AAd?$AAo?$AAw?$AA?9?$AA?$DO?$AAI?$AAD?$AAS?$AAt?$AAa?$AAc?$AAk@ DB 'w'
	DB	00H, 'i', 00H, 'n', 00H, 'd', 00H, 'o', 00H, 'w', 00H, '-', 00H
	DB	'>', 00H, 'I', 00H, 'D', 00H, 'S', 00H, 't', 00H, 'a', 00H, 'c'
	DB	00H, 'k', 00H, '.', 00H, 'S', 00H, 'i', 00H, 'z', 00H, 'e', 00H
	DB	' ', 00H, '>', 00H, ' ', 00H, '1', 00H, 00H, 00H ; `string'
CONST	ENDS
;	COMDAT ?__LINE__Var@?0??TreePop@ImGui@@YAXXZ@4JA
_DATA	SEGMENT
?__LINE__Var@?0??TreePop@ImGui@@YAXXZ@4JA DD 0152aH	; `ImGui::TreePop'::`1'::__LINE__Var
_DATA	ENDS
;	COMDAT ??_C@_09GHACPMKF@?$CDTreePush@
CONST	SEGMENT
??_C@_09GHACPMKF@?$CDTreePush@ DB '#TreePush', 00H	; `string'
CONST	ENDS
;	COMDAT ??_C@_01PPODPGHN@?$DO@
CONST	SEGMENT
??_C@_01PPODPGHN@?$DO@ DB '>', 00H			; `string'
CONST	ENDS
;	COMDAT ??_C@_02IEBMKJDF@?$CD?$CD@
CONST	SEGMENT
??_C@_02IEBMKJDF@?$CD?$CD@ DB '##', 00H			; `string'
CONST	ENDS
;	COMDAT ??_C@_03DFKEEPFP@?6?$CD?$CD@
CONST	SEGMENT
??_C@_03DFKEEPFP@?6?$CD?$CD@ DB 0aH, '##', 00H		; `string'
CONST	ENDS
;	COMDAT ??_C@_09KEDLMDJL@Alpha?5Bar@
CONST	SEGMENT
??_C@_09KEDLMDJL@Alpha?5Bar@ DB 'Alpha Bar', 00H	; `string'
CONST	ENDS
;	COMDAT ??_C@_0O@KNMNNHNH@?$CD?$CDdummypicker@
CONST	SEGMENT
??_C@_0O@KNMNNHNH@?$CD?$CDdummypicker@ DB '##dummypicker', 00H ; `string'
CONST	ENDS
;	COMDAT ??_C@_0N@KFBFGFJL@?$CD?$CDselectable@
CONST	SEGMENT
??_C@_0N@KFBFGFJL@?$CD?$CDselectable@ DB '##selectable', 00H ; `string'
CONST	ENDS
;	COMDAT ??_C@_0BD@MLNOPBDA@0x?$CF02X?$CF02X?$CF02X?$CF02X@
CONST	SEGMENT
??_C@_0BD@MLNOPBDA@0x?$CF02X?$CF02X?$CF02X?$CF02X@ DB '0x%02X%02X%02X%02X'
	DB	00H						; `string'
CONST	ENDS
;	COMDAT ??_C@_0P@GDANBODO@0x?$CF02X?$CF02X?$CF02X@
CONST	SEGMENT
??_C@_0P@GDANBODO@0x?$CF02X?$CF02X?$CF02X@ DB '0x%02X%02X%02X', 00H ; `string'
CONST	ENDS
;	COMDAT ??_C@_0O@EJHNAHBL@?$CI?$CFd?0?$CFd?0?$CFd?0?$CFd?$CJ@
CONST	SEGMENT
??_C@_0O@EJHNAHBL@?$CI?$CFd?0?$CFd?0?$CFd?0?$CFd?$CJ@ DB '(%d,%d,%d,%d)', 00H ; `string'
CONST	ENDS
;	COMDAT ??_C@_0BN@GKCJMPCH@?$CI?$CF?43ff?0?5?$CF?43ff?0?5?$CF?43ff?0?5?$CF?43ff?$CJ@
CONST	SEGMENT
??_C@_0BN@GKCJMPCH@?$CI?$CF?43ff?0?5?$CF?43ff?0?5?$CF?43ff?0?5?$CF?43ff?$CJ@ DB '('
	DB	'%.3ff, %.3ff, %.3ff, %.3ff)', 00H		; `string'
CONST	ENDS
;	COMDAT ??_C@_04OPMHGHMB@Copy@
CONST	SEGMENT
??_C@_04OPMHGHMB@Copy@ DB 'Copy', 00H			; `string'
CONST	ENDS
;	COMDAT ??_C@_09NMCCFHEI@Copy?5as?4?4@
CONST	SEGMENT
??_C@_09NMCCFHEI@Copy?5as?4?4@ DB 'Copy as..', 00H	; `string'
CONST	ENDS
;	COMDAT ??_C@_0L@MDNPBJBM@0?400?4?41?400@
CONST	SEGMENT
??_C@_0L@MDNPBJBM@0?400?4?41?400@ DB '0.00..1.00', 00H	; `string'
CONST	ENDS
;	COMDAT ??_C@_06FDBEKFBH@0?4?4255@
CONST	SEGMENT
??_C@_06FDBEKFBH@0?4?4255@ DB '0..255', 00H		; `string'
CONST	ENDS
;	COMDAT ??_C@_03CJOBKKAE@Hex@
CONST	SEGMENT
??_C@_03CJOBKKAE@Hex@ DB 'Hex', 00H			; `string'
CONST	ENDS
;	COMDAT ??_C@_03CAADKAK@HSV@
CONST	SEGMENT
??_C@_03CAADKAK@HSV@ DB 'HSV', 00H			; `string'
CONST	ENDS
;	COMDAT ??_C@_03ICFFBAI@RGB@
CONST	SEGMENT
??_C@_03ICFFBAI@RGB@ DB 'RGB', 00H			; `string'
CONST	ENDS
;	COMDAT ??_C@_0CD@EEDEAEPG@H?3?5?$CF?43f?0?5S?3?5?$CF?43f?0?5V?3?5?$CF?43f?0?5A?3?5?$CF@
CONST	SEGMENT
??_C@_0CD@EEDEAEPG@H?3?5?$CF?43f?0?5S?3?5?$CF?43f?0?5V?3?5?$CF?43f?0?5A?3?5?$CF@ DB 'H'
	DB	': %.3f, S: %.3f, V: %.3f, A: %.3f', 00H	; `string'
CONST	ENDS
;	COMDAT ??_C@_0BK@HKNBICJE@H?3?5?$CF?43f?0?5S?3?5?$CF?43f?0?5V?3?5?$CF?43f@
CONST	SEGMENT
??_C@_0BK@HKNBICJE@H?3?5?$CF?43f?0?5S?3?5?$CF?43f?0?5V?3?5?$CF?43f@ DB 'H'
	DB	': %.3f, S: %.3f, V: %.3f', 00H		; `string'
CONST	ENDS
;	COMDAT ??_C@_0EC@EBPMGCGK@?$CD?$CF02X?$CF02X?$CF02X?$CF02X?6R?3?$CFd?0?5G?3?$CFd?0?5B@
CONST	SEGMENT
??_C@_0EC@EBPMGCGK@?$CD?$CF02X?$CF02X?$CF02X?$CF02X?6R?3?$CFd?0?5G?3?$CFd?0?5B@ DB '#'
	DB	'%02X%02X%02X%02X', 0aH, 'R:%d, G:%d, B:%d, A:%d', 0aH, '(%.3f'
	DB	', %.3f, %.3f, %.3f)', 00H			; `string'
CONST	ENDS
;	COMDAT ??_C@_0DF@FAPNKOHO@?$CD?$CF02X?$CF02X?$CF02X?6R?3?5?$CFd?0?5G?3?5?$CFd?0?5B?3?5@
CONST	SEGMENT
??_C@_0DF@FAPNKOHO@?$CD?$CF02X?$CF02X?$CF02X?6R?3?5?$CFd?0?5G?3?5?$CFd?0?5B?3?5@ DB '#'
	DB	'%02X%02X%02X', 0aH, 'R: %d, G: %d, B: %d', 0aH, '(%.3f, %.3f,'
	DB	' %.3f)', 00H				; `string'
CONST	ENDS
;	COMDAT ??_C@_09JCCDBEFL@?$CD?$CDpreview@
CONST	SEGMENT
??_C@_09JCCDBEFL@?$CD?$CDpreview@ DB '##preview', 00H	; `string'
CONST	ENDS
;	COMDAT ??_C@_1HE@ECJOEGME@?$AAI?$AAm?$AAI?$AAs?$AAP?$AAo?$AAw?$AAe?$AAr?$AAO?$AAf?$AAT?$AAw?$AAo?$AA?$CI@
CONST	SEGMENT
??_C@_1HE@ECJOEGME@?$AAI?$AAm?$AAI?$AAs?$AAP?$AAo?$AAw?$AAe?$AAr?$AAO?$AAf?$AAT?$AAw?$AAo?$AA?$CI@ DB 'I'
	DB	00H, 'm', 00H, 'I', 00H, 's', 00H, 'P', 00H, 'o', 00H, 'w', 00H
	DB	'e', 00H, 'r', 00H, 'O', 00H, 'f', 00H, 'T', 00H, 'w', 00H, 'o'
	DB	00H, '(', 00H, 'f', 00H, 'l', 00H, 'a', 00H, 'g', 00H, 's', 00H
	DB	' ', 00H, '&', 00H, ' ', 00H, 'I', 00H, 'm', 00H, 'G', 00H, 'u'
	DB	00H, 'i', 00H, 'C', 00H, 'o', 00H, 'l', 00H, 'o', 00H, 'r', 00H
	DB	'E', 00H, 'd', 00H, 'i', 00H, 't', 00H, 'F', 00H, 'l', 00H, 'a'
	DB	00H, 'g', 00H, 's', 00H, '_', 00H, '_', 00H, 'D', 00H, 'a', 00H
	DB	't', 00H, 'a', 00H, 'T', 00H, 'y', 00H, 'p', 00H, 'e', 00H, 'M'
	DB	00H, 'a', 00H, 's', 00H, 'k', 00H, ')', 00H, 00H, 00H ; `string'
CONST	ENDS
;	COMDAT ?__LINE__Var@?0??SetColorEditOptions@ImGui@@YAXH@Z@4JA
_DATA	SEGMENT
?__LINE__Var@?0??SetColorEditOptions@ImGui@@YAXH@Z@4JA DD 0133eH ; `ImGui::SetColorEditOptions'::`1'::__LINE__Var
_DATA	ENDS
;	COMDAT ??_C@_05PDOBBJNA@Color@
CONST	SEGMENT
??_C@_05PDOBBJNA@Color@ DB 'Color', 00H			; `string'
CONST	ENDS
;	COMDAT ??_C@_05BOAMFJMJ@?$CD?$CDhex@
CONST	SEGMENT
??_C@_05BOAMFJMJ@?$CD?$CDhex@ DB '##hex', 00H		; `string'
CONST	ENDS
;	COMDAT ??_C@_05JICEKLIF@?$CD?$CDhsv@
CONST	SEGMENT
??_C@_05JICEKLIF@?$CD?$CDhsv@ DB '##hsv', 00H		; `string'
CONST	ENDS
;	COMDAT ??_C@_05JCABMAIH@?$CD?$CDrgb@
CONST	SEGMENT
??_C@_05JCABMAIH@?$CD?$CDrgb@ DB '##rgb', 00H		; `string'
CONST	ENDS
;	COMDAT ??_C@_0L@IGJKOBOK@?$CD?$CDoriginal@
CONST	SEGMENT
??_C@_0L@IGJKOBOK@?$CD?$CDoriginal@ DB '##original', 00H ; `string'
CONST	ENDS
;	COMDAT ??_C@_08DCPBJHAO@Original@
CONST	SEGMENT
??_C@_08DCPBJHAO@Original@ DB 'Original', 00H		; `string'
CONST	ENDS
;	COMDAT ??_C@_09CDENILGE@?$CD?$CDcurrent@
CONST	SEGMENT
??_C@_09CDENILGE@?$CD?$CDcurrent@ DB '##current', 00H	; `string'
CONST	ENDS
;	COMDAT ??_C@_07EDIFFIJI@Current@
CONST	SEGMENT
??_C@_07EDIFFIJI@Current@ DB 'Current', 00H		; `string'
CONST	ENDS
;	COMDAT ??_C@_05IAEKHIAN@alpha@
CONST	SEGMENT
??_C@_05IAEKHIAN@alpha@ DB 'alpha', 00H			; `string'
CONST	ENDS
;	COMDAT ??_C@_03GKJJMKFG@hue@
CONST	SEGMENT
??_C@_03GKJJMKFG@hue@ DB 'hue', 00H			; `string'
CONST	ENDS
;	COMDAT ??_C@_02CPGMCOJE@sv@
CONST	SEGMENT
??_C@_02CPGMCOJE@sv@ DB 'sv', 00H			; `string'
CONST	ENDS
;	COMDAT ??_C@_03PPLPHHG@hsv@
CONST	SEGMENT
??_C@_03PPLPHHG@hsv@ DB 'hsv', 00H			; `string'
CONST	ENDS
;	COMDAT ??_C@_1HA@IEGAFBEB@?$AAI?$AAm?$AAI?$AAs?$AAP?$AAo?$AAw?$AAe?$AAr?$AAO?$AAf?$AAT?$AAw?$AAo?$AA?$CI@
CONST	SEGMENT
??_C@_1HA@IEGAFBEB@?$AAI?$AAm?$AAI?$AAs?$AAP?$AAo?$AAw?$AAe?$AAr?$AAO?$AAf?$AAT?$AAw?$AAo?$AA?$CI@ DB 'I'
	DB	00H, 'm', 00H, 'I', 00H, 's', 00H, 'P', 00H, 'o', 00H, 'w', 00H
	DB	'e', 00H, 'r', 00H, 'O', 00H, 'f', 00H, 'T', 00H, 'w', 00H, 'o'
	DB	00H, '(', 00H, 'f', 00H, 'l', 00H, 'a', 00H, 'g', 00H, 's', 00H
	DB	' ', 00H, '&', 00H, ' ', 00H, 'I', 00H, 'm', 00H, 'G', 00H, 'u'
	DB	00H, 'i', 00H, 'C', 00H, 'o', 00H, 'l', 00H, 'o', 00H, 'r', 00H
	DB	'E', 00H, 'd', 00H, 'i', 00H, 't', 00H, 'F', 00H, 'l', 00H, 'a'
	DB	00H, 'g', 00H, 's', 00H, '_', 00H, '_', 00H, 'P', 00H, 'i', 00H
	DB	'c', 00H, 'k', 00H, 'e', 00H, 'r', 00H, 'M', 00H, 'a', 00H, 's'
	DB	00H, 'k', 00H, ')', 00H, 00H, 00H		; `string'
CONST	ENDS
;	COMDAT ?__LINE__Var@?0??ColorPicker4@ImGui@@YA_NPBDQAMHPBM@Z@4JA
_DATA	SEGMENT
?__LINE__Var@?0??ColorPicker4@ImGui@@YA_NPBDQAMHPBM@Z@4JA DD 01181H ; `ImGui::ColorPicker4'::`1'::__LINE__Var
_DATA	ENDS
;	COMDAT ??_C@_06LAOCEMMP@_COL4F@
CONST	SEGMENT
??_C@_06LAOCEMMP@_COL4F@ DB '_COL4F', 00H		; `string'
CONST	ENDS
;	COMDAT ??_C@_06LFKNFKEK@_COL3F@
CONST	SEGMENT
??_C@_06LFKNFKEK@_COL3F@ DB '_COL3F', 00H		; `string'
CONST	ENDS
;	COMDAT ??_C@_08HHEANBBL@?$CD?$CDpicker@
CONST	SEGMENT
??_C@_08HHEANBBL@?$CD?$CDpicker@ DB '##picker', 00H	; `string'
CONST	ENDS
;	COMDAT ??_C@_06MAKAMBBI@picker@
CONST	SEGMENT
??_C@_06MAKAMBBI@picker@ DB 'picker', 00H		; `string'
CONST	ENDS
;	COMDAT ??_C@_0O@GLNBIEEK@?$CD?$CDColorButton@
CONST	SEGMENT
??_C@_0O@GLNBIEEK@?$CD?$CDColorButton@ DB '##ColorButton', 00H ; `string'
CONST	ENDS
;	COMDAT ??_C@_0N@KODLFHPJ@?$CF02X?$CF02X?$CF02X@
CONST	SEGMENT
??_C@_0N@KODLFHPJ@?$CF02X?$CF02X?$CF02X@ DB '%02X%02X%02X', 00H ; `string'
CONST	ENDS
;	COMDAT ??_C@_0BB@DDMGLOLI@?$CF02X?$CF02X?$CF02X?$CF02X@
CONST	SEGMENT
??_C@_0BB@DDMGLOLI@?$CF02X?$CF02X?$CF02X?$CF02X@ DB '%02X%02X%02X%02X', 00H ; `string'
CONST	ENDS
;	COMDAT ??_C@_06MNCEJPDI@?$CD?$CDText@
CONST	SEGMENT
??_C@_06MNCEJPDI@?$CD?$CDText@ DB '##Text', 00H		; `string'
CONST	ENDS
;	COMDAT ??_C@_0O@MBPBDFLP@?$CD?$CF02X?$CF02X?$CF02X@
CONST	SEGMENT
??_C@_0O@MBPBDFLP@?$CD?$CF02X?$CF02X?$CF02X@ DB '#%02X%02X%02X', 00H ; `string'
CONST	ENDS
;	COMDAT ??_C@_0BC@CKPCOFBK@?$CD?$CF02X?$CF02X?$CF02X?$CF02X@
CONST	SEGMENT
??_C@_0BC@CKPCOFBK@?$CD?$CF02X?$CF02X?$CF02X?$CF02X@ DB '#%02X%02X%02X%02'
	DB	'X', 00H					; `string'
CONST	ENDS
;	COMDAT ??_C@_07JKKCBBMM@context@
CONST	SEGMENT
??_C@_07JKKCBBMM@context@ DB 'context', 00H		; `string'
CONST	ENDS
;	COMDAT ??_C@_05BNGMMMAL@M?3000@
CONST	SEGMENT
??_C@_05BNGMMMAL@M?3000@ DB 'M:000', 00H		; `string'
CONST	ENDS
;	COMDAT ??_C@_07FFNLLALM@M?30?4000@
CONST	SEGMENT
??_C@_07FFNLLALM@M?30?4000@ DB 'M:0.000', 00H		; `string'
CONST	ENDS
;	COMDAT ??_C@_1GO@CDHIBPHM@?$AAI?$AAm?$AAI?$AAs?$AAP?$AAo?$AAw?$AAe?$AAr?$AAO?$AAf?$AAT?$AAw?$AAo?$AA?$CI@
CONST	SEGMENT
??_C@_1GO@CDHIBPHM@?$AAI?$AAm?$AAI?$AAs?$AAP?$AAo?$AAw?$AAe?$AAr?$AAO?$AAf?$AAT?$AAw?$AAo?$AA?$CI@ DB 'I'
	DB	00H, 'm', 00H, 'I', 00H, 's', 00H, 'P', 00H, 'o', 00H, 'w', 00H
	DB	'e', 00H, 'r', 00H, 'O', 00H, 'f', 00H, 'T', 00H, 'w', 00H, 'o'
	DB	00H, '(', 00H, 'f', 00H, 'l', 00H, 'a', 00H, 'g', 00H, 's', 00H
	DB	' ', 00H, '&', 00H, ' ', 00H, 'I', 00H, 'm', 00H, 'G', 00H, 'u'
	DB	00H, 'i', 00H, 'C', 00H, 'o', 00H, 'l', 00H, 'o', 00H, 'r', 00H
	DB	'E', 00H, 'd', 00H, 'i', 00H, 't', 00H, 'F', 00H, 'l', 00H, 'a'
	DB	00H, 'g', 00H, 's', 00H, '_', 00H, '_', 00H, 'I', 00H, 'n', 00H
	DB	'p', 00H, 'u', 00H, 't', 00H, 'M', 00H, 'a', 00H, 's', 00H, 'k'
	DB	00H, ')', 00H, 00H, 00H			; `string'
CONST	ENDS
;	COMDAT ??_C@_1HC@IFIJNDDD@?$AAI?$AAm?$AAI?$AAs?$AAP?$AAo?$AAw?$AAe?$AAr?$AAO?$AAf?$AAT?$AAw?$AAo?$AA?$CI@
CONST	SEGMENT
??_C@_1HC@IFIJNDDD@?$AAI?$AAm?$AAI?$AAs?$AAP?$AAo?$AAw?$AAe?$AAr?$AAO?$AAf?$AAT?$AAw?$AAo?$AA?$CI@ DB 'I'
	DB	00H, 'm', 00H, 'I', 00H, 's', 00H, 'P', 00H, 'o', 00H, 'w', 00H
	DB	'e', 00H, 'r', 00H, 'O', 00H, 'f', 00H, 'T', 00H, 'w', 00H, 'o'
	DB	00H, '(', 00H, 'f', 00H, 'l', 00H, 'a', 00H, 'g', 00H, 's', 00H
	DB	' ', 00H, '&', 00H, ' ', 00H, 'I', 00H, 'm', 00H, 'G', 00H, 'u'
	DB	00H, 'i', 00H, 'C', 00H, 'o', 00H, 'l', 00H, 'o', 00H, 'r', 00H
	DB	'E', 00H, 'd', 00H, 'i', 00H, 't', 00H, 'F', 00H, 'l', 00H, 'a'
	DB	00H, 'g', 00H, 's', 00H, '_', 00H, '_', 00H, 'D', 00H, 'i', 00H
	DB	's', 00H, 'p', 00H, 'l', 00H, 'a', 00H, 'y', 00H, 'M', 00H, 'a'
	DB	00H, 's', 00H, 'k', 00H, ')', 00H, 00H, 00H	; `string'
CONST	ENDS
;	COMDAT ?__LINE__Var@?0??ColorEdit4@ImGui@@YA_NPBDQAMH@Z@4JA
_DATA	SEGMENT
?__LINE__Var@?0??ColorEdit4@ImGui@@YA_NPBDQAMH@Z@4JA DD 01055H ; `ImGui::ColorEdit4'::`1'::__LINE__Var
_DATA	ENDS
;	COMDAT ??_C@_1EE@MOOHJKEO@?$AAa?$AAp?$AAp?$AAl?$AAy?$AA_?$AAn?$AAe?$AAw?$AA_?$AAt?$AAe?$AAx?$AAt?$AA_@
CONST	SEGMENT
??_C@_1EE@MOOHJKEO@?$AAa?$AAp?$AAp?$AAl?$AAy?$AA_?$AAn?$AAe?$AAw?$AA_?$AAt?$AAe?$AAx?$AAt?$AA_@ DB 'a'
	DB	00H, 'p', 00H, 'p', 00H, 'l', 00H, 'y', 00H, '_', 00H, 'n', 00H
	DB	'e', 00H, 'w', 00H, '_', 00H, 't', 00H, 'e', 00H, 'x', 00H, 't'
	DB	00H, '_', 00H, 'l', 00H, 'e', 00H, 'n', 00H, 'g', 00H, 't', 00H
	DB	'h', 00H, ' ', 00H, '<', 00H, '=', 00H, ' ', 00H, 'b', 00H, 'u'
	DB	00H, 'f', 00H, '_', 00H, 's', 00H, 'i', 00H, 'z', 00H, 'e', 00H
	DB	00H, 00H					; `string'
CONST	ENDS
;	COMDAT ??_C@_1DG@CHDFECEK@?$AAa?$AAp?$AAp?$AAl?$AAy?$AA_?$AAn?$AAe?$AAw?$AA_?$AAt?$AAe?$AAx?$AAt?$AA_@
CONST	SEGMENT
??_C@_1DG@CHDFECEK@?$AAa?$AAp?$AAp?$AAl?$AAy?$AA_?$AAn?$AAe?$AAw?$AA_?$AAt?$AAe?$AAx?$AAt?$AA_@ DB 'a'
	DB	00H, 'p', 00H, 'p', 00H, 'l', 00H, 'y', 00H, '_', 00H, 'n', 00H
	DB	'e', 00H, 'w', 00H, '_', 00H, 't', 00H, 'e', 00H, 'x', 00H, 't'
	DB	00H, '_', 00H, 'l', 00H, 'e', 00H, 'n', 00H, 'g', 00H, 't', 00H
	DB	'h', 00H, ' ', 00H, '>', 00H, '=', 00H, ' ', 00H, '0', 00H, 00H
	DB	00H						; `string'
CONST	ENDS
;	COMDAT ??_C@_1HG@EHLBBEIB@?$AAc?$AAa?$AAl?$AAl?$AAb?$AAa?$AAc?$AAk?$AA_?$AAd?$AAa?$AAt?$AAa?$AA?4?$AAB@
CONST	SEGMENT
??_C@_1HG@EHLBBEIB@?$AAc?$AAa?$AAl?$AAl?$AAb?$AAa?$AAc?$AAk?$AA_?$AAd?$AAa?$AAt?$AAa?$AA?4?$AAB@ DB 'c'
	DB	00H, 'a', 00H, 'l', 00H, 'l', 00H, 'b', 00H, 'a', 00H, 'c', 00H
	DB	'k', 00H, '_', 00H, 'd', 00H, 'a', 00H, 't', 00H, 'a', 00H, '.'
	DB	00H, 'B', 00H, 'u', 00H, 'f', 00H, 'T', 00H, 'e', 00H, 'x', 00H
	DB	't', 00H, 'L', 00H, 'e', 00H, 'n', 00H, ' ', 00H, '=', 00H, '='
	DB	00H, ' ', 00H, '(', 00H, 'i', 00H, 'n', 00H, 't', 00H, ')', 00H
	DB	's', 00H, 't', 00H, 'r', 00H, 'l', 00H, 'e', 00H, 'n', 00H, '('
	DB	00H, 'c', 00H, 'a', 00H, 'l', 00H, 'l', 00H, 'b', 00H, 'a', 00H
	DB	'c', 00H, 'k', 00H, '_', 00H, 'd', 00H, 'a', 00H, 't', 00H, 'a'
	DB	00H, '.', 00H, 'B', 00H, 'u', 00H, 'f', 00H, ')', 00H, 00H, 00H ; `string'
CONST	ENDS
;	COMDAT ??_C@_1DK@HOPDKFNI@?$AAc?$AAa?$AAl?$AAl?$AAb?$AAa?$AAc?$AAk?$AA_?$AAd?$AAa?$AAt?$AAa?$AA?4?$AAF@
CONST	SEGMENT
??_C@_1DK@HOPDKFNI@?$AAc?$AAa?$AAl?$AAl?$AAb?$AAa?$AAc?$AAk?$AA_?$AAd?$AAa?$AAt?$AAa?$AA?4?$AAF@ DB 'c'
	DB	00H, 'a', 00H, 'l', 00H, 'l', 00H, 'b', 00H, 'a', 00H, 'c', 00H
	DB	'k', 00H, '_', 00H, 'd', 00H, 'a', 00H, 't', 00H, 'a', 00H, '.'
	DB	00H, 'F', 00H, 'l', 00H, 'a', 00H, 'g', 00H, 's', 00H, ' ', 00H
	DB	'=', 00H, '=', 00H, ' ', 00H, 'f', 00H, 'l', 00H, 'a', 00H, 'g'
	DB	00H, 's', 00H, 00H, 00H			; `string'
CONST	ENDS
;	COMDAT ??_C@_1FK@GDPCIOA@?$AAc?$AAa?$AAl?$AAl?$AAb?$AAa?$AAc?$AAk?$AA_?$AAd?$AAa?$AAt?$AAa?$AA?4?$AAB@
CONST	SEGMENT
??_C@_1FK@GDPCIOA@?$AAc?$AAa?$AAl?$AAl?$AAb?$AAa?$AAc?$AAk?$AA_?$AAd?$AAa?$AAt?$AAa?$AA?4?$AAB@ DB 'c'
	DB	00H, 'a', 00H, 'l', 00H, 'l', 00H, 'b', 00H, 'a', 00H, 'c', 00H
	DB	'k', 00H, '_', 00H, 'd', 00H, 'a', 00H, 't', 00H, 'a', 00H, '.'
	DB	00H, 'B', 00H, 'u', 00H, 'f', 00H, 'S', 00H, 'i', 00H, 'z', 00H
	DB	'e', 00H, ' ', 00H, '=', 00H, '=', 00H, ' ', 00H, 's', 00H, 't'
	DB	00H, 'a', 00H, 't', 00H, 'e', 00H, '-', 00H, '>', 00H, 'B', 00H
	DB	'u', 00H, 'f', 00H, 'C', 00H, 'a', 00H, 'p', 00H, 'a', 00H, 'c'
	DB	00H, 'i', 00H, 't', 00H, 'y', 00H, 'A', 00H, 00H, 00H ; `string'
CONST	ENDS
;	COMDAT ??_C@_1EO@GEAEFBFI@?$AAc?$AAa?$AAl?$AAl?$AAb?$AAa?$AAc?$AAk?$AA_?$AAd?$AAa?$AAt?$AAa?$AA?4?$AAB@
CONST	SEGMENT
??_C@_1EO@GEAEFBFI@?$AAc?$AAa?$AAl?$AAl?$AAb?$AAa?$AAc?$AAk?$AA_?$AAd?$AAa?$AAt?$AAa?$AA?4?$AAB@ DB 'c'
	DB	00H, 'a', 00H, 'l', 00H, 'l', 00H, 'b', 00H, 'a', 00H, 'c', 00H
	DB	'k', 00H, '_', 00H, 'd', 00H, 'a', 00H, 't', 00H, 'a', 00H, '.'
	DB	00H, 'B', 00H, 'u', 00H, 'f', 00H, ' ', 00H, '=', 00H, '=', 00H
	DB	' ', 00H, 's', 00H, 't', 00H, 'a', 00H, 't', 00H, 'e', 00H, '-'
	DB	00H, '>', 00H, 'T', 00H, 'e', 00H, 'x', 00H, 't', 00H, 'A', 00H
	DB	'.', 00H, 'D', 00H, 'a', 00H, 't', 00H, 'a', 00H, 00H, 00H ; `string'
CONST	ENDS
;	COMDAT ??_C@_1BG@FOPGMADN@?$AAs?$AAt?$AAa?$AAt?$AAe?$AA?5?$AA?$CB?$AA?$DN?$AA?5?$AA0@
CONST	SEGMENT
??_C@_1BG@FOPGMADN@?$AAs?$AAt?$AAa?$AAt?$AAe?$AA?5?$AA?$CB?$AA?$DN?$AA?5?$AA0@ DB 's'
	DB	00H, 't', 00H, 'a', 00H, 't', 00H, 'e', 00H, ' ', 00H, '!', 00H
	DB	'=', 00H, ' ', 00H, '0', 00H, 00H, 00H	; `string'
CONST	ENDS
;	COMDAT ??_C@_1NI@EFFIGGBI@?$AAp?$AAa?$AAs?$AAs?$AAw?$AAo?$AAr?$AAd?$AA_?$AAf?$AAo?$AAn?$AAt?$AA?9?$AA?$DO@
CONST	SEGMENT
??_C@_1NI@EFFIGGBI@?$AAp?$AAa?$AAs?$AAs?$AAw?$AAo?$AAr?$AAd?$AA_?$AAf?$AAo?$AAn?$AAt?$AA?9?$AA?$DO@ DB 'p'
	DB	00H, 'a', 00H, 's', 00H, 's', 00H, 'w', 00H, 'o', 00H, 'r', 00H
	DB	'd', 00H, '_', 00H, 'f', 00H, 'o', 00H, 'n', 00H, 't', 00H, '-'
	DB	00H, '>', 00H, 'G', 00H, 'l', 00H, 'y', 00H, 'p', 00H, 'h', 00H
	DB	's', 00H, '.', 00H, 'e', 00H, 'm', 00H, 'p', 00H, 't', 00H, 'y'
	DB	00H, '(', 00H, ')', 00H, ' ', 00H, '&', 00H, '&', 00H, ' ', 00H
	DB	'p', 00H, 'a', 00H, 's', 00H, 's', 00H, 'w', 00H, 'o', 00H, 'r'
	DB	00H, 'd', 00H, '_', 00H, 'f', 00H, 'o', 00H, 'n', 00H, 't', 00H
	DB	'-', 00H, '>', 00H, 'I', 00H, 'n', 00H, 'd', 00H, 'e', 00H, 'x'
	DB	00H, 'A', 00H, 'd', 00H, 'v', 00H, 'a', 00H, 'n', 00H, 'c', 00H
	DB	'e', 00H, 'X', 00H, '.', 00H, 'e', 00H, 'm', 00H, 'p', 00H, 't'
	DB	00H, 'y', 00H, '(', 00H, ')', 00H, ' ', 00H, '&', 00H, '&', 00H
	DB	' ', 00H, 'p', 00H, 'a', 00H, 's', 00H, 's', 00H, 'w', 00H, 'o'
	DB	00H, 'r', 00H, 'd', 00H, '_', 00H, 'f', 00H, 'o', 00H, 'n', 00H
	DB	't', 00H, '-', 00H, '>', 00H, 'I', 00H, 'n', 00H, 'd', 00H, 'e'
	DB	00H, 'x', 00H, 'L', 00H, 'o', 00H, 'o', 00H, 'k', 00H, 'u', 00H
	DB	'p', 00H, '.', 00H, 'e', 00H, 'm', 00H, 'p', 00H, 't', 00H, 'y'
	DB	00H, '(', 00H, ')', 00H, 00H, 00H		; `string'
CONST	ENDS
;	COMDAT ??_C@_1DC@CMKEKNGP@?$AAs?$AAt?$AAa?$AAt?$AAe?$AA?5?$AA?$CG?$AA?$CG?$AA?5?$AAs?$AAt?$AAa?$AAt?$AAe?$AA?9@
CONST	SEGMENT
??_C@_1DC@CMKEKNGP@?$AAs?$AAt?$AAa?$AAt?$AAe?$AA?5?$AA?$CG?$AA?$CG?$AA?5?$AAs?$AAt?$AAa?$AAt?$AAe?$AA?9@ DB 's'
	DB	00H, 't', 00H, 'a', 00H, 't', 00H, 'e', 00H, ' ', 00H, '&', 00H
	DB	'&', 00H, ' ', 00H, 's', 00H, 't', 00H, 'a', 00H, 't', 00H, 'e'
	DB	00H, '-', 00H, '>', 00H, 'I', 00H, 'D', 00H, ' ', 00H, '=', 00H
	DB	'=', 00H, ' ', 00H, 'i', 00H, 'd', 00H, 00H, 00H ; `string'
CONST	ENDS
;	COMDAT ??_C@_1BM@CBGPMFEC@?$AAc?$AAa?$AAl?$AAl?$AAb?$AAa?$AAc?$AAk?$AA?5?$AA?$CB?$AA?$DN?$AA?5?$AA0@
CONST	SEGMENT
??_C@_1BM@CBGPMFEC@?$AAc?$AAa?$AAl?$AAl?$AAb?$AAa?$AAc?$AAk?$AA?5?$AA?$CB?$AA?$DN?$AA?5?$AA0@ DB 'c'
	DB	00H, 'a', 00H, 'l', 00H, 'l', 00H, 'b', 00H, 'a', 00H, 'c', 00H
	DB	'k', 00H, ' ', 00H, '!', 00H, '=', 00H, ' ', 00H, '0', 00H, 00H
	DB	00H						; `string'
CONST	ENDS
;	COMDAT ??_C@_1MG@MGOPIKJM@?$AA?$CB?$AA?$CI?$AA?$CI?$AAf?$AAl?$AAa?$AAg?$AAs?$AA?5?$AA?$CG?$AA?5?$AAI?$AAm?$AAG?$AAu@
CONST	SEGMENT
??_C@_1MG@MGOPIKJM@?$AA?$CB?$AA?$CI?$AA?$CI?$AAf?$AAl?$AAa?$AAg?$AAs?$AA?5?$AA?$CG?$AA?5?$AAI?$AAm?$AAG?$AAu@ DB '!'
	DB	00H, '(', 00H, '(', 00H, 'f', 00H, 'l', 00H, 'a', 00H, 'g', 00H
	DB	's', 00H, ' ', 00H, '&', 00H, ' ', 00H, 'I', 00H, 'm', 00H, 'G'
	DB	00H, 'u', 00H, 'i', 00H, 'I', 00H, 'n', 00H, 'p', 00H, 'u', 00H
	DB	't', 00H, 'T', 00H, 'e', 00H, 'x', 00H, 't', 00H, 'F', 00H, 'l'
	DB	00H, 'a', 00H, 'g', 00H, 's', 00H, '_', 00H, 'C', 00H, 'a', 00H
	DB	'l', 00H, 'l', 00H, 'b', 00H, 'a', 00H, 'c', 00H, 'k', 00H, 'C'
	DB	00H, 'o', 00H, 'm', 00H, 'p', 00H, 'l', 00H, 'e', 00H, 't', 00H
	DB	'i', 00H, 'o', 00H, 'n', 00H, ')', 00H, ' ', 00H, '&', 00H, '&'
	DB	00H, ' ', 00H, '(', 00H, 'f', 00H, 'l', 00H, 'a', 00H, 'g', 00H
	DB	's', 00H, ' ', 00H, '&', 00H, ' ', 00H, 'I', 00H, 'm', 00H, 'G'
	DB	00H, 'u', 00H, 'i', 00H, 'I', 00H, 'n', 00H, 'p', 00H, 'u', 00H
	DB	't', 00H, 'T', 00H, 'e', 00H, 'x', 00H, 't', 00H, 'F', 00H, 'l'
	DB	00H, 'a', 00H, 'g', 00H, 's', 00H, '_', 00H, 'A', 00H, 'l', 00H
	DB	'l', 00H, 'o', 00H, 'w', 00H, 'T', 00H, 'a', 00H, 'b', 00H, 'I'
	DB	00H, 'n', 00H, 'p', 00H, 'u', 00H, 't', 00H, ')', 00H, ')', 00H
	DB	00H, 00H					; `string'
CONST	ENDS
;	COMDAT ??_C@_1LI@BDNHGOFF@?$AA?$CB?$AA?$CI?$AA?$CI?$AAf?$AAl?$AAa?$AAg?$AAs?$AA?5?$AA?$CG?$AA?5?$AAI?$AAm?$AAG?$AAu@
CONST	SEGMENT
??_C@_1LI@BDNHGOFF@?$AA?$CB?$AA?$CI?$AA?$CI?$AAf?$AAl?$AAa?$AAg?$AAs?$AA?5?$AA?$CG?$AA?5?$AAI?$AAm?$AAG?$AAu@ DB '!'
	DB	00H, '(', 00H, '(', 00H, 'f', 00H, 'l', 00H, 'a', 00H, 'g', 00H
	DB	's', 00H, ' ', 00H, '&', 00H, ' ', 00H, 'I', 00H, 'm', 00H, 'G'
	DB	00H, 'u', 00H, 'i', 00H, 'I', 00H, 'n', 00H, 'p', 00H, 'u', 00H
	DB	't', 00H, 'T', 00H, 'e', 00H, 'x', 00H, 't', 00H, 'F', 00H, 'l'
	DB	00H, 'a', 00H, 'g', 00H, 's', 00H, '_', 00H, 'C', 00H, 'a', 00H
	DB	'l', 00H, 'l', 00H, 'b', 00H, 'a', 00H, 'c', 00H, 'k', 00H, 'H'
	DB	00H, 'i', 00H, 's', 00H, 't', 00H, 'o', 00H, 'r', 00H, 'y', 00H
	DB	')', 00H, ' ', 00H, '&', 00H, '&', 00H, ' ', 00H, '(', 00H, 'f'
	DB	00H, 'l', 00H, 'a', 00H, 'g', 00H, 's', 00H, ' ', 00H, '&', 00H
	DB	' ', 00H, 'I', 00H, 'm', 00H, 'G', 00H, 'u', 00H, 'i', 00H, 'I'
	DB	00H, 'n', 00H, 'p', 00H, 'u', 00H, 't', 00H, 'T', 00H, 'e', 00H
	DB	'x', 00H, 't', 00H, 'F', 00H, 'l', 00H, 'a', 00H, 'g', 00H, 's'
	DB	00H, '_', 00H, 'M', 00H, 'u', 00H, 'l', 00H, 't', 00H, 'i', 00H
	DB	'l', 00H, 'i', 00H, 'n', 00H, 'e', 00H, ')', 00H, ')', 00H, 00H
	DB	00H						; `string'
CONST	ENDS
;	COMDAT ?__LINE__Var@?0??InputTextEx@ImGui@@YA_NPBD0PADHABUImVec2@@HP6AHPAUImGuiInputTextCallbackData@@@ZPAX@Z@4JA
_DATA	SEGMENT
?__LINE__Var@?0??InputTextEx@ImGui@@YA_NPBD0PADHABUImVec2@@HP6AHPAUImGuiInputTextCallbackData@@@ZPAX@Z@4JA DD 0d47H ; `ImGui::InputTextEx'::`1'::__LINE__Var
_DATA	ENDS
;	COMDAT ??_C@_1DM@LDGOBGNL@?$AAB?$AAu?$AAf?$AA?5?$AA?$DN?$AA?$DN?$AA?5?$AAe?$AAd?$AAi?$AAt?$AA_?$AAs?$AAt?$AAa@
CONST	SEGMENT
??_C@_1DM@LDGOBGNL@?$AAB?$AAu?$AAf?$AA?5?$AA?$DN?$AA?$DN?$AA?5?$AAe?$AAd?$AAi?$AAt?$AA_?$AAs?$AAt?$AAa@ DB 'B'
	DB	00H, 'u', 00H, 'f', 00H, ' ', 00H, '=', 00H, '=', 00H, ' ', 00H
	DB	'e', 00H, 'd', 00H, 'i', 00H, 't', 00H, '_', 00H, 's', 00H, 't'
	DB	00H, 'a', 00H, 't', 00H, 'e', 00H, '-', 00H, '>', 00H, 'T', 00H
	DB	'e', 00H, 'x', 00H, 't', 00H, 'A', 00H, '.', 00H, 'D', 00H, 'a'
	DB	00H, 't', 00H, 'a', 00H, 00H, 00H		; `string'
CONST	ENDS
;	COMDAT ??_C@_1GI@EFFMAEBL@?$AAe?$AAd?$AAi?$AAt?$AA_?$AAs?$AAt?$AAa?$AAt?$AAe?$AA?9?$AA?$DO?$AAI?$AAD?$AA?5@
CONST	SEGMENT
??_C@_1GI@EFFMAEBL@?$AAe?$AAd?$AAi?$AAt?$AA_?$AAs?$AAt?$AAa?$AAt?$AAe?$AA?9?$AA?$DO?$AAI?$AAD?$AA?5@ DB 'e'
	DB	00H, 'd', 00H, 'i', 00H, 't', 00H, '_', 00H, 's', 00H, 't', 00H
	DB	'a', 00H, 't', 00H, 'e', 00H, '-', 00H, '>', 00H, 'I', 00H, 'D'
	DB	00H, ' ', 00H, '!', 00H, '=', 00H, ' ', 00H, '0', 00H, ' ', 00H
	DB	'&', 00H, '&', 00H, ' ', 00H, 'g', 00H, '.', 00H, 'A', 00H, 'c'
	DB	00H, 't', 00H, 'i', 00H, 'v', 00H, 'e', 00H, 'I', 00H, 'd', 00H
	DB	' ', 00H, '=', 00H, '=', 00H, ' ', 00H, 'e', 00H, 'd', 00H, 'i'
	DB	00H, 't', 00H, '_', 00H, 's', 00H, 't', 00H, 'a', 00H, 't', 00H
	DB	'e', 00H, '-', 00H, '>', 00H, 'I', 00H, 'D', 00H, 00H, 00H ; `string'
CONST	ENDS
;	COMDAT ?__LINE__Var@?0??InsertChars@ImGuiInputTextCallbackData@@QAEXHPBD0@Z@4JA
_DATA	SEGMENT
?__LINE__Var@?0??InsertChars@ImGuiInputTextCallbackData@@QAEXHPBD0@Z@4JA DD 0cd9H ; `ImGuiInputTextCallbackData::InsertChars'::`1'::__LINE__Var
_DATA	ENDS
;	COMDAT ??_C@_1EA@OOMMGKHM@?$AAp?$AAo?$AAs?$AA?5?$AA?$CL?$AA?5?$AAb?$AAy?$AAt?$AAe?$AAs?$AA_?$AAc?$AAo?$AAu@
CONST	SEGMENT
??_C@_1EA@OOMMGKHM@?$AAp?$AAo?$AAs?$AA?5?$AA?$CL?$AA?5?$AAb?$AAy?$AAt?$AAe?$AAs?$AA_?$AAc?$AAo?$AAu@ DB 'p'
	DB	00H, 'o', 00H, 's', 00H, ' ', 00H, '+', 00H, ' ', 00H, 'b', 00H
	DB	'y', 00H, 't', 00H, 'e', 00H, 's', 00H, '_', 00H, 'c', 00H, 'o'
	DB	00H, 'u', 00H, 'n', 00H, 't', 00H, ' ', 00H, '<', 00H, '=', 00H
	DB	' ', 00H, 'B', 00H, 'u', 00H, 'f', 00H, 'T', 00H, 'e', 00H, 'x'
	DB	00H, 't', 00H, 'L', 00H, 'e', 00H, 'n', 00H, 00H, 00H ; `string'
CONST	ENDS
;	COMDAT ?__LINE__Var@?0??DeleteChars@ImGuiInputTextCallbackData@@QAEXHH@Z@4JA
_DATA	SEGMENT
?__LINE__Var@?0??DeleteChars@ImGuiInputTextCallbackData@@QAEXHH@Z@4JA DD 0cc7H ; `ImGuiInputTextCallbackData::DeleteChars'::`1'::__LINE__Var
_DATA	ENDS
;	COMDAT ??_C@_1JE@JEJNCKKO@?$AA?$CI?$AA?$CI?$AAc?$AAh?$AAa?$AAr?$AA?$CK?$AA?$CJ?$AA?$CI?$AAs?$AAt?$AAa?$AAt?$AAe?$AA?9@
CONST	SEGMENT
??_C@_1JE@JEJNCKKO@?$AA?$CI?$AA?$CI?$AAc?$AAh?$AAa?$AAr?$AA?$CK?$AA?$CJ?$AA?$CI?$AAs?$AAt?$AAa?$AAt?$AAe?$AA?9@ DB '('
	DB	00H, '(', 00H, 'c', 00H, 'h', 00H, 'a', 00H, 'r', 00H, '*', 00H
	DB	')', 00H, '(', 00H, 's', 00H, 't', 00H, 'a', 00H, 't', 00H, 'e'
	DB	00H, '-', 00H, '>', 00H, 'u', 00H, 'n', 00H, 'd', 00H, 'o', 00H
	DB	'_', 00H, 'r', 00H, 'e', 00H, 'c', 00H, ' ', 00H, '+', 00H, ' '
	DB	00H, 's', 00H, 't', 00H, 'a', 00H, 't', 00H, 'e', 00H, '-', 00H
	DB	'>', 00H, 'r', 00H, 'e', 00H, 'd', 00H, 'o', 00H, '_', 00H, 'p'
	DB	00H, 'o', 00H, 'i', 00H, 'n', 00H, 't', 00H, ' ', 00H, '+', 00H
	DB	' ', 00H, '1', 00H, ')', 00H, ' ', 00H, '+', 00H, ' ', 00H, 'm'
	DB	00H, 'o', 00H, 'v', 00H, 'e', 00H, '_', 00H, 's', 00H, 'i', 00H
	DB	'z', 00H, 'e', 00H, ')', 00H, ' ', 00H, '<', 00H, '=', 00H, ' '
	DB	00H, 'b', 00H, 'u', 00H, 'f', 00H, '_', 00H, 'e', 00H, 'n', 00H
	DB	'd', 00H, 00H, 00H				; `string'
CONST	ENDS
;	COMDAT ??_C@_1HI@OHEJKGLD@?$AA?$CI?$AA?$CI?$AAc?$AAh?$AAa?$AAr?$AA?$CK?$AA?$CJ?$AA?$CI?$AAs?$AAt?$AAa?$AAt?$AAe?$AA?9@
CONST	SEGMENT
??_C@_1HI@OHEJKGLD@?$AA?$CI?$AA?$CI?$AAc?$AAh?$AAa?$AAr?$AA?$CK?$AA?$CJ?$AA?$CI?$AAs?$AAt?$AAa?$AAt?$AAe?$AA?9@ DB '('
	DB	00H, '(', 00H, 'c', 00H, 'h', 00H, 'a', 00H, 'r', 00H, '*', 00H
	DB	')', 00H, '(', 00H, 's', 00H, 't', 00H, 'a', 00H, 't', 00H, 'e'
	DB	00H, '-', 00H, '>', 00H, 'u', 00H, 'n', 00H, 'd', 00H, 'o', 00H
	DB	'_', 00H, 'r', 00H, 'e', 00H, 'c', 00H, ' ', 00H, '+', 00H, ' '
	DB	00H, 's', 00H, 't', 00H, 'a', 00H, 't', 00H, 'e', 00H, '-', 00H
	DB	'>', 00H, 'r', 00H, 'e', 00H, 'd', 00H, 'o', 00H, '_', 00H, 'p'
	DB	00H, 'o', 00H, 'i', 00H, 'n', 00H, 't', 00H, ')', 00H, ')', 00H
	DB	' ', 00H, '>', 00H, '=', 00H, ' ', 00H, 'b', 00H, 'u', 00H, 'f'
	DB	00H, '_', 00H, 'b', 00H, 'e', 00H, 'g', 00H, 'i', 00H, 'n', 00H
	DB	00H, 00H					; `string'
CONST	ENDS
;	COMDAT ??_C@_1LE@DPFBMFBF@?$AAD?$AA?3?$AA?2?$AAP?$AAr?$AAo?$AAg?$AAr?$AAa?$AAm?$AAm?$AAi?$AAe?$AAr?$AAe@
CONST	SEGMENT
??_C@_1LE@DPFBMFBF@?$AAD?$AA?3?$AA?2?$AAP?$AAr?$AAo?$AAg?$AAr?$AAa?$AAm?$AAm?$AAi?$AAe?$AAr?$AAe@ DB 'D'
	DB	00H, ':', 00H, '\', 00H, 'P', 00H, 'r', 00H, 'o', 00H, 'g', 00H
	DB	'r', 00H, 'a', 00H, 'm', 00H, 'm', 00H, 'i', 00H, 'e', 00H, 'r'
	DB	00H, 'e', 00H, 'n', 00H, '\', 00H, 'c', 00H, 's', 00H, 'g', 00H
	DB	'o', 00H, 'H', 00H, 'a', 00H, 'c', 00H, 'k', 00H, '\', 00H, 'P'
	DB	00H, 'r', 00H, 'o', 00H, 'j', 00H, 'e', 00H, 'k', 00H, 't', 00H
	DB	'W', 00H, 'o', 00H, 'l', 00H, 'f', 00H, '\', 00H, 'I', 00H, 'm'
	DB	00H, 'G', 00H, 'u', 00H, 'i', 00H, ' ', 00H, 'D', 00H, 'i', 00H
	DB	'r', 00H, 'e', 00H, 'c', 00H, 't', 00H, 'X', 00H, ' ', 00H, '9'
	DB	00H, ' ', 00H, 'K', 00H, 'i', 00H, 'e', 00H, 'r', 00H, 'o', 00H
	DB	' ', 00H, 'H', 00H, 'o', 00H, 'o', 00H, 'k', 00H, ' ', 00H, '2'
	DB	00H, '\', 00H, 'i', 00H, 'm', 00H, 'g', 00H, 'u', 00H, 'i', 00H
	DB	'\', 00H, 'i', 00H, 'm', 00H, 's', 00H, 't', 00H, 'b', 00H, '_'
	DB	00H, 't', 00H, 'e', 00H, 'x', 00H, 't', 00H, 'e', 00H, 'd', 00H
	DB	'i', 00H, 't', 00H, '.', 00H, 'h', 00H, 00H, 00H ; `string'
CONST	ENDS
;	COMDAT ?__LINE__Var@?0??stb_textedit_discard_redo@ImStb@@YAXPAUStbUndoState@2@@Z@4JA
_DATA	SEGMENT
?__LINE__Var@?0??stb_textedit_discard_redo@ImStb@@YAXPAUStbUndoState@2@@Z@4JA DD 0461H ; `ImStb::stb_textedit_discard_redo'::`1'::__LINE__Var
_DATA	ENDS
;	COMDAT ??_C@_1DG@IEAPMEMO@?$AAt?$AAe?$AAx?$AAt?$AA_?$AAl?$AAe?$AAn?$AA?5?$AA?$DM?$AA?5?$AAo?$AAb?$AAj?$AA?9@
CONST	SEGMENT
??_C@_1DG@IEAPMEMO@?$AAt?$AAe?$AAx?$AAt?$AA_?$AAl?$AAe?$AAn?$AA?5?$AA?$DM?$AA?5?$AAo?$AAb?$AAj?$AA?9@ DB 't'
	DB	00H, 'e', 00H, 'x', 00H, 't', 00H, '_', 00H, 'l', 00H, 'e', 00H
	DB	'n', 00H, ' ', 00H, '<', 00H, ' ', 00H, 'o', 00H, 'b', 00H, 'j'
	DB	00H, '-', 00H, '>', 00H, 'T', 00H, 'e', 00H, 'x', 00H, 't', 00H
	DB	'W', 00H, '.', 00H, 'S', 00H, 'i', 00H, 'z', 00H, 'e', 00H, 00H
	DB	00H						; `string'
CONST	ENDS
;	COMDAT ??_C@_1CA@MNHDBBDP@?$AAp?$AAo?$AAs?$AA?5?$AA?$DM?$AA?$DN?$AA?5?$AAt?$AAe?$AAx?$AAt?$AA_?$AAl?$AAe?$AAn@
CONST	SEGMENT
??_C@_1CA@MNHDBBDP@?$AAp?$AAo?$AAs?$AA?5?$AA?$DM?$AA?$DN?$AA?5?$AAt?$AAe?$AAx?$AAt?$AA_?$AAl?$AAe?$AAn@ DB 'p'
	DB	00H, 'o', 00H, 's', 00H, ' ', 00H, '<', 00H, '=', 00H, ' ', 00H
	DB	't', 00H, 'e', 00H, 'x', 00H, 't', 00H, '_', 00H, 'l', 00H, 'e'
	DB	00H, 'n', 00H, 00H, 00H			; `string'
CONST	ENDS
;	COMDAT ?__LINE__Var@?0??STB_TEXTEDIT_INSERTCHARS@ImStb@@YA_NPAUImGuiInputTextState@@HPBGH@Z@4JA
_DATA	SEGMENT
?__LINE__Var@?0??STB_TEXTEDIT_INSERTCHARS@ImStb@@YA_NPAUImGuiInputTextState@@HPBGH@Z@4JA DD 0c83H ; `ImStb::STB_TEXTEDIT_INSERTCHARS'::`1'::__LINE__Var
_DATA	ENDS
_DATA	SEGMENT
?STB_TEXTEDIT_NEWLINE@ImStb@@3GA DW 0aH			; ImStb::STB_TEXTEDIT_NEWLINE
	ORG $+2
?ids@?BL@??ColorEdit4@ImGui@@YA_NPBDQAMH@Z@4PAPBDA DD FLAT:??_C@_03CEFFAPNG@?$CD?$CDX@ ; `ImGui::ColorEdit4'::`27'::ids
	DD	FLAT:??_C@_03DNEODOJH@?$CD?$CDY@
	DD	FLAT:??_C@_03BGGDGNFE@?$CD?$CDZ@
	DD	FLAT:??_C@_03KDMNBDBJ@?$CD?$CDW@
?fmt_table_int@?BL@??ColorEdit4@ImGui@@YA_NPBDQAMH@Z@4PAY03PBDA DD FLAT:??_C@_03GOOLIKIF@?$CF3d@ ; `ImGui::ColorEdit4'::`27'::fmt_table_int
	DD	FLAT:??_C@_03GOOLIKIF@?$CF3d@
	DD	FLAT:??_C@_03GOOLIKIF@?$CF3d@
	DD	FLAT:??_C@_03GOOLIKIF@?$CF3d@
	DD	FLAT:??_C@_05FELKPNOB@R?3?$CF3d@
	DD	FLAT:??_C@_05HKBGOMJ@G?3?$CF3d@
	DD	FLAT:??_C@_05FHGMPPHK@B?3?$CF3d@
	DD	FLAT:??_C@_05NBPIINNE@A?3?$CF3d@
	DD	FLAT:??_C@_05PGPHNMBM@H?3?$CF3d@
	DD	FLAT:??_C@_05JPOGCOEE@S?3?$CF3d@
	DD	FLAT:??_C@_05MPCLLPPH@V?3?$CF3d@
	DD	FLAT:??_C@_05NBPIINNE@A?3?$CF3d@
?fmt_table_float@?BL@??ColorEdit4@ImGui@@YA_NPBDQAMH@Z@4PAY03PBDA DD FLAT:??_C@_05ONBKDNLK@?$CF0?43f@ ; `ImGui::ColorEdit4'::`27'::fmt_table_float
	DD	FLAT:??_C@_05ONBKDNLK@?$CF0?43f@
	DD	FLAT:??_C@_05ONBKDNLK@?$CF0?43f@
	DD	FLAT:??_C@_05ONBKDNLK@?$CF0?43f@
	DD	FLAT:??_C@_07CCOKENNH@R?3?$CF0?43f@
	DD	FLAT:??_C@_07BGLBHCJI@G?3?$CF0?43f@
	DD	FLAT:??_C@_07FOFBHMPM@B?3?$CF0?43f@
	DD	FLAT:??_C@_07NANOHLBP@A?3?$CF0?43f@
	DD	FLAT:??_C@_07MPJBGADE@H?3?$CF0?43f@
	DD	FLAT:??_C@_07OOEAENEJ@S?3?$CF0?43f@
	DD	FLAT:??_C@_07KGKAEDCN@V?3?$CF0?43f@
	DD	FLAT:??_C@_07NANOHLBP@A?3?$CF0?43f@
_DATA	ENDS
;	COMDAT ?__LINE__Var@?0??InputTextWithHint@ImGui@@YA_NPBD0PADIHP6AHPAUImGuiInputTextCallbackData@@@ZPAX@Z@4JA
_DATA	SEGMENT
?__LINE__Var@?0??InputTextWithHint@ImGui@@YA_NPBD0PADIHP6AHPAUImGuiInputTextCallbackData@@@ZPAX@Z@4JA DD 0c11H ; `ImGui::InputTextWithHint'::`1'::__LINE__Var
_DATA	ENDS
;	COMDAT ??_C@_1FC@IFNBIILP@?$AA?$CB?$AA?$CI?$AAf?$AAl?$AAa?$AAg?$AAs?$AA?5?$AA?$CG?$AA?5?$AAI?$AAm?$AAG?$AAu?$AAi@
CONST	SEGMENT
??_C@_1FC@IFNBIILP@?$AA?$CB?$AA?$CI?$AAf?$AAl?$AAa?$AAg?$AAs?$AA?5?$AA?$CG?$AA?5?$AAI?$AAm?$AAG?$AAu?$AAi@ DB '!'
	DB	00H, '(', 00H, 'f', 00H, 'l', 00H, 'a', 00H, 'g', 00H, 's', 00H
	DB	' ', 00H, '&', 00H, ' ', 00H, 'I', 00H, 'm', 00H, 'G', 00H, 'u'
	DB	00H, 'i', 00H, 'I', 00H, 'n', 00H, 'p', 00H, 'u', 00H, 't', 00H
	DB	'T', 00H, 'e', 00H, 'x', 00H, 't', 00H, 'F', 00H, 'l', 00H, 'a'
	DB	00H, 'g', 00H, 's', 00H, '_', 00H, 'M', 00H, 'u', 00H, 'l', 00H
	DB	't', 00H, 'i', 00H, 'l', 00H, 'i', 00H, 'n', 00H, 'e', 00H, ')'
	DB	00H, 00H, 00H				; `string'
CONST	ENDS
;	COMDAT ?__LINE__Var@?0??InputText@ImGui@@YA_NPBDPADIHP6AHPAUImGuiInputTextCallbackData@@@ZPAX@Z@4JA
_DATA	SEGMENT
?__LINE__Var@?0??InputText@ImGui@@YA_NPBDPADIHP6AHPAUImGuiInputTextCallbackData@@@ZPAX@Z@4JA DD 0c06H ; `ImGui::InputText'::`1'::__LINE__Var
_DATA	ENDS
;	COMDAT ??_C@_04JIMNDDED@?$CF08X@
CONST	SEGMENT
??_C@_04JIMNDDED@?$CF08X@ DB '%08X', 00H		; `string'
CONST	ENDS
;	COMDAT ??_C@_06DNBDMDIL@?$CF?$CF?4?$CFdf@
CONST	SEGMENT
??_C@_06DNBDMDIL@?$CF?$CF?4?$CFdf@ DB '%%.%df', 00H	; `string'
CONST	ENDS
;	COMDAT ??_C@_01MIFGBAGJ@?$CL@
CONST	SEGMENT
??_C@_01MIFGBAGJ@?$CL@ DB '+', 00H			; `string'
CONST	ENDS
;	COMDAT ??_C@_01JOAMLHOP@?9@
CONST	SEGMENT
??_C@_01JOAMLHOP@?9@ DB '-', 00H			; `string'
CONST	ENDS
;	COMDAT ??_C@_1CC@LLIJAMKA@?$AAg?$AA?4?$AAA?$AAc?$AAt?$AAi?$AAv?$AAe?$AAI?$AAd?$AA?5?$AA?$DN?$AA?$DN?$AA?5?$AAi@
CONST	SEGMENT
??_C@_1CC@LLIJAMKA@?$AAg?$AA?4?$AAA?$AAc?$AAt?$AAi?$AAv?$AAe?$AAI?$AAd?$AA?5?$AA?$DN?$AA?$DN?$AA?5?$AAi@ DB 'g'
	DB	00H, '.', 00H, 'A', 00H, 'c', 00H, 't', 00H, 'i', 00H, 'v', 00H
	DB	'e', 00H, 'I', 00H, 'd', 00H, ' ', 00H, '=', 00H, '=', 00H, ' '
	DB	00H, 'i', 00H, 'd', 00H, 00H, 00H		; `string'
CONST	ENDS
;	COMDAT ?__LINE__Var@?0??TempInputTextScalar@ImGui@@YA_NABUImRect@@IPBDHPAX1@Z@4JA
_DATA	SEGMENT
?__LINE__Var@?0??TempInputTextScalar@ImGui@@YA_NABUImRect@@IPBDHPAX1@Z@4JA DD 0b19H ; `ImGui::TempInputTextScalar'::`1'::__LINE__Var
_DATA	ENDS
;	COMDAT ??_C@_08FKIHKODH@?$CF?40f?5deg@
CONST	SEGMENT
??_C@_08FKIHKODH@?$CF?40f?5deg@ DB '%.0f deg', 00H	; `string'
CONST	ENDS
;	COMDAT ??_C@_1OA@OEHGOKMN@?$AA?$CK?$AA?$CI?$AAc?$AAo?$AAn?$AAs?$AAt?$AA?5?$AAd?$AAo?$AAu?$AAb?$AAl?$AAe?$AA?$CK@
CONST	SEGMENT
??_C@_1OA@OEHGOKMN@?$AA?$CK?$AA?$CI?$AAc?$AAo?$AAn?$AAs?$AAt?$AA?5?$AAd?$AAo?$AAu?$AAb?$AAl?$AAe?$AA?$CK@ DB '*'
	DB	00H, '(', 00H, 'c', 00H, 'o', 00H, 'n', 00H, 's', 00H, 't', 00H
	DB	' ', 00H, 'd', 00H, 'o', 00H, 'u', 00H, 'b', 00H, 'l', 00H, 'e'
	DB	00H, '*', 00H, ')', 00H, 'p', 00H, '_', 00H, 'm', 00H, 'i', 00H
	DB	'n', 00H, ' ', 00H, '>', 00H, '=', 00H, ' ', 00H, '-', 00H, '1'
	DB	00H, '.', 00H, '7', 00H, '9', 00H, '7', 00H, '6', 00H, '9', 00H
	DB	'3', 00H, '1', 00H, '3', 00H, '4', 00H, '8', 00H, '6', 00H, '2'
	DB	00H, '3', 00H, '1', 00H, '5', 00H, '8', 00H, 'e', 00H, '+', 00H
	DB	'3', 00H, '0', 00H, '8', 00H, '/', 00H, '2', 00H, '.', 00H, '0'
	DB	00H, 'f', 00H, ' ', 00H, '&', 00H, '&', 00H, ' ', 00H, '*', 00H
	DB	'(', 00H, 'c', 00H, 'o', 00H, 'n', 00H, 's', 00H, 't', 00H, ' '
	DB	00H, 'd', 00H, 'o', 00H, 'u', 00H, 'b', 00H, 'l', 00H, 'e', 00H
	DB	'*', 00H, ')', 00H, 'p', 00H, '_', 00H, 'm', 00H, 'a', 00H, 'x'
	DB	00H, ' ', 00H, '<', 00H, '=', 00H, ' ', 00H, '1', 00H, '.', 00H
	DB	'7', 00H, '9', 00H, '7', 00H, '6', 00H, '9', 00H, '3', 00H, '1'
	DB	00H, '3', 00H, '4', 00H, '8', 00H, '6', 00H, '2', 00H, '3', 00H
	DB	'1', 00H, '5', 00H, '8', 00H, 'e', 00H, '+', 00H, '3', 00H, '0'
	DB	00H, '8', 00H, '/', 00H, '2', 00H, '.', 00H, '0', 00H, 'f', 00H
	DB	00H, 00H					; `string'
CONST	ENDS
;	COMDAT ??_C@_1MA@ELIKKGKL@?$AA?$CK?$AA?$CI?$AAc?$AAo?$AAn?$AAs?$AAt?$AA?5?$AAf?$AAl?$AAo?$AAa?$AAt?$AA?$CK?$AA?$CJ@
CONST	SEGMENT
??_C@_1MA@ELIKKGKL@?$AA?$CK?$AA?$CI?$AAc?$AAo?$AAn?$AAs?$AAt?$AA?5?$AAf?$AAl?$AAo?$AAa?$AAt?$AA?$CK?$AA?$CJ@ DB '*'
	DB	00H, '(', 00H, 'c', 00H, 'o', 00H, 'n', 00H, 's', 00H, 't', 00H
	DB	' ', 00H, 'f', 00H, 'l', 00H, 'o', 00H, 'a', 00H, 't', 00H, '*'
	DB	00H, ')', 00H, 'p', 00H, '_', 00H, 'm', 00H, 'i', 00H, 'n', 00H
	DB	' ', 00H, '>', 00H, '=', 00H, ' ', 00H, '-', 00H, '3', 00H, '.'
	DB	00H, '4', 00H, '0', 00H, '2', 00H, '8', 00H, '2', 00H, '3', 00H
	DB	'4', 00H, '6', 00H, '6', 00H, 'e', 00H, '+', 00H, '3', 00H, '8'
	DB	00H, 'F', 00H, '/', 00H, '2', 00H, '.', 00H, '0', 00H, 'f', 00H
	DB	' ', 00H, '&', 00H, '&', 00H, ' ', 00H, '*', 00H, '(', 00H, 'c'
	DB	00H, 'o', 00H, 'n', 00H, 's', 00H, 't', 00H, ' ', 00H, 'f', 00H
	DB	'l', 00H, 'o', 00H, 'a', 00H, 't', 00H, '*', 00H, ')', 00H, 'p'
	DB	00H, '_', 00H, 'm', 00H, 'a', 00H, 'x', 00H, ' ', 00H, '<', 00H
	DB	'=', 00H, ' ', 00H, '3', 00H, '.', 00H, '4', 00H, '0', 00H, '2'
	DB	00H, '8', 00H, '2', 00H, '3', 00H, '4', 00H, '6', 00H, '6', 00H
	DB	'e', 00H, '+', 00H, '3', 00H, '8', 00H, 'F', 00H, '/', 00H, '2'
	DB	00H, '.', 00H, '0', 00H, 'f', 00H, 00H, 00H	; `string'
CONST	ENDS
;	COMDAT ??_C@_1EK@CBABBPPD@?$AA?$CK?$AA?$CI?$AAc?$AAo?$AAn?$AAs?$AAt?$AA?5?$AAI?$AAm?$AAU?$AA6?$AA4?$AA?$CK?$AA?$CJ@
CONST	SEGMENT
??_C@_1EK@CBABBPPD@?$AA?$CK?$AA?$CI?$AAc?$AAo?$AAn?$AAs?$AAt?$AA?5?$AAI?$AAm?$AAU?$AA6?$AA4?$AA?$CK?$AA?$CJ@ DB '*'
	DB	00H, '(', 00H, 'c', 00H, 'o', 00H, 'n', 00H, 's', 00H, 't', 00H
	DB	' ', 00H, 'I', 00H, 'm', 00H, 'U', 00H, '6', 00H, '4', 00H, '*'
	DB	00H, ')', 00H, 'p', 00H, '_', 00H, 'm', 00H, 'a', 00H, 'x', 00H
	DB	' ', 00H, '<', 00H, '=', 00H, ' ', 00H, 'I', 00H, 'M', 00H, '_'
	DB	00H, 'U', 00H, '6', 00H, '4', 00H, '_', 00H, 'M', 00H, 'A', 00H
	DB	'X', 00H, '/', 00H, '2', 00H, 00H, 00H	; `string'
CONST	ENDS
;	COMDAT ??_C@_1JK@NOHGLDJN@?$AA?$CK?$AA?$CI?$AAc?$AAo?$AAn?$AAs?$AAt?$AA?5?$AAI?$AAm?$AAS?$AA6?$AA4?$AA?$CK?$AA?$CJ@
CONST	SEGMENT
??_C@_1JK@NOHGLDJN@?$AA?$CK?$AA?$CI?$AAc?$AAo?$AAn?$AAs?$AAt?$AA?5?$AAI?$AAm?$AAS?$AA6?$AA4?$AA?$CK?$AA?$CJ@ DB '*'
	DB	00H, '(', 00H, 'c', 00H, 'o', 00H, 'n', 00H, 's', 00H, 't', 00H
	DB	' ', 00H, 'I', 00H, 'm', 00H, 'S', 00H, '6', 00H, '4', 00H, '*'
	DB	00H, ')', 00H, 'p', 00H, '_', 00H, 'm', 00H, 'i', 00H, 'n', 00H
	DB	' ', 00H, '>', 00H, '=', 00H, ' ', 00H, 'I', 00H, 'M', 00H, '_'
	DB	00H, 'S', 00H, '6', 00H, '4', 00H, '_', 00H, 'M', 00H, 'I', 00H
	DB	'N', 00H, '/', 00H, '2', 00H, ' ', 00H, '&', 00H, '&', 00H, ' '
	DB	00H, '*', 00H, '(', 00H, 'c', 00H, 'o', 00H, 'n', 00H, 's', 00H
	DB	't', 00H, ' ', 00H, 'I', 00H, 'm', 00H, 'S', 00H, '6', 00H, '4'
	DB	00H, '*', 00H, ')', 00H, 'p', 00H, '_', 00H, 'm', 00H, 'a', 00H
	DB	'x', 00H, ' ', 00H, '<', 00H, '=', 00H, ' ', 00H, 'I', 00H, 'M'
	DB	00H, '_', 00H, 'S', 00H, '6', 00H, '4', 00H, '_', 00H, 'M', 00H
	DB	'A', 00H, 'X', 00H, '/', 00H, '2', 00H, 00H, 00H ; `string'
CONST	ENDS
;	COMDAT ??_C@_1EK@CNKAEFCM@?$AA?$CK?$AA?$CI?$AAc?$AAo?$AAn?$AAs?$AAt?$AA?5?$AAI?$AAm?$AAU?$AA3?$AA2?$AA?$CK?$AA?$CJ@
CONST	SEGMENT
??_C@_1EK@CNKAEFCM@?$AA?$CK?$AA?$CI?$AAc?$AAo?$AAn?$AAs?$AAt?$AA?5?$AAI?$AAm?$AAU?$AA3?$AA2?$AA?$CK?$AA?$CJ@ DB '*'
	DB	00H, '(', 00H, 'c', 00H, 'o', 00H, 'n', 00H, 's', 00H, 't', 00H
	DB	' ', 00H, 'I', 00H, 'm', 00H, 'U', 00H, '3', 00H, '2', 00H, '*'
	DB	00H, ')', 00H, 'p', 00H, '_', 00H, 'm', 00H, 'a', 00H, 'x', 00H
	DB	' ', 00H, '<', 00H, '=', 00H, ' ', 00H, 'I', 00H, 'M', 00H, '_'
	DB	00H, 'U', 00H, '3', 00H, '2', 00H, '_', 00H, 'M', 00H, 'A', 00H
	DB	'X', 00H, '/', 00H, '2', 00H, 00H, 00H	; `string'
CONST	ENDS
;	COMDAT ??_C@_1JK@KBPJHMJO@?$AA?$CK?$AA?$CI?$AAc?$AAo?$AAn?$AAs?$AAt?$AA?5?$AAI?$AAm?$AAS?$AA3?$AA2?$AA?$CK?$AA?$CJ@
CONST	SEGMENT
??_C@_1JK@KBPJHMJO@?$AA?$CK?$AA?$CI?$AAc?$AAo?$AAn?$AAs?$AAt?$AA?5?$AAI?$AAm?$AAS?$AA3?$AA2?$AA?$CK?$AA?$CJ@ DB '*'
	DB	00H, '(', 00H, 'c', 00H, 'o', 00H, 'n', 00H, 's', 00H, 't', 00H
	DB	' ', 00H, 'I', 00H, 'm', 00H, 'S', 00H, '3', 00H, '2', 00H, '*'
	DB	00H, ')', 00H, 'p', 00H, '_', 00H, 'm', 00H, 'i', 00H, 'n', 00H
	DB	' ', 00H, '>', 00H, '=', 00H, ' ', 00H, 'I', 00H, 'M', 00H, '_'
	DB	00H, 'S', 00H, '3', 00H, '2', 00H, '_', 00H, 'M', 00H, 'I', 00H
	DB	'N', 00H, '/', 00H, '2', 00H, ' ', 00H, '&', 00H, '&', 00H, ' '
	DB	00H, '*', 00H, '(', 00H, 'c', 00H, 'o', 00H, 'n', 00H, 's', 00H
	DB	't', 00H, ' ', 00H, 'I', 00H, 'm', 00H, 'S', 00H, '3', 00H, '2'
	DB	00H, '*', 00H, ')', 00H, 'p', 00H, '_', 00H, 'm', 00H, 'a', 00H
	DB	'x', 00H, ' ', 00H, '<', 00H, '=', 00H, ' ', 00H, 'I', 00H, 'M'
	DB	00H, '_', 00H, 'S', 00H, '3', 00H, '2', 00H, '_', 00H, 'M', 00H
	DB	'A', 00H, 'X', 00H, '/', 00H, '2', 00H, 00H, 00H ; `string'
CONST	ENDS
;	COMDAT ?__LINE__Var@?0??SliderBehavior@ImGui@@YA_NABUImRect@@IHPAXPBX2PBDMHPAU3@@Z@4JA
_DATA	SEGMENT
?__LINE__Var@?0??SliderBehavior@ImGui@@YA_NABUImRect@@IHPAXPBX2PBDMHPAU3@@Z@4JA DD 09b1H ; `ImGui::SliderBehavior'::`1'::__LINE__Var
_DATA	ENDS
;	COMDAT ??_C@_05CONLABCH@?$CD?$CDmax@
CONST	SEGMENT
??_C@_05CONLABCH@?$CD?$CDmax@ DB '##max', 00H		; `string'
CONST	ENDS
;	COMDAT ??_C@_05DMFAOFEI@?$CD?$CDmin@
CONST	SEGMENT
??_C@_05DMFAOFEI@?$CD?$CDmin@ DB '##min', 00H		; `string'
CONST	ENDS
;	COMDAT ??_C@_00CNPNBAHC@@
CONST	SEGMENT
??_C@_00CNPNBAHC@@ DB 00H				; `string'
CONST	ENDS
;	COMDAT ??_C@_1DC@IAANKGPJ@?$AAp?$AA_?$AAm?$AAi?$AAn?$AA?5?$AA?$CB?$AA?$DN?$AA?5?$AA0?$AA?5?$AA?$CG?$AA?$CG?$AA?5?$AAp@
CONST	SEGMENT
??_C@_1DC@IAANKGPJ@?$AAp?$AA_?$AAm?$AAi?$AAn?$AA?5?$AA?$CB?$AA?$DN?$AA?5?$AA0?$AA?5?$AA?$CG?$AA?$CG?$AA?5?$AAp@ DB 'p'
	DB	00H, '_', 00H, 'm', 00H, 'i', 00H, 'n', 00H, ' ', 00H, '!', 00H
	DB	'=', 00H, ' ', 00H, '0', 00H, ' ', 00H, '&', 00H, '&', 00H, ' '
	DB	00H, 'p', 00H, '_', 00H, 'm', 00H, 'a', 00H, 'x', 00H, ' ', 00H
	DB	'!', 00H, '=', 00H, ' ', 00H, '0', 00H, 00H, 00H ; `string'
CONST	ENDS
;	COMDAT ?__LINE__Var@?0??DragScalar@ImGui@@YA_NPBDHPAXMPBX20M@Z@4JA
_DATA	SEGMENT
?__LINE__Var@?0??DragScalar@ImGui@@YA_NPBDHPAXMPBX20M@Z@4JA DD 080dH ; `ImGui::DragScalar'::`1'::__LINE__Var
_DATA	ENDS
;	COMDAT ?__LINE__Var@?0??DragBehavior@ImGui@@YA_NIHPAXMPBX1PBDMH@Z@4JA
_DATA	SEGMENT
?__LINE__Var@?0??DragBehavior@ImGui@@YA_NIHPAXMPBX1PBDMH@Z@4JA DD 07ecH ; `ImGui::DragBehavior'::`1'::__LINE__Var
_DATA	ENDS
;	COMDAT ??_C@_1EO@OEMFLDEM@?$AAt?$AAy?$AAp?$AAe?$AA_?$AAi?$AAn?$AAf?$AAo?$AA?9?$AA?$DO?$AAS?$AAi?$AAz?$AAe@
CONST	SEGMENT
??_C@_1EO@OEMFLDEM@?$AAt?$AAy?$AAp?$AAe?$AA_?$AAi?$AAn?$AAf?$AAo?$AA?9?$AA?$DO?$AAS?$AAi?$AAz?$AAe@ DB 't'
	DB	00H, 'y', 00H, 'p', 00H, 'e', 00H, '_', 00H, 'i', 00H, 'n', 00H
	DB	'f', 00H, 'o', 00H, '-', 00H, '>', 00H, 'S', 00H, 'i', 00H, 'z'
	DB	00H, 'e', 00H, ' ', 00H, '<', 00H, '=', 00H, ' ', 00H, 's', 00H
	DB	'i', 00H, 'z', 00H, 'e', 00H, 'o', 00H, 'f', 00H, '(', 00H, 'd'
	DB	00H, 'a', 00H, 't', 00H, 'a', 00H, '_', 00H, 'b', 00H, 'a', 00H
	DB	'c', 00H, 'k', 00H, 'u', 00H, 'p', 00H, ')', 00H, 00H, 00H ; `string'
CONST	ENDS
;	COMDAT ??_C@_1EA@ILBKEPMO@?$AAd?$AAa?$AAt?$AAa?$AA_?$AAt?$AAy?$AAp?$AAe?$AA?5?$AA?$DM?$AA?5?$AAI?$AAm?$AAG@
CONST	SEGMENT
??_C@_1EA@ILBKEPMO@?$AAd?$AAa?$AAt?$AAa?$AA_?$AAt?$AAy?$AAp?$AAe?$AA?5?$AA?$DM?$AA?5?$AAI?$AAm?$AAG@ DB 'd'
	DB	00H, 'a', 00H, 't', 00H, 'a', 00H, '_', 00H, 't', 00H, 'y', 00H
	DB	'p', 00H, 'e', 00H, ' ', 00H, '<', 00H, ' ', 00H, 'I', 00H, 'm'
	DB	00H, 'G', 00H, 'u', 00H, 'i', 00H, 'D', 00H, 'a', 00H, 't', 00H
	DB	'a', 00H, 'T', 00H, 'y', 00H, 'p', 00H, 'e', 00H, '_', 00H, 'C'
	DB	00H, 'O', 00H, 'U', 00H, 'N', 00H, 'T', 00H, 00H, 00H ; `string'
CONST	ENDS
;	COMDAT ?__LINE__Var@?0??DataTypeApplyOpFromText@ImGui@@YA_NPBD0HPAX0@Z@4JA
_DATA	SEGMENT
?__LINE__Var@?0??DataTypeApplyOpFromText@ImGui@@YA_NPBD0HPAX0@Z@4JA DD 06e0H ; `ImGui::DataTypeApplyOpFromText'::`1'::__LINE__Var
_DATA	ENDS
;	COMDAT ??_C@_1CO@LEDHMGOL@?$AAo?$AAp?$AA?5?$AA?$DN?$AA?$DN?$AA?5?$AA?8?$AA?$CL?$AA?8?$AA?5?$AA?$HM?$AA?$HM?$AA?5?$AAo?$AAp@
CONST	SEGMENT
??_C@_1CO@LEDHMGOL@?$AAo?$AAp?$AA?5?$AA?$DN?$AA?$DN?$AA?5?$AA?8?$AA?$CL?$AA?8?$AA?5?$AA?$HM?$AA?$HM?$AA?5?$AAo?$AAp@ DB 'o'
	DB	00H, 'p', 00H, ' ', 00H, '=', 00H, '=', 00H, ' ', 00H, '''', 00H
	DB	'+', 00H, '''', 00H, ' ', 00H, '|', 00H, '|', 00H, ' ', 00H, 'o'
	DB	00H, 'p', 00H, ' ', 00H, '=', 00H, '=', 00H, ' ', 00H, '''', 00H
	DB	'-', 00H, '''', 00H, 00H, 00H		; `string'
CONST	ENDS
;	COMDAT ?__LINE__Var@?0??DataTypeApplyOp@ImGui@@YAXHHPAX0PBX@Z@4JA
_DATA	SEGMENT
?__LINE__Var@?0??DataTypeApplyOp@ImGui@@YAXHHPAX0PBX@Z@4JA DD 06acH ; `ImGui::DataTypeApplyOp'::`1'::__LINE__Var
_DATA	ENDS
;	COMDAT ?__LINE__Var@?0??DataTypeFormatString@ImGui@@YAHPADHHPBXPBD@Z@4JA
_DATA	SEGMENT
?__LINE__Var@?0??DataTypeFormatString@ImGui@@YAHPADHHPBXPBD@Z@4JA DD 0695H ; `ImGui::DataTypeFormatString'::`1'::__LINE__Var
_DATA	ENDS
;	COMDAT ??_C@_1GE@PMGCKKHF@?$AAd?$AAa?$AAt?$AAa?$AA_?$AAt?$AAy?$AAp?$AAe?$AA?5?$AA?$DO?$AA?$DN?$AA?5?$AA0?$AA?5@
CONST	SEGMENT
??_C@_1GE@PMGCKKHF@?$AAd?$AAa?$AAt?$AAa?$AA_?$AAt?$AAy?$AAp?$AAe?$AA?5?$AA?$DO?$AA?$DN?$AA?5?$AA0?$AA?5@ DB 'd'
	DB	00H, 'a', 00H, 't', 00H, 'a', 00H, '_', 00H, 't', 00H, 'y', 00H
	DB	'p', 00H, 'e', 00H, ' ', 00H, '>', 00H, '=', 00H, ' ', 00H, '0'
	DB	00H, ' ', 00H, '&', 00H, '&', 00H, ' ', 00H, 'd', 00H, 'a', 00H
	DB	't', 00H, 'a', 00H, '_', 00H, 't', 00H, 'y', 00H, 'p', 00H, 'e'
	DB	00H, ' ', 00H, '<', 00H, ' ', 00H, 'I', 00H, 'm', 00H, 'G', 00H
	DB	'u', 00H, 'i', 00H, 'D', 00H, 'a', 00H, 't', 00H, 'a', 00H, 'T'
	DB	00H, 'y', 00H, 'p', 00H, 'e', 00H, '_', 00H, 'C', 00H, 'O', 00H
	DB	'U', 00H, 'N', 00H, 'T', 00H, 00H, 00H	; `string'
CONST	ENDS
;	COMDAT ?__LINE__Var@?0??DataTypeGetInfo@ImGui@@YAPBUImGuiDataTypeInfo@@H@Z@4JA
_DATA	SEGMENT
?__LINE__Var@?0??DataTypeGetInfo@ImGui@@YAPBUImGuiDataTypeInfo@@H@Z@4JA DD 068fH ; `ImGui::DataTypeGetInfo'::`1'::__LINE__Var
_DATA	ENDS
;	COMDAT ??_C@_09JKJEEIJP@?$CF?4?$CKs?$CF?$CFd?$CFs@
CONST	SEGMENT
??_C@_09JKJEEIJP@?$CF?4?$CKs?$CF?$CFd?$CFs@ DB '%.*s%%d%s', 00H ; `string'
CONST	ENDS
;	COMDAT ??_C@_0P@HFPOEILF@?$CKUnknown?5item?$CK@
CONST	SEGMENT
??_C@_0P@HFPOEILF@?$CKUnknown?5item?$CK@ DB '*Unknown item*', 00H ; `string'
CONST	ENDS
;	COMDAT ??_C@_0N@JOGGDHMO@?$CD?$CDCombo_?$CF02d@
CONST	SEGMENT
??_C@_0N@JOGGDHMO@?$CD?$CDCombo_?$CF02d@ DB '##Combo_%02d', 00H ; `string'
CONST	ENDS
;	COMDAT ??_C@_1GI@IOEAHNLK@?$AAI?$AAm?$AAI?$AAs?$AAP?$AAo?$AAw?$AAe?$AAr?$AAO?$AAf?$AAT?$AAw?$AAo?$AA?$CI@
CONST	SEGMENT
??_C@_1GI@IOEAHNLK@?$AAI?$AAm?$AAI?$AAs?$AAP?$AAo?$AAw?$AAe?$AAr?$AAO?$AAf?$AAT?$AAw?$AAo?$AA?$CI@ DB 'I'
	DB	00H, 'm', 00H, 'I', 00H, 's', 00H, 'P', 00H, 'o', 00H, 'w', 00H
	DB	'e', 00H, 'r', 00H, 'O', 00H, 'f', 00H, 'T', 00H, 'w', 00H, 'o'
	DB	00H, '(', 00H, 'f', 00H, 'l', 00H, 'a', 00H, 'g', 00H, 's', 00H
	DB	' ', 00H, '&', 00H, ' ', 00H, 'I', 00H, 'm', 00H, 'G', 00H, 'u'
	DB	00H, 'i', 00H, 'C', 00H, 'o', 00H, 'm', 00H, 'b', 00H, 'o', 00H
	DB	'F', 00H, 'l', 00H, 'a', 00H, 'g', 00H, 's', 00H, '_', 00H, 'H'
	DB	00H, 'e', 00H, 'i', 00H, 'g', 00H, 'h', 00H, 't', 00H, 'M', 00H
	DB	'a', 00H, 's', 00H, 'k', 00H, '_', 00H, ')', 00H, 00H, 00H ; `string'
CONST	ENDS
;	COMDAT ??_C@_1BAK@ONBANIIG@?$AA?$CI?$AAf?$AAl?$AAa?$AAg?$AAs?$AA?5?$AA?$CG?$AA?5?$AA?$CI?$AAI?$AAm?$AAG?$AAu?$AAi@
CONST	SEGMENT
??_C@_1BAK@ONBANIIG@?$AA?$CI?$AAf?$AAl?$AAa?$AAg?$AAs?$AA?5?$AA?$CG?$AA?5?$AA?$CI?$AAI?$AAm?$AAG?$AAu?$AAi@ DB '('
	DB	00H, 'f', 00H, 'l', 00H, 'a', 00H, 'g', 00H, 's', 00H, ' ', 00H
	DB	'&', 00H, ' ', 00H, '(', 00H, 'I', 00H, 'm', 00H, 'G', 00H, 'u'
	DB	00H, 'i', 00H, 'C', 00H, 'o', 00H, 'm', 00H, 'b', 00H, 'o', 00H
	DB	'F', 00H, 'l', 00H, 'a', 00H, 'g', 00H, 's', 00H, '_', 00H, 'N'
	DB	00H, 'o', 00H, 'A', 00H, 'r', 00H, 'r', 00H, 'o', 00H, 'w', 00H
	DB	'B', 00H, 'u', 00H, 't', 00H, 't', 00H, 'o', 00H, 'n', 00H, ' '
	DB	00H, '|', 00H, ' ', 00H, 'I', 00H, 'm', 00H, 'G', 00H, 'u', 00H
	DB	'i', 00H, 'C', 00H, 'o', 00H, 'm', 00H, 'b', 00H, 'o', 00H, 'F'
	DB	00H, 'l', 00H, 'a', 00H, 'g', 00H, 's', 00H, '_', 00H, 'N', 00H
	DB	'o', 00H, 'P', 00H, 'r', 00H, 'e', 00H, 'v', 00H, 'i', 00H, 'e'
	DB	00H, 'w', 00H, ')', 00H, ')', 00H, ' ', 00H, '!', 00H, '=', 00H
	DB	' ', 00H, '(', 00H, 'I', 00H, 'm', 00H, 'G', 00H, 'u', 00H, 'i'
	DB	00H, 'C', 00H, 'o', 00H, 'm', 00H, 'b', 00H, 'o', 00H, 'F', 00H
	DB	'l', 00H, 'a', 00H, 'g', 00H, 's', 00H, '_', 00H, 'N', 00H, 'o'
	DB	00H, 'A', 00H, 'r', 00H, 'r', 00H, 'o', 00H, 'w', 00H, 'B', 00H
	DB	'u', 00H, 't', 00H, 't', 00H, 'o', 00H, 'n', 00H, ' ', 00H, '|'
	DB	00H, ' ', 00H, 'I', 00H, 'm', 00H, 'G', 00H, 'u', 00H, 'i', 00H
	DB	'C', 00H, 'o', 00H, 'm', 00H, 'b', 00H, 'o', 00H, 'F', 00H, 'l'
	DB	00H, 'a', 00H, 'g', 00H, 's', 00H, '_', 00H, 'N', 00H, 'o', 00H
	DB	'P', 00H, 'r', 00H, 'e', 00H, 'v', 00H, 'i', 00H, 'e', 00H, 'w'
	DB	00H, ')', 00H, 00H, 00H			; `string'
CONST	ENDS
;	COMDAT ?__LINE__Var@?0??BeginCombo@ImGui@@YA_NPBD0H@Z@4JA
_DATA	SEGMENT
?__LINE__Var@?0??BeginCombo@ImGui@@YA_NPBD0H@Z@4JA DD 058aH ; `ImGui::BeginCombo'::`1'::__LINE__Var
_DATA	ENDS
;	COMDAT ??_C@_1EE@LBEKBPGJ@?$AA?$CK?$AAs?$AAi?$AAz?$AAe?$AA2?$AA?5?$AA?9?$AA?5?$AAm?$AAo?$AAu?$AAs?$AAe?$AA_@
CONST	SEGMENT
??_C@_1EE@LBEKBPGJ@?$AA?$CK?$AAs?$AAi?$AAz?$AAe?$AA2?$AA?5?$AA?9?$AA?5?$AAm?$AAo?$AAu?$AAs?$AAe?$AA_@ DB '*'
	DB	00H, 's', 00H, 'i', 00H, 'z', 00H, 'e', 00H, '2', 00H, ' ', 00H
	DB	'-', 00H, ' ', 00H, 'm', 00H, 'o', 00H, 'u', 00H, 's', 00H, 'e'
	DB	00H, '_', 00H, 'd', 00H, 'e', 00H, 'l', 00H, 't', 00H, 'a', 00H
	DB	' ', 00H, '>', 00H, '=', 00H, ' ', 00H, 'm', 00H, 'i', 00H, 'n'
	DB	00H, '_', 00H, 's', 00H, 'i', 00H, 'z', 00H, 'e', 00H, '2', 00H
	DB	00H, 00H					; `string'
CONST	ENDS
;	COMDAT ??_C@_1EE@HJGLFFIG@?$AA?$CK?$AAs?$AAi?$AAz?$AAe?$AA1?$AA?5?$AA?$CL?$AA?5?$AAm?$AAo?$AAu?$AAs?$AAe?$AA_@
CONST	SEGMENT
??_C@_1EE@HJGLFFIG@?$AA?$CK?$AAs?$AAi?$AAz?$AAe?$AA1?$AA?5?$AA?$CL?$AA?5?$AAm?$AAo?$AAu?$AAs?$AAe?$AA_@ DB '*'
	DB	00H, 's', 00H, 'i', 00H, 'z', 00H, 'e', 00H, '1', 00H, ' ', 00H
	DB	'+', 00H, ' ', 00H, 'm', 00H, 'o', 00H, 'u', 00H, 's', 00H, 'e'
	DB	00H, '_', 00H, 'd', 00H, 'e', 00H, 'l', 00H, 't', 00H, 'a', 00H
	DB	' ', 00H, '>', 00H, '=', 00H, ' ', 00H, 'm', 00H, 'i', 00H, 'n'
	DB	00H, '_', 00H, 's', 00H, 'i', 00H, 'z', 00H, 'e', 00H, '1', 00H
	DB	00H, 00H					; `string'
CONST	ENDS
;	COMDAT ?__LINE__Var@?0??SplitterBehavior@ImGui@@YA_NABUImRect@@IW4ImGuiAxis@@PAM2MMMM@Z@4JA
_DATA	SEGMENT
?__LINE__Var@?0??SplitterBehavior@ImGui@@YA_NABUImRect@@IW4ImGuiAxis@@PAM2MMMM@Z@4JA DD 0514H ; `ImGui::SplitterBehavior'::`1'::__LINE__Var
_DATA	ENDS
;	COMDAT ??_C@_0CB@GNHPAIID@?9?9?9?9?9?9?9?9?9?9?9?9?9?9?9?9?9?9?9?9?9?9?9?9?9?9?9?9?9?9?9@
CONST	SEGMENT
??_C@_0CB@GNHPAIID@?9?9?9?9?9?9?9?9?9?9?9?9?9?9?9?9?9?9?9?9?9?9?9?9?9?9?9?9?9?9?9@ DB '-'
	DB	'-------------------------------', 00H	; `string'
CONST	ENDS
;	COMDAT ??_C@_02LLHJFGPH@?5?$HM@
CONST	SEGMENT
??_C@_02LLHJFGPH@?5?$HM@ DB ' |', 00H			; `string'
CONST	ENDS
;	COMDAT ??_C@_1LA@FPPCKOP@?$AAI?$AAm?$AAI?$AAs?$AAP?$AAo?$AAw?$AAe?$AAr?$AAO?$AAf?$AAT?$AAw?$AAo?$AA?$CI@
CONST	SEGMENT
??_C@_1LA@FPPCKOP@?$AAI?$AAm?$AAI?$AAs?$AAP?$AAo?$AAw?$AAe?$AAr?$AAO?$AAf?$AAT?$AAw?$AAo?$AA?$CI@ DB 'I'
	DB	00H, 'm', 00H, 'I', 00H, 's', 00H, 'P', 00H, 'o', 00H, 'w', 00H
	DB	'e', 00H, 'r', 00H, 'O', 00H, 'f', 00H, 'T', 00H, 'w', 00H, 'o'
	DB	00H, '(', 00H, 'f', 00H, 'l', 00H, 'a', 00H, 'g', 00H, 's', 00H
	DB	' ', 00H, '&', 00H, ' ', 00H, '(', 00H, 'I', 00H, 'm', 00H, 'G'
	DB	00H, 'u', 00H, 'i', 00H, 'S', 00H, 'e', 00H, 'p', 00H, 'a', 00H
	DB	'r', 00H, 'a', 00H, 't', 00H, 'o', 00H, 'r', 00H, 'F', 00H, 'l'
	DB	00H, 'a', 00H, 'g', 00H, 's', 00H, '_', 00H, 'H', 00H, 'o', 00H
	DB	'r', 00H, 'i', 00H, 'z', 00H, 'o', 00H, 'n', 00H, 't', 00H, 'a'
	DB	00H, 'l', 00H, ' ', 00H, '|', 00H, ' ', 00H, 'I', 00H, 'm', 00H
	DB	'G', 00H, 'u', 00H, 'i', 00H, 'S', 00H, 'e', 00H, 'p', 00H, 'a'
	DB	00H, 'r', 00H, 'a', 00H, 't', 00H, 'o', 00H, 'r', 00H, 'F', 00H
	DB	'l', 00H, 'a', 00H, 'g', 00H, 's', 00H, '_', 00H, 'V', 00H, 'e'
	DB	00H, 'r', 00H, 't', 00H, 'i', 00H, 'c', 00H, 'a', 00H, 'l', 00H
	DB	')', 00H, ')', 00H, 00H, 00H			; `string'
CONST	ENDS
;	COMDAT ?__LINE__Var@?0??SeparatorEx@ImGui@@YAXH@Z@4JA
_DATA	SEGMENT
?__LINE__Var@?0??SeparatorEx@ImGui@@YAXH@Z@4JA DD 04c6H	; `ImGui::SeparatorEx'::`1'::__LINE__Var
_DATA	ENDS
;	COMDAT ??_C@_06KLKJBGEJ@?$CF?40f?$CF?$CF@
CONST	SEGMENT
??_C@_06KLKJBGEJ@?$CF?40f?$CF?$CF@ DB '%.0f%%', 00H	; `string'
CONST	ENDS
;	COMDAT ??_C@_03MHDGHODJ@?$CI?5?$CJ@
CONST	SEGMENT
??_C@_03MHDGHODJ@?$CI?5?$CJ@ DB '( )', 00H		; `string'
CONST	ENDS
;	COMDAT ??_C@_03KFJJABDB@?$CIx?$CJ@
CONST	SEGMENT
??_C@_03KFJJABDB@?$CIx?$CJ@ DB '(x)', 00H		; `string'
CONST	ENDS
;	COMDAT ??_C@_03PFOPMNLJ@?$FL?5?$FN@
CONST	SEGMENT
??_C@_03PFOPMNLJ@?$FL?5?$FN@ DB '[ ]', 00H		; `string'
CONST	ENDS
;	COMDAT ??_C@_03JHEALCLB@?$FLx?$FN@
CONST	SEGMENT
??_C@_03JHEALCLB@?$FLx?$FN@ DB '[x]', 00H		; `string'
CONST	ENDS
;	COMDAT ??_C@_06EBHDMMP@?$CDimage@
CONST	SEGMENT
??_C@_06EBHDMMP@?$CDimage@ DB '#image', 00H		; `string'
CONST	ENDS
;	COMDAT ??_C@_1CM@GFPJIOBE@?$AAs?$AAc?$AAr?$AAo?$AAl?$AAl?$AAb?$AAa?$AAr?$AA_?$AAs?$AAi?$AAz?$AAe?$AA?5@
CONST	SEGMENT
??_C@_1CM@GFPJIOBE@?$AAs?$AAc?$AAr?$AAo?$AAl?$AAl?$AAb?$AAa?$AAr?$AA_?$AAs?$AAi?$AAz?$AAe?$AA?5@ DB 's'
	DB	00H, 'c', 00H, 'r', 00H, 'o', 00H, 'l', 00H, 'l', 00H, 'b', 00H
	DB	'a', 00H, 'r', 00H, '_', 00H, 's', 00H, 'i', 00H, 'z', 00H, 'e'
	DB	00H, ' ', 00H, '>', 00H, ' ', 00H, '0', 00H, '.', 00H, '0', 00H
	DB	'f', 00H, 00H, 00H				; `string'
CONST	ENDS
;	COMDAT ?__LINE__Var@?0??Scrollbar@ImGui@@YAXW4ImGuiAxis@@@Z@4JA
_DATA	SEGMENT
?__LINE__Var@?0??Scrollbar@ImGui@@YAXW4ImGuiAxis@@@Z@4JA DD 0370H ; `ImGui::Scrollbar'::`1'::__LINE__Var
_DATA	ENDS
;	COMDAT ??_C@_1FI@OFJDJLOI@?$AAI?$AAm?$AAM?$AAa?$AAx?$AA?$CI?$AAs?$AAi?$AAz?$AAe?$AA_?$AAc?$AAo?$AAn?$AAt@
CONST	SEGMENT
??_C@_1FI@OFJDJLOI@?$AAI?$AAm?$AAM?$AAa?$AAx?$AA?$CI?$AAs?$AAi?$AAz?$AAe?$AA_?$AAc?$AAo?$AAn?$AAt@ DB 'I'
	DB	00H, 'm', 00H, 'M', 00H, 'a', 00H, 'x', 00H, '(', 00H, 's', 00H
	DB	'i', 00H, 'z', 00H, 'e', 00H, '_', 00H, 'c', 00H, 'o', 00H, 'n'
	DB	00H, 't', 00H, 'e', 00H, 'n', 00H, 't', 00H, 's', 00H, '_', 00H
	DB	'v', 00H, ',', 00H, ' ', 00H, 's', 00H, 'i', 00H, 'z', 00H, 'e'
	DB	00H, '_', 00H, 'a', 00H, 'v', 00H, 'a', 00H, 'i', 00H, 'l', 00H
	DB	'_', 00H, 'v', 00H, ')', 00H, ' ', 00H, '>', 00H, ' ', 00H, '0'
	DB	00H, '.', 00H, '0', 00H, 'f', 00H, 00H, 00H	; `string'
CONST	ENDS
;	COMDAT ?__LINE__Var@?0??ScrollbarEx@ImGui@@YA_NABUImRect@@IW4ImGuiAxis@@PAMMMH@Z@4JA
_DATA	SEGMENT
?__LINE__Var@?0??ScrollbarEx@ImGui@@YA_NABUImRect@@IW4ImGuiAxis@@PAMMMH@Z@4JA DD 0315H ; `ImGui::ScrollbarEx'::`1'::__LINE__Var
_DATA	ENDS
;	COMDAT ??_C@_08FEBONNKO@?$CDSCROLLY@
CONST	SEGMENT
??_C@_08FEBONNKO@?$CDSCROLLY@ DB '#SCROLLY', 00H	; `string'
CONST	ENDS
;	COMDAT ??_C@_08ENAFOMOP@?$CDSCROLLX@
CONST	SEGMENT
??_C@_08ENAFOMOP@?$CDSCROLLX@ DB '#SCROLLX', 00H	; `string'
CONST	ENDS
;	COMDAT ??_C@_1FC@KJEAANOI@?$AAs?$AAi?$AAz?$AAe?$AA_?$AAa?$AAr?$AAg?$AA?4?$AAx?$AA?5?$AA?$CB?$AA?$DN?$AA?5?$AA0@
CONST	SEGMENT
??_C@_1FC@KJEAANOI@?$AAs?$AAi?$AAz?$AAe?$AA_?$AAa?$AAr?$AAg?$AA?4?$AAx?$AA?5?$AA?$CB?$AA?$DN?$AA?5?$AA0@ DB 's'
	DB	00H, 'i', 00H, 'z', 00H, 'e', 00H, '_', 00H, 'a', 00H, 'r', 00H
	DB	'g', 00H, '.', 00H, 'x', 00H, ' ', 00H, '!', 00H, '=', 00H, ' '
	DB	00H, '0', 00H, '.', 00H, '0', 00H, 'f', 00H, ' ', 00H, '&', 00H
	DB	'&', 00H, ' ', 00H, 's', 00H, 'i', 00H, 'z', 00H, 'e', 00H, '_'
	DB	00H, 'a', 00H, 'r', 00H, 'g', 00H, '.', 00H, 'y', 00H, ' ', 00H
	DB	'!', 00H, '=', 00H, ' ', 00H, '0', 00H, '.', 00H, '0', 00H, 'f'
	DB	00H, 00H, 00H				; `string'
CONST	ENDS
;	COMDAT ?__LINE__Var@?0??InvisibleButton@ImGui@@YA_NPBDABUImVec2@@@Z@4JA
_DATA	SEGMENT
?__LINE__Var@?0??InvisibleButton@ImGui@@YA_NPBDABUImVec2@@@Z@4JA DD 0298H ; `ImGui::InvisibleButton'::`1'::__LINE__Var
_DATA	ENDS
;	COMDAT ??_C@_1BE@HMGDGFIB@?$AAt?$AAe?$AAx?$AAt?$AA?5?$AA?$CB?$AA?$DN?$AA?5?$AA0@
CONST	SEGMENT
??_C@_1BE@HMGDGFIB@?$AAt?$AAe?$AAx?$AAt?$AA?5?$AA?$CB?$AA?$DN?$AA?5?$AA0@ DB 't'
	DB	00H, 'e', 00H, 'x', 00H, 't', 00H, ' ', 00H, '!', 00H, '=', 00H
	DB	' ', 00H, '0', 00H, 00H, 00H			; `string'
CONST	ENDS
;	COMDAT ??_C@_1LG@NBNJEEME@?$AAD?$AA?3?$AA?2?$AAP?$AAr?$AAo?$AAg?$AAr?$AAa?$AAm?$AAm?$AAi?$AAe?$AAr?$AAe@
CONST	SEGMENT
??_C@_1LG@NBNJEEME@?$AAD?$AA?3?$AA?2?$AAP?$AAr?$AAo?$AAg?$AAr?$AAa?$AAm?$AAm?$AAi?$AAe?$AAr?$AAe@ DB 'D'
	DB	00H, ':', 00H, '\', 00H, 'P', 00H, 'r', 00H, 'o', 00H, 'g', 00H
	DB	'r', 00H, 'a', 00H, 'm', 00H, 'm', 00H, 'i', 00H, 'e', 00H, 'r'
	DB	00H, 'e', 00H, 'n', 00H, '\', 00H, 'c', 00H, 's', 00H, 'g', 00H
	DB	'o', 00H, 'H', 00H, 'a', 00H, 'c', 00H, 'k', 00H, '\', 00H, 'P'
	DB	00H, 'r', 00H, 'o', 00H, 'j', 00H, 'e', 00H, 'k', 00H, 't', 00H
	DB	'W', 00H, 'o', 00H, 'l', 00H, 'f', 00H, '\', 00H, 'I', 00H, 'm'
	DB	00H, 'G', 00H, 'u', 00H, 'i', 00H, ' ', 00H, 'D', 00H, 'i', 00H
	DB	'r', 00H, 'e', 00H, 'c', 00H, 't', 00H, 'X', 00H, ' ', 00H, '9'
	DB	00H, ' ', 00H, 'K', 00H, 'i', 00H, 'e', 00H, 'r', 00H, 'o', 00H
	DB	' ', 00H, 'H', 00H, 'o', 00H, 'o', 00H, 'k', 00H, ' ', 00H, '2'
	DB	00H, '\', 00H, 'i', 00H, 'm', 00H, 'g', 00H, 'u', 00H, 'i', 00H
	DB	'\', 00H, 'i', 00H, 'm', 00H, 'g', 00H, 'u', 00H, 'i', 00H, '_'
	DB	00H, 'w', 00H, 'i', 00H, 'd', 00H, 'g', 00H, 'e', 00H, 't', 00H
	DB	's', 00H, '.', 00H, 'c', 00H, 'p', 00H, 'p', 00H, 00H, 00H ; `string'
CONST	ENDS
;	COMDAT ?__LINE__Var@?0??TextEx@ImGui@@YAXPBD0H@Z@4JA
_DATA	SEGMENT
?__LINE__Var@?0??TextEx@ImGui@@YAXPBD0H@Z@4JA DD 084H	; `ImGui::TextEx'::`1'::__LINE__Var
_DATA	ENDS
;	COMDAT ??_C@_1HM@PJKJLKEH@?$AAt?$AAa?$AAb?$AA?9?$AA?$DO?$AAN?$AAa?$AAm?$AAe?$AAO?$AAf?$AAf?$AAs?$AAe?$AAt@
CONST	SEGMENT
??_C@_1HM@PJKJLKEH@?$AAt?$AAa?$AAb?$AA?9?$AA?$DO?$AAN?$AAa?$AAm?$AAe?$AAO?$AAf?$AAf?$AAs?$AAe?$AAt@ DB 't'
	DB	00H, 'a', 00H, 'b', 00H, '-', 00H, '>', 00H, 'N', 00H, 'a', 00H
	DB	'm', 00H, 'e', 00H, 'O', 00H, 'f', 00H, 'f', 00H, 's', 00H, 'e'
	DB	00H, 't', 00H, ' ', 00H, '!', 00H, '=', 00H, ' ', 00H, '-', 00H
	DB	'1', 00H, ' ', 00H, '&', 00H, '&', 00H, ' ', 00H, 't', 00H, 'a'
	DB	00H, 'b', 00H, '-', 00H, '>', 00H, 'N', 00H, 'a', 00H, 'm', 00H
	DB	'e', 00H, 'O', 00H, 'f', 00H, 'f', 00H, 's', 00H, 'e', 00H, 't'
	DB	00H, ' ', 00H, '<', 00H, ' ', 00H, 'T', 00H, 'a', 00H, 'b', 00H
	DB	's', 00H, 'N', 00H, 'a', 00H, 'm', 00H, 'e', 00H, 's', 00H, '.'
	DB	00H, 'B', 00H, 'u', 00H, 'f', 00H, '.', 00H, 'S', 00H, 'i', 00H
	DB	'z', 00H, 'e', 00H, 00H, 00H			; `string'
CONST	ENDS
;	COMDAT ??_C@_1LE@HAMNIKDF@?$AAD?$AA?3?$AA?2?$AAP?$AAr?$AAo?$AAg?$AAr?$AAa?$AAm?$AAm?$AAi?$AAe?$AAr?$AAe@
CONST	SEGMENT
??_C@_1LE@HAMNIKDF@?$AAD?$AA?3?$AA?2?$AAP?$AAr?$AAo?$AAg?$AAr?$AAa?$AAm?$AAm?$AAi?$AAe?$AAr?$AAe@ DB 'D'
	DB	00H, ':', 00H, '\', 00H, 'P', 00H, 'r', 00H, 'o', 00H, 'g', 00H
	DB	'r', 00H, 'a', 00H, 'm', 00H, 'm', 00H, 'i', 00H, 'e', 00H, 'r'
	DB	00H, 'e', 00H, 'n', 00H, '\', 00H, 'c', 00H, 's', 00H, 'g', 00H
	DB	'o', 00H, 'H', 00H, 'a', 00H, 'c', 00H, 'k', 00H, '\', 00H, 'P'
	DB	00H, 'r', 00H, 'o', 00H, 'j', 00H, 'e', 00H, 'k', 00H, 't', 00H
	DB	'W', 00H, 'o', 00H, 'l', 00H, 'f', 00H, '\', 00H, 'I', 00H, 'm'
	DB	00H, 'G', 00H, 'u', 00H, 'i', 00H, ' ', 00H, 'D', 00H, 'i', 00H
	DB	'r', 00H, 'e', 00H, 'c', 00H, 't', 00H, 'X', 00H, ' ', 00H, '9'
	DB	00H, ' ', 00H, 'K', 00H, 'i', 00H, 'e', 00H, 'r', 00H, 'o', 00H
	DB	' ', 00H, 'H', 00H, 'o', 00H, 'o', 00H, 'k', 00H, ' ', 00H, '2'
	DB	00H, '\', 00H, 'i', 00H, 'm', 00H, 'g', 00H, 'u', 00H, 'i', 00H
	DB	'\', 00H, 'i', 00H, 'm', 00H, 'g', 00H, 'u', 00H, 'i', 00H, '_'
	DB	00H, 'i', 00H, 'n', 00H, 't', 00H, 'e', 00H, 'r', 00H, 'n', 00H
	DB	'a', 00H, 'l', 00H, '.', 00H, 'h', 00H, 00H, 00H ; `string'
CONST	ENDS
;	COMDAT ??_C@_1CC@IHACEFEE@?$AAI?$AAt?$AAe?$AAm?$AAs?$AAC?$AAo?$AAu?$AAn?$AAt?$AA?5?$AA?$DN?$AA?$DN?$AA?5?$AA?9@
CONST	SEGMENT
??_C@_1CC@IHACEFEE@?$AAI?$AAt?$AAe?$AAm?$AAs?$AAC?$AAo?$AAu?$AAn?$AAt?$AA?5?$AA?$DN?$AA?$DN?$AA?5?$AA?9@ DB 'I'
	DB	00H, 't', 00H, 'e', 00H, 'm', 00H, 's', 00H, 'C', 00H, 'o', 00H
	DB	'u', 00H, 'n', 00H, 't', 00H, ' ', 00H, '=', 00H, '=', 00H, ' '
	DB	00H, '-', 00H, '1', 00H, 00H, 00H		; `string'
CONST	ENDS
;	COMDAT ??_C@_13COJANIEC@?$AA0@
CONST	SEGMENT
??_C@_13COJANIEC@?$AA0@ DB '0', 00H, 00H, 00H		; `string'
CONST	ENDS
;	COMDAT ??_C@_1BC@IIGHOJGM@?$AAi?$AAd?$AAx?$AA?5?$AA?$DM?$AA?$DN?$AA?5?$AA1@
CONST	SEGMENT
??_C@_1BC@IIGHOJGM@?$AAi?$AAd?$AAx?$AA?5?$AA?$DM?$AA?$DN?$AA?5?$AA1@ DB 'i'
	DB	00H, 'd', 00H, 'x', 00H, ' ', 00H, '<', 00H, '=', 00H, ' ', 00H
	DB	'1', 00H, 00H, 00H				; `string'
CONST	ENDS
;	COMDAT ??_C@_1KC@LHOPDKO@?$AAD?$AA?3?$AA?2?$AAP?$AAr?$AAo?$AAg?$AAr?$AAa?$AAm?$AAm?$AAi?$AAe?$AAr?$AAe@
CONST	SEGMENT
??_C@_1KC@LHOPDKO@?$AAD?$AA?3?$AA?2?$AAP?$AAr?$AAo?$AAg?$AAr?$AAa?$AAm?$AAm?$AAi?$AAe?$AAr?$AAe@ DB 'D'
	DB	00H, ':', 00H, '\', 00H, 'P', 00H, 'r', 00H, 'o', 00H, 'g', 00H
	DB	'r', 00H, 'a', 00H, 'm', 00H, 'm', 00H, 'i', 00H, 'e', 00H, 'r'
	DB	00H, 'e', 00H, 'n', 00H, '\', 00H, 'c', 00H, 's', 00H, 'g', 00H
	DB	'o', 00H, 'H', 00H, 'a', 00H, 'c', 00H, 'k', 00H, '\', 00H, 'P'
	DB	00H, 'r', 00H, 'o', 00H, 'j', 00H, 'e', 00H, 'k', 00H, 't', 00H
	DB	'W', 00H, 'o', 00H, 'l', 00H, 'f', 00H, '\', 00H, 'I', 00H, 'm'
	DB	00H, 'G', 00H, 'u', 00H, 'i', 00H, ' ', 00H, 'D', 00H, 'i', 00H
	DB	'r', 00H, 'e', 00H, 'c', 00H, 't', 00H, 'X', 00H, ' ', 00H, '9'
	DB	00H, ' ', 00H, 'K', 00H, 'i', 00H, 'e', 00H, 'r', 00H, 'o', 00H
	DB	' ', 00H, 'H', 00H, 'o', 00H, 'o', 00H, 'k', 00H, ' ', 00H, '2'
	DB	00H, '\', 00H, 'i', 00H, 'm', 00H, 'g', 00H, 'u', 00H, 'i', 00H
	DB	'\', 00H, 'i', 00H, 'm', 00H, 'g', 00H, 'u', 00H, 'i', 00H, '.'
	DB	00H, 'h', 00H, 00H, 00H			; `string'
CONST	ENDS
;	COMDAT xdata$x
xdata$x	SEGMENT
__unwindtable$?FindOrCreateColumns@ImGui@@YAPAUImGuiColumns@@PAUImGuiWindow@@I@Z DD 0ffffffffH
	DD	FLAT:__unwindfunclet$?FindOrCreateColumns@ImGui@@YAPAUImGuiColumns@@PAUImGuiWindow@@I@Z$0
__ehfuncinfo$?FindOrCreateColumns@ImGui@@YAPAUImGuiColumns@@PAUImGuiWindow@@I@Z DD 019930522H
	DD	01H
	DD	FLAT:__unwindtable$?FindOrCreateColumns@ImGui@@YAPAUImGuiColumns@@PAUImGuiWindow@@I@Z
	DD	2 DUP(00H)
	DD	2 DUP(00H)
	DD	00H
	DD	01H
xdata$x	ENDS
;	COMDAT xdata$x
xdata$x	SEGMENT
__unwindtable$??0ImGuiTabBar@@QAE@XZ DD 0ffffffffH
	DD	FLAT:__unwindfunclet$??0ImGuiTabBar@@QAE@XZ$0
__ehfuncinfo$??0ImGuiTabBar@@QAE@XZ DD 019930522H
	DD	01H
	DD	FLAT:__unwindtable$??0ImGuiTabBar@@QAE@XZ
	DD	2 DUP(00H)
	DD	2 DUP(00H)
	DD	00H
	DD	01H
xdata$x	ENDS
;	COMDAT xdata$x
xdata$x	SEGMENT
__ehfuncinfo$??1?$ImVector@UImGuiTabItem@@@@QAE@XZ DD 019930522H
	DD	00H
	DD	00H
	DD	2 DUP(00H)
	DD	2 DUP(00H)
	DD	00H
	DD	05H
xdata$x	ENDS
;	COMDAT xdata$x
xdata$x	SEGMENT
__unwindtable$?Add@?$ImPool@UImGuiTabBar@@@@QAEPAUImGuiTabBar@@XZ DD 0ffffffffH
	DD	FLAT:__unwindfunclet$?Add@?$ImPool@UImGuiTabBar@@@@QAEPAUImGuiTabBar@@XZ$0
__ehfuncinfo$?Add@?$ImPool@UImGuiTabBar@@@@QAEPAUImGuiTabBar@@XZ DD 019930522H
	DD	01H
	DD	FLAT:__unwindtable$?Add@?$ImPool@UImGuiTabBar@@@@QAEPAUImGuiTabBar@@XZ
	DD	2 DUP(00H)
	DD	2 DUP(00H)
	DD	00H
	DD	01H
xdata$x	ENDS
;	COMDAT xdata$x
xdata$x	SEGMENT
__unwindtable$??0ImGuiColumns@@QAE@XZ DD 0ffffffffH
	DD	FLAT:__unwindfunclet$??0ImGuiColumns@@QAE@XZ$0
__ehfuncinfo$??0ImGuiColumns@@QAE@XZ DD 019930522H
	DD	01H
	DD	FLAT:__unwindtable$??0ImGuiColumns@@QAE@XZ
	DD	2 DUP(00H)
	DD	2 DUP(00H)
	DD	00H
	DD	01H
xdata$x	ENDS
;	COMDAT xdata$x
xdata$x	SEGMENT
__ehfuncinfo$??1?$ImVector@UImGuiColumnData@@@@QAE@XZ DD 019930522H
	DD	00H
	DD	00H
	DD	2 DUP(00H)
	DD	2 DUP(00H)
	DD	00H
	DD	05H
xdata$x	ENDS
;	COMDAT xdata$x
xdata$x	SEGMENT
__ehfuncinfo$??1ImGuiListClipper@@QAE@XZ DD 019930522H
	DD	00H
	DD	00H
	DD	2 DUP(00H)
	DD	2 DUP(00H)
	DD	00H
	DD	05H
xdata$x	ENDS
;	COMDAT xdata$x
xdata$x	SEGMENT
__ehfuncinfo$??3@YAXPAXUImNewDummy@@0@Z DD 019930522H
	DD	00H
	DD	00H
	DD	2 DUP(00H)
	DD	2 DUP(00H)
	DD	00H
	DD	05H
xdata$x	ENDS
;	COMDAT xdata$x
xdata$x	SEGMENT
__unwindtable$?ListBox@ImGui@@YA_NPBDPAHP6A_NPAXHPAPBD@Z2HH@Z DD 0ffffffffH
	DD	FLAT:__unwindfunclet$?ListBox@ImGui@@YA_NPBDPAHP6A_NPAXHPAPBD@Z2HH@Z$0
__ehfuncinfo$?ListBox@ImGui@@YA_NPBDPAHP6A_NPAXHPAPBD@Z2HH@Z DD 019930522H
	DD	01H
	DD	FLAT:__unwindtable$?ListBox@ImGui@@YA_NPBDPAHP6A_NPAXHPAPBD@Z2HH@Z
	DD	2 DUP(00H)
	DD	2 DUP(00H)
	DD	00H
	DD	01H
xdata$x	ENDS
; Function compile flags: /Odt
;	COMDAT __JustMyCode_Default
_TEXT	SEGMENT
__JustMyCode_Default PROC				; COMDAT
  00000	55		 push	 ebp
  00001	8b ec		 mov	 ebp, esp
  00003	5d		 pop	 ebp
  00004	c3		 ret	 0
__JustMyCode_Default ENDP
_TEXT	ENDS
; Function compile flags: /Odtp /RTCsu /ZI
; File D:\Programmieren\csgoHack\ProjektWolf\ImGui DirectX 9 Kiero Hook 2\imgui\imgui_internal.h
;	COMDAT ??$ImClamp@N@@YANNNN@Z
_TEXT	SEGMENT
tv66 = -208						; size = 8
tv67 = -200						; size = 8
_v$ = 8							; size = 8
_mn$ = 16						; size = 8
_mx$ = 24						; size = 8
??$ImClamp@N@@YANNNN@Z PROC				; ImClamp<double>, COMDAT

; 316  : template<typename T> static inline T ImClamp(T v, T mn, T mx)                   { return (v < mn) ? mn : (v > mx) ? mx : v; }

  00000	55		 push	 ebp
  00001	8b ec		 mov	 ebp, esp
  00003	81 ec d0 00 00
	00		 sub	 esp, 208		; 000000d0H
  00009	53		 push	 ebx
  0000a	56		 push	 esi
  0000b	57		 push	 edi
  0000c	8d bd 30 ff ff
	ff		 lea	 edi, DWORD PTR [ebp-208]
  00012	b9 34 00 00 00	 mov	 ecx, 52			; 00000034H
  00017	b8 cc cc cc cc	 mov	 eax, -858993460		; ccccccccH
  0001c	f3 ab		 rep stosd
  0001e	b9 00 00 00 00	 mov	 ecx, OFFSET __71512A68_imgui_internal@h
  00023	e8 00 00 00 00	 call	 @__CheckForDebuggerJustMyCode@4
  00028	f2 0f 10 45 10	 movsd	 xmm0, QWORD PTR _mn$[ebp]
  0002d	66 0f 2f 45 08	 comisd	 xmm0, QWORD PTR _v$[ebp]
  00032	76 0f		 jbe	 SHORT $LN5@ImClamp
  00034	f2 0f 10 45 10	 movsd	 xmm0, QWORD PTR _mn$[ebp]
  00039	f2 0f 11 85 38
	ff ff ff	 movsd	 QWORD PTR tv67[ebp], xmm0
  00041	eb 38		 jmp	 SHORT $LN6@ImClamp
$LN5@ImClamp:
  00043	f2 0f 10 45 08	 movsd	 xmm0, QWORD PTR _v$[ebp]
  00048	66 0f 2f 45 18	 comisd	 xmm0, QWORD PTR _mx$[ebp]
  0004d	76 0f		 jbe	 SHORT $LN3@ImClamp
  0004f	f2 0f 10 45 18	 movsd	 xmm0, QWORD PTR _mx$[ebp]
  00054	f2 0f 11 85 30
	ff ff ff	 movsd	 QWORD PTR tv66[ebp], xmm0
  0005c	eb 0d		 jmp	 SHORT $LN4@ImClamp
$LN3@ImClamp:
  0005e	f2 0f 10 45 08	 movsd	 xmm0, QWORD PTR _v$[ebp]
  00063	f2 0f 11 85 30
	ff ff ff	 movsd	 QWORD PTR tv66[ebp], xmm0
$LN4@ImClamp:
  0006b	f2 0f 10 85 30
	ff ff ff	 movsd	 xmm0, QWORD PTR tv66[ebp]
  00073	f2 0f 11 85 38
	ff ff ff	 movsd	 QWORD PTR tv67[ebp], xmm0
$LN6@ImClamp:
  0007b	dd 85 38 ff ff
	ff		 fld	 QWORD PTR tv67[ebp]
  00081	5f		 pop	 edi
  00082	5e		 pop	 esi
  00083	5b		 pop	 ebx
  00084	81 c4 d0 00 00
	00		 add	 esp, 208		; 000000d0H
  0008a	3b ec		 cmp	 ebp, esp
  0008c	e8 00 00 00 00	 call	 __RTC_CheckEsp
  00091	8b e5		 mov	 esp, ebp
  00093	5d		 pop	 ebp
  00094	c3		 ret	 0
??$ImClamp@N@@YANNNN@Z ENDP				; ImClamp<double>
_TEXT	ENDS
; Function compile flags: /Odtp /RTCsu /ZI
; File D:\Programmieren\csgoHack\ProjektWolf\ImGui DirectX 9 Kiero Hook 2\imgui\imgui_internal.h
;	COMDAT ??$ImClamp@_K@@YA_K_K00@Z
_TEXT	SEGMENT
tv66 = -208						; size = 8
tv67 = -200						; size = 8
_v$ = 8							; size = 8
_mn$ = 16						; size = 8
_mx$ = 24						; size = 8
??$ImClamp@_K@@YA_K_K00@Z PROC				; ImClamp<unsigned __int64>, COMDAT

; 316  : template<typename T> static inline T ImClamp(T v, T mn, T mx)                   { return (v < mn) ? mn : (v > mx) ? mx : v; }

  00000	55		 push	 ebp
  00001	8b ec		 mov	 ebp, esp
  00003	81 ec d0 00 00
	00		 sub	 esp, 208		; 000000d0H
  00009	53		 push	 ebx
  0000a	56		 push	 esi
  0000b	57		 push	 edi
  0000c	8d bd 30 ff ff
	ff		 lea	 edi, DWORD PTR [ebp-208]
  00012	b9 34 00 00 00	 mov	 ecx, 52			; 00000034H
  00017	b8 cc cc cc cc	 mov	 eax, -858993460		; ccccccccH
  0001c	f3 ab		 rep stosd
  0001e	b9 00 00 00 00	 mov	 ecx, OFFSET __71512A68_imgui_internal@h
  00023	e8 00 00 00 00	 call	 @__CheckForDebuggerJustMyCode@4
  00028	8b 45 0c	 mov	 eax, DWORD PTR _v$[ebp+4]
  0002b	3b 45 14	 cmp	 eax, DWORD PTR _mn$[ebp+4]
  0002e	77 1e		 ja	 SHORT $LN5@ImClamp
  00030	72 08		 jb	 SHORT $LN7@ImClamp
  00032	8b 4d 08	 mov	 ecx, DWORD PTR _v$[ebp]
  00035	3b 4d 10	 cmp	 ecx, DWORD PTR _mn$[ebp]
  00038	73 14		 jae	 SHORT $LN5@ImClamp
$LN7@ImClamp:
  0003a	8b 55 10	 mov	 edx, DWORD PTR _mn$[ebp]
  0003d	89 95 38 ff ff
	ff		 mov	 DWORD PTR tv67[ebp], edx
  00043	8b 45 14	 mov	 eax, DWORD PTR _mn$[ebp+4]
  00046	89 85 3c ff ff
	ff		 mov	 DWORD PTR tv67[ebp+4], eax
  0004c	eb 50		 jmp	 SHORT $LN6@ImClamp
$LN5@ImClamp:
  0004e	8b 4d 0c	 mov	 ecx, DWORD PTR _v$[ebp+4]
  00051	3b 4d 1c	 cmp	 ecx, DWORD PTR _mx$[ebp+4]
  00054	72 1e		 jb	 SHORT $LN3@ImClamp
  00056	77 08		 ja	 SHORT $LN8@ImClamp
  00058	8b 55 08	 mov	 edx, DWORD PTR _v$[ebp]
  0005b	3b 55 18	 cmp	 edx, DWORD PTR _mx$[ebp]
  0005e	76 14		 jbe	 SHORT $LN3@ImClamp
$LN8@ImClamp:
  00060	8b 45 18	 mov	 eax, DWORD PTR _mx$[ebp]
  00063	89 85 30 ff ff
	ff		 mov	 DWORD PTR tv66[ebp], eax
  00069	8b 4d 1c	 mov	 ecx, DWORD PTR _mx$[ebp+4]
  0006c	89 8d 34 ff ff
	ff		 mov	 DWORD PTR tv66[ebp+4], ecx
  00072	eb 12		 jmp	 SHORT $LN4@ImClamp
$LN3@ImClamp:
  00074	8b 55 08	 mov	 edx, DWORD PTR _v$[ebp]
  00077	89 95 30 ff ff
	ff		 mov	 DWORD PTR tv66[ebp], edx
  0007d	8b 45 0c	 mov	 eax, DWORD PTR _v$[ebp+4]
  00080	89 85 34 ff ff
	ff		 mov	 DWORD PTR tv66[ebp+4], eax
$LN4@ImClamp:
  00086	8b 8d 30 ff ff
	ff		 mov	 ecx, DWORD PTR tv66[ebp]
  0008c	89 8d 38 ff ff
	ff		 mov	 DWORD PTR tv67[ebp], ecx
  00092	8b 95 34 ff ff
	ff		 mov	 edx, DWORD PTR tv66[ebp+4]
  00098	89 95 3c ff ff
	ff		 mov	 DWORD PTR tv67[ebp+4], edx
$LN6@ImClamp:
  0009e	8b 85 38 ff ff
	ff		 mov	 eax, DWORD PTR tv67[ebp]
  000a4	8b 95 3c ff ff
	ff		 mov	 edx, DWORD PTR tv67[ebp+4]
  000aa	5f		 pop	 edi
  000ab	5e		 pop	 esi
  000ac	5b		 pop	 ebx
  000ad	81 c4 d0 00 00
	00		 add	 esp, 208		; 000000d0H
  000b3	3b ec		 cmp	 ebp, esp
  000b5	e8 00 00 00 00	 call	 __RTC_CheckEsp
  000ba	8b e5		 mov	 esp, ebp
  000bc	5d		 pop	 ebp
  000bd	c3		 ret	 0
??$ImClamp@_K@@YA_K_K00@Z ENDP				; ImClamp<unsigned __int64>
_TEXT	ENDS
; Function compile flags: /Odtp /RTCsu /ZI
; File D:\Programmieren\csgoHack\ProjektWolf\ImGui DirectX 9 Kiero Hook 2\imgui\imgui_internal.h
;	COMDAT ??$ImClamp@_J@@YA_J_J00@Z
_TEXT	SEGMENT
tv66 = -208						; size = 8
tv67 = -200						; size = 8
_v$ = 8							; size = 8
_mn$ = 16						; size = 8
_mx$ = 24						; size = 8
??$ImClamp@_J@@YA_J_J00@Z PROC				; ImClamp<__int64>, COMDAT

; 316  : template<typename T> static inline T ImClamp(T v, T mn, T mx)                   { return (v < mn) ? mn : (v > mx) ? mx : v; }

  00000	55		 push	 ebp
  00001	8b ec		 mov	 ebp, esp
  00003	81 ec d0 00 00
	00		 sub	 esp, 208		; 000000d0H
  00009	53		 push	 ebx
  0000a	56		 push	 esi
  0000b	57		 push	 edi
  0000c	8d bd 30 ff ff
	ff		 lea	 edi, DWORD PTR [ebp-208]
  00012	b9 34 00 00 00	 mov	 ecx, 52			; 00000034H
  00017	b8 cc cc cc cc	 mov	 eax, -858993460		; ccccccccH
  0001c	f3 ab		 rep stosd
  0001e	b9 00 00 00 00	 mov	 ecx, OFFSET __71512A68_imgui_internal@h
  00023	e8 00 00 00 00	 call	 @__CheckForDebuggerJustMyCode@4
  00028	8b 45 0c	 mov	 eax, DWORD PTR _v$[ebp+4]
  0002b	3b 45 14	 cmp	 eax, DWORD PTR _mn$[ebp+4]
  0002e	7f 1e		 jg	 SHORT $LN5@ImClamp
  00030	7c 08		 jl	 SHORT $LN7@ImClamp
  00032	8b 4d 08	 mov	 ecx, DWORD PTR _v$[ebp]
  00035	3b 4d 10	 cmp	 ecx, DWORD PTR _mn$[ebp]
  00038	73 14		 jae	 SHORT $LN5@ImClamp
$LN7@ImClamp:
  0003a	8b 55 10	 mov	 edx, DWORD PTR _mn$[ebp]
  0003d	89 95 38 ff ff
	ff		 mov	 DWORD PTR tv67[ebp], edx
  00043	8b 45 14	 mov	 eax, DWORD PTR _mn$[ebp+4]
  00046	89 85 3c ff ff
	ff		 mov	 DWORD PTR tv67[ebp+4], eax
  0004c	eb 50		 jmp	 SHORT $LN6@ImClamp
$LN5@ImClamp:
  0004e	8b 4d 0c	 mov	 ecx, DWORD PTR _v$[ebp+4]
  00051	3b 4d 1c	 cmp	 ecx, DWORD PTR _mx$[ebp+4]
  00054	7c 1e		 jl	 SHORT $LN3@ImClamp
  00056	7f 08		 jg	 SHORT $LN8@ImClamp
  00058	8b 55 08	 mov	 edx, DWORD PTR _v$[ebp]
  0005b	3b 55 18	 cmp	 edx, DWORD PTR _mx$[ebp]
  0005e	76 14		 jbe	 SHORT $LN3@ImClamp
$LN8@ImClamp:
  00060	8b 45 18	 mov	 eax, DWORD PTR _mx$[ebp]
  00063	89 85 30 ff ff
	ff		 mov	 DWORD PTR tv66[ebp], eax
  00069	8b 4d 1c	 mov	 ecx, DWORD PTR _mx$[ebp+4]
  0006c	89 8d 34 ff ff
	ff		 mov	 DWORD PTR tv66[ebp+4], ecx
  00072	eb 12		 jmp	 SHORT $LN4@ImClamp
$LN3@ImClamp:
  00074	8b 55 08	 mov	 edx, DWORD PTR _v$[ebp]
  00077	89 95 30 ff ff
	ff		 mov	 DWORD PTR tv66[ebp], edx
  0007d	8b 45 0c	 mov	 eax, DWORD PTR _v$[ebp+4]
  00080	89 85 34 ff ff
	ff		 mov	 DWORD PTR tv66[ebp+4], eax
$LN4@ImClamp:
  00086	8b 8d 30 ff ff
	ff		 mov	 ecx, DWORD PTR tv66[ebp]
  0008c	89 8d 38 ff ff
	ff		 mov	 DWORD PTR tv67[ebp], ecx
  00092	8b 95 34 ff ff
	ff		 mov	 edx, DWORD PTR tv66[ebp+4]
  00098	89 95 3c ff ff
	ff		 mov	 DWORD PTR tv67[ebp+4], edx
$LN6@ImClamp:
  0009e	8b 85 38 ff ff
	ff		 mov	 eax, DWORD PTR tv67[ebp]
  000a4	8b 95 3c ff ff
	ff		 mov	 edx, DWORD PTR tv67[ebp+4]
  000aa	5f		 pop	 edi
  000ab	5e		 pop	 esi
  000ac	5b		 pop	 ebx
  000ad	81 c4 d0 00 00
	00		 add	 esp, 208		; 000000d0H
  000b3	3b ec		 cmp	 ebp, esp
  000b5	e8 00 00 00 00	 call	 __RTC_CheckEsp
  000ba	8b e5		 mov	 esp, ebp
  000bc	5d		 pop	 ebp
  000bd	c3		 ret	 0
??$ImClamp@_J@@YA_J_J00@Z ENDP				; ImClamp<__int64>
_TEXT	ENDS
; Function compile flags: /Odtp /RTCsu /ZI
; File D:\Programmieren\csgoHack\ProjektWolf\ImGui DirectX 9 Kiero Hook 2\imgui\imgui_internal.h
;	COMDAT ??$ImClamp@I@@YAIIII@Z
_TEXT	SEGMENT
tv66 = -200						; size = 4
tv67 = -196						; size = 4
_v$ = 8							; size = 4
_mn$ = 12						; size = 4
_mx$ = 16						; size = 4
??$ImClamp@I@@YAIIII@Z PROC				; ImClamp<unsigned int>, COMDAT

; 316  : template<typename T> static inline T ImClamp(T v, T mn, T mx)                   { return (v < mn) ? mn : (v > mx) ? mx : v; }

  00000	55		 push	 ebp
  00001	8b ec		 mov	 ebp, esp
  00003	81 ec c8 00 00
	00		 sub	 esp, 200		; 000000c8H
  00009	53		 push	 ebx
  0000a	56		 push	 esi
  0000b	57		 push	 edi
  0000c	8d bd 38 ff ff
	ff		 lea	 edi, DWORD PTR [ebp-200]
  00012	b9 32 00 00 00	 mov	 ecx, 50			; 00000032H
  00017	b8 cc cc cc cc	 mov	 eax, -858993460		; ccccccccH
  0001c	f3 ab		 rep stosd
  0001e	b9 00 00 00 00	 mov	 ecx, OFFSET __71512A68_imgui_internal@h
  00023	e8 00 00 00 00	 call	 @__CheckForDebuggerJustMyCode@4
  00028	8b 45 08	 mov	 eax, DWORD PTR _v$[ebp]
  0002b	3b 45 0c	 cmp	 eax, DWORD PTR _mn$[ebp]
  0002e	73 0b		 jae	 SHORT $LN5@ImClamp
  00030	8b 4d 0c	 mov	 ecx, DWORD PTR _mn$[ebp]
  00033	89 8d 3c ff ff
	ff		 mov	 DWORD PTR tv67[ebp], ecx
  00039	eb 28		 jmp	 SHORT $LN6@ImClamp
$LN5@ImClamp:
  0003b	8b 55 08	 mov	 edx, DWORD PTR _v$[ebp]
  0003e	3b 55 10	 cmp	 edx, DWORD PTR _mx$[ebp]
  00041	76 0b		 jbe	 SHORT $LN3@ImClamp
  00043	8b 45 10	 mov	 eax, DWORD PTR _mx$[ebp]
  00046	89 85 38 ff ff
	ff		 mov	 DWORD PTR tv66[ebp], eax
  0004c	eb 09		 jmp	 SHORT $LN4@ImClamp
$LN3@ImClamp:
  0004e	8b 4d 08	 mov	 ecx, DWORD PTR _v$[ebp]
  00051	89 8d 38 ff ff
	ff		 mov	 DWORD PTR tv66[ebp], ecx
$LN4@ImClamp:
  00057	8b 95 38 ff ff
	ff		 mov	 edx, DWORD PTR tv66[ebp]
  0005d	89 95 3c ff ff
	ff		 mov	 DWORD PTR tv67[ebp], edx
$LN6@ImClamp:
  00063	8b 85 3c ff ff
	ff		 mov	 eax, DWORD PTR tv67[ebp]
  00069	5f		 pop	 edi
  0006a	5e		 pop	 esi
  0006b	5b		 pop	 ebx
  0006c	81 c4 c8 00 00
	00		 add	 esp, 200		; 000000c8H
  00072	3b ec		 cmp	 ebp, esp
  00074	e8 00 00 00 00	 call	 __RTC_CheckEsp
  00079	8b e5		 mov	 esp, ebp
  0007b	5d		 pop	 ebp
  0007c	c3		 ret	 0
??$ImClamp@I@@YAIIII@Z ENDP				; ImClamp<unsigned int>
_TEXT	ENDS
; Function compile flags: /Odtp /RTCsu /ZI
; File D:\Programmieren\csgoHack\ProjektWolf\ImGui DirectX 9 Kiero Hook 2\imgui\imgui_widgets.cpp
;	COMDAT ??$ImAtoi@N@@YAPBDPBDPAN@Z
_TEXT	SEGMENT
tv82 = -228						; size = 8
_v$ = -24						; size = 8
_negative$ = -8						; size = 4
_src$ = 8						; size = 4
_output$ = 12						; size = 4
??$ImAtoi@N@@YAPBDPBDPAN@Z PROC				; ImAtoi<double>, COMDAT

; 1870 : {

  00000	55		 push	 ebp
  00001	8b ec		 mov	 ebp, esp
  00003	81 ec e4 00 00
	00		 sub	 esp, 228		; 000000e4H
  00009	53		 push	 ebx
  0000a	56		 push	 esi
  0000b	57		 push	 edi
  0000c	8d bd 1c ff ff
	ff		 lea	 edi, DWORD PTR [ebp-228]
  00012	b9 39 00 00 00	 mov	 ecx, 57			; 00000039H
  00017	b8 cc cc cc cc	 mov	 eax, -858993460		; ccccccccH
  0001c	f3 ab		 rep stosd
  0001e	b9 00 00 00 00	 mov	 ecx, OFFSET __32F429E7_imgui_widgets@cpp
  00023	e8 00 00 00 00	 call	 @__CheckForDebuggerJustMyCode@4

; 1871 :     int negative = 0;

  00028	c7 45 f8 00 00
	00 00		 mov	 DWORD PTR _negative$[ebp], 0

; 1872 :     if (*src == '-') { negative = 1; src++; }

  0002f	8b 45 08	 mov	 eax, DWORD PTR _src$[ebp]
  00032	0f be 08	 movsx	 ecx, BYTE PTR [eax]
  00035	83 f9 2d	 cmp	 ecx, 45			; 0000002dH
  00038	75 10		 jne	 SHORT $LN4@ImAtoi
  0003a	c7 45 f8 01 00
	00 00		 mov	 DWORD PTR _negative$[ebp], 1
  00041	8b 45 08	 mov	 eax, DWORD PTR _src$[ebp]
  00044	83 c0 01	 add	 eax, 1
  00047	89 45 08	 mov	 DWORD PTR _src$[ebp], eax
$LN4@ImAtoi:

; 1873 :     if (*src == '+') { src++; }

  0004a	8b 45 08	 mov	 eax, DWORD PTR _src$[ebp]
  0004d	0f be 08	 movsx	 ecx, BYTE PTR [eax]
  00050	83 f9 2b	 cmp	 ecx, 43			; 0000002bH
  00053	75 09		 jne	 SHORT $LN5@ImAtoi
  00055	8b 45 08	 mov	 eax, DWORD PTR _src$[ebp]
  00058	83 c0 01	 add	 eax, 1
  0005b	89 45 08	 mov	 DWORD PTR _src$[ebp], eax
$LN5@ImAtoi:

; 1874 :     TYPE v = 0;

  0005e	0f 57 c0	 xorps	 xmm0, xmm0
  00061	f2 0f 11 45 e8	 movsd	 QWORD PTR _v$[ebp], xmm0
$LN2@ImAtoi:

; 1875 :     while (*src >= '0' && *src <= '9')

  00066	8b 45 08	 mov	 eax, DWORD PTR _src$[ebp]
  00069	0f be 08	 movsx	 ecx, BYTE PTR [eax]
  0006c	83 f9 30	 cmp	 ecx, 48			; 00000030H
  0006f	7c 39		 jl	 SHORT $LN3@ImAtoi
  00071	8b 45 08	 mov	 eax, DWORD PTR _src$[ebp]
  00074	0f be 08	 movsx	 ecx, BYTE PTR [eax]
  00077	83 f9 39	 cmp	 ecx, 57			; 00000039H
  0007a	7f 2e		 jg	 SHORT $LN3@ImAtoi

; 1876 :         v = (v * 10) + (*src++ - '0');

  0007c	f2 0f 10 45 e8	 movsd	 xmm0, QWORD PTR _v$[ebp]
  00081	f2 0f 59 05 00
	00 00 00	 mulsd	 xmm0, QWORD PTR __real@4024000000000000
  00089	8b 45 08	 mov	 eax, DWORD PTR _src$[ebp]
  0008c	0f be 08	 movsx	 ecx, BYTE PTR [eax]
  0008f	83 e9 30	 sub	 ecx, 48			; 00000030H
  00092	f2 0f 2a c9	 cvtsi2sd xmm1, ecx
  00096	f2 0f 58 c1	 addsd	 xmm0, xmm1
  0009a	f2 0f 11 45 e8	 movsd	 QWORD PTR _v$[ebp], xmm0
  0009f	8b 55 08	 mov	 edx, DWORD PTR _src$[ebp]
  000a2	83 c2 01	 add	 edx, 1
  000a5	89 55 08	 mov	 DWORD PTR _src$[ebp], edx
  000a8	eb bc		 jmp	 SHORT $LN2@ImAtoi
$LN3@ImAtoi:

; 1877 :     *output = negative ? -v : v;

  000aa	83 7d f8 00	 cmp	 DWORD PTR _negative$[ebp], 0
  000ae	74 16		 je	 SHORT $LN7@ImAtoi
  000b0	f2 0f 10 45 e8	 movsd	 xmm0, QWORD PTR _v$[ebp]
  000b5	0f 57 05 00 00
	00 00		 xorps	 xmm0, QWORD PTR __xmm@80000000000000008000000000000000
  000bc	f2 0f 11 85 1c
	ff ff ff	 movsd	 QWORD PTR tv82[ebp], xmm0
  000c4	eb 0d		 jmp	 SHORT $LN8@ImAtoi
$LN7@ImAtoi:
  000c6	f2 0f 10 45 e8	 movsd	 xmm0, QWORD PTR _v$[ebp]
  000cb	f2 0f 11 85 1c
	ff ff ff	 movsd	 QWORD PTR tv82[ebp], xmm0
$LN8@ImAtoi:
  000d3	8b 45 0c	 mov	 eax, DWORD PTR _output$[ebp]
  000d6	f2 0f 10 85 1c
	ff ff ff	 movsd	 xmm0, QWORD PTR tv82[ebp]
  000de	f2 0f 11 00	 movsd	 QWORD PTR [eax], xmm0

; 1878 :     return src;

  000e2	8b 45 08	 mov	 eax, DWORD PTR _src$[ebp]

; 1879 : }

  000e5	5f		 pop	 edi
  000e6	5e		 pop	 esi
  000e7	5b		 pop	 ebx
  000e8	81 c4 e4 00 00
	00		 add	 esp, 228		; 000000e4H
  000ee	3b ec		 cmp	 ebp, esp
  000f0	e8 00 00 00 00	 call	 __RTC_CheckEsp
  000f5	8b e5		 mov	 esp, ebp
  000f7	5d		 pop	 ebp
  000f8	c3		 ret	 0
??$ImAtoi@N@@YAPBDPBDPAN@Z ENDP				; ImAtoi<double>
_TEXT	ENDS
; Function compile flags: /Odtp /RTCsu /ZI
; File D:\Programmieren\csgoHack\ProjektWolf\ImGui DirectX 9 Kiero Hook 2\imgui\imgui_widgets.cpp
;	COMDAT ??$ImAtoi@M@@YAPBDPBDPAM@Z
_TEXT	SEGMENT
tv82 = -220						; size = 4
_v$ = -20						; size = 4
_negative$ = -8						; size = 4
_src$ = 8						; size = 4
_output$ = 12						; size = 4
??$ImAtoi@M@@YAPBDPBDPAM@Z PROC				; ImAtoi<float>, COMDAT

; 1870 : {

  00000	55		 push	 ebp
  00001	8b ec		 mov	 ebp, esp
  00003	81 ec dc 00 00
	00		 sub	 esp, 220		; 000000dcH
  00009	53		 push	 ebx
  0000a	56		 push	 esi
  0000b	57		 push	 edi
  0000c	8d bd 24 ff ff
	ff		 lea	 edi, DWORD PTR [ebp-220]
  00012	b9 37 00 00 00	 mov	 ecx, 55			; 00000037H
  00017	b8 cc cc cc cc	 mov	 eax, -858993460		; ccccccccH
  0001c	f3 ab		 rep stosd
  0001e	b9 00 00 00 00	 mov	 ecx, OFFSET __32F429E7_imgui_widgets@cpp
  00023	e8 00 00 00 00	 call	 @__CheckForDebuggerJustMyCode@4

; 1871 :     int negative = 0;

  00028	c7 45 f8 00 00
	00 00		 mov	 DWORD PTR _negative$[ebp], 0

; 1872 :     if (*src == '-') { negative = 1; src++; }

  0002f	8b 45 08	 mov	 eax, DWORD PTR _src$[ebp]
  00032	0f be 08	 movsx	 ecx, BYTE PTR [eax]
  00035	83 f9 2d	 cmp	 ecx, 45			; 0000002dH
  00038	75 10		 jne	 SHORT $LN4@ImAtoi
  0003a	c7 45 f8 01 00
	00 00		 mov	 DWORD PTR _negative$[ebp], 1
  00041	8b 45 08	 mov	 eax, DWORD PTR _src$[ebp]
  00044	83 c0 01	 add	 eax, 1
  00047	89 45 08	 mov	 DWORD PTR _src$[ebp], eax
$LN4@ImAtoi:

; 1873 :     if (*src == '+') { src++; }

  0004a	8b 45 08	 mov	 eax, DWORD PTR _src$[ebp]
  0004d	0f be 08	 movsx	 ecx, BYTE PTR [eax]
  00050	83 f9 2b	 cmp	 ecx, 43			; 0000002bH
  00053	75 09		 jne	 SHORT $LN5@ImAtoi
  00055	8b 45 08	 mov	 eax, DWORD PTR _src$[ebp]
  00058	83 c0 01	 add	 eax, 1
  0005b	89 45 08	 mov	 DWORD PTR _src$[ebp], eax
$LN5@ImAtoi:

; 1874 :     TYPE v = 0;

  0005e	0f 57 c0	 xorps	 xmm0, xmm0
  00061	f3 0f 11 45 ec	 movss	 DWORD PTR _v$[ebp], xmm0
$LN2@ImAtoi:

; 1875 :     while (*src >= '0' && *src <= '9')

  00066	8b 45 08	 mov	 eax, DWORD PTR _src$[ebp]
  00069	0f be 08	 movsx	 ecx, BYTE PTR [eax]
  0006c	83 f9 30	 cmp	 ecx, 48			; 00000030H
  0006f	7c 39		 jl	 SHORT $LN3@ImAtoi
  00071	8b 45 08	 mov	 eax, DWORD PTR _src$[ebp]
  00074	0f be 08	 movsx	 ecx, BYTE PTR [eax]
  00077	83 f9 39	 cmp	 ecx, 57			; 00000039H
  0007a	7f 2e		 jg	 SHORT $LN3@ImAtoi

; 1876 :         v = (v * 10) + (*src++ - '0');

  0007c	f3 0f 10 45 ec	 movss	 xmm0, DWORD PTR _v$[ebp]
  00081	f3 0f 59 05 00
	00 00 00	 mulss	 xmm0, DWORD PTR __real@41200000
  00089	8b 45 08	 mov	 eax, DWORD PTR _src$[ebp]
  0008c	0f be 08	 movsx	 ecx, BYTE PTR [eax]
  0008f	83 e9 30	 sub	 ecx, 48			; 00000030H
  00092	f3 0f 2a c9	 cvtsi2ss xmm1, ecx
  00096	f3 0f 58 c1	 addss	 xmm0, xmm1
  0009a	f3 0f 11 45 ec	 movss	 DWORD PTR _v$[ebp], xmm0
  0009f	8b 55 08	 mov	 edx, DWORD PTR _src$[ebp]
  000a2	83 c2 01	 add	 edx, 1
  000a5	89 55 08	 mov	 DWORD PTR _src$[ebp], edx
  000a8	eb bc		 jmp	 SHORT $LN2@ImAtoi
$LN3@ImAtoi:

; 1877 :     *output = negative ? -v : v;

  000aa	83 7d f8 00	 cmp	 DWORD PTR _negative$[ebp], 0
  000ae	74 16		 je	 SHORT $LN7@ImAtoi
  000b0	f3 0f 10 45 ec	 movss	 xmm0, DWORD PTR _v$[ebp]
  000b5	0f 57 05 00 00
	00 00		 xorps	 xmm0, DWORD PTR __xmm@80000000800000008000000080000000
  000bc	f3 0f 11 85 24
	ff ff ff	 movss	 DWORD PTR tv82[ebp], xmm0
  000c4	eb 0d		 jmp	 SHORT $LN8@ImAtoi
$LN7@ImAtoi:
  000c6	f3 0f 10 45 ec	 movss	 xmm0, DWORD PTR _v$[ebp]
  000cb	f3 0f 11 85 24
	ff ff ff	 movss	 DWORD PTR tv82[ebp], xmm0
$LN8@ImAtoi:
  000d3	8b 45 0c	 mov	 eax, DWORD PTR _output$[ebp]
  000d6	f3 0f 10 85 24
	ff ff ff	 movss	 xmm0, DWORD PTR tv82[ebp]
  000de	f3 0f 11 00	 movss	 DWORD PTR [eax], xmm0

; 1878 :     return src;

  000e2	8b 45 08	 mov	 eax, DWORD PTR _src$[ebp]

; 1879 : }

  000e5	5f		 pop	 edi
  000e6	5e		 pop	 esi
  000e7	5b		 pop	 ebx
  000e8	81 c4 dc 00 00
	00		 add	 esp, 220		; 000000dcH
  000ee	3b ec		 cmp	 ebp, esp
  000f0	e8 00 00 00 00	 call	 __RTC_CheckEsp
  000f5	8b e5		 mov	 esp, ebp
  000f7	5d		 pop	 ebp
  000f8	c3		 ret	 0
??$ImAtoi@M@@YAPBDPBDPAM@Z ENDP				; ImAtoi<float>
_TEXT	ENDS
; Function compile flags: /Odtp /RTCsu /ZI
; File D:\Programmieren\csgoHack\ProjektWolf\ImGui DirectX 9 Kiero Hook 2\imgui\imgui_widgets.cpp
;	COMDAT ??$ImAtoi@_J@@YAPBDPBDPA_J@Z
_TEXT	SEGMENT
tv82 = -228						; size = 8
_v$ = -24						; size = 8
_negative$ = -8						; size = 4
_src$ = 8						; size = 4
_output$ = 12						; size = 4
??$ImAtoi@_J@@YAPBDPBDPA_J@Z PROC			; ImAtoi<__int64>, COMDAT

; 1870 : {

  00000	55		 push	 ebp
  00001	8b ec		 mov	 ebp, esp
  00003	81 ec e4 00 00
	00		 sub	 esp, 228		; 000000e4H
  00009	53		 push	 ebx
  0000a	56		 push	 esi
  0000b	57		 push	 edi
  0000c	8d bd 1c ff ff
	ff		 lea	 edi, DWORD PTR [ebp-228]
  00012	b9 39 00 00 00	 mov	 ecx, 57			; 00000039H
  00017	b8 cc cc cc cc	 mov	 eax, -858993460		; ccccccccH
  0001c	f3 ab		 rep stosd
  0001e	b9 00 00 00 00	 mov	 ecx, OFFSET __32F429E7_imgui_widgets@cpp
  00023	e8 00 00 00 00	 call	 @__CheckForDebuggerJustMyCode@4

; 1871 :     int negative = 0;

  00028	c7 45 f8 00 00
	00 00		 mov	 DWORD PTR _negative$[ebp], 0

; 1872 :     if (*src == '-') { negative = 1; src++; }

  0002f	8b 45 08	 mov	 eax, DWORD PTR _src$[ebp]
  00032	0f be 08	 movsx	 ecx, BYTE PTR [eax]
  00035	83 f9 2d	 cmp	 ecx, 45			; 0000002dH
  00038	75 10		 jne	 SHORT $LN4@ImAtoi
  0003a	c7 45 f8 01 00
	00 00		 mov	 DWORD PTR _negative$[ebp], 1
  00041	8b 45 08	 mov	 eax, DWORD PTR _src$[ebp]
  00044	83 c0 01	 add	 eax, 1
  00047	89 45 08	 mov	 DWORD PTR _src$[ebp], eax
$LN4@ImAtoi:

; 1873 :     if (*src == '+') { src++; }

  0004a	8b 45 08	 mov	 eax, DWORD PTR _src$[ebp]
  0004d	0f be 08	 movsx	 ecx, BYTE PTR [eax]
  00050	83 f9 2b	 cmp	 ecx, 43			; 0000002bH
  00053	75 09		 jne	 SHORT $LN5@ImAtoi
  00055	8b 45 08	 mov	 eax, DWORD PTR _src$[ebp]
  00058	83 c0 01	 add	 eax, 1
  0005b	89 45 08	 mov	 DWORD PTR _src$[ebp], eax
$LN5@ImAtoi:

; 1874 :     TYPE v = 0;

  0005e	0f 57 c0	 xorps	 xmm0, xmm0
  00061	66 0f 13 45 e8	 movlpd	 QWORD PTR _v$[ebp], xmm0
$LN2@ImAtoi:

; 1875 :     while (*src >= '0' && *src <= '9')

  00066	8b 45 08	 mov	 eax, DWORD PTR _src$[ebp]
  00069	0f be 08	 movsx	 ecx, BYTE PTR [eax]
  0006c	83 f9 30	 cmp	 ecx, 48			; 00000030H
  0006f	7c 3f		 jl	 SHORT $LN3@ImAtoi
  00071	8b 45 08	 mov	 eax, DWORD PTR _src$[ebp]
  00074	0f be 08	 movsx	 ecx, BYTE PTR [eax]
  00077	83 f9 39	 cmp	 ecx, 57			; 00000039H
  0007a	7f 34		 jg	 SHORT $LN3@ImAtoi

; 1876 :         v = (v * 10) + (*src++ - '0');

  0007c	6a 00		 push	 0
  0007e	6a 0a		 push	 10			; 0000000aH
  00080	8b 45 ec	 mov	 eax, DWORD PTR _v$[ebp+4]
  00083	50		 push	 eax
  00084	8b 4d e8	 mov	 ecx, DWORD PTR _v$[ebp]
  00087	51		 push	 ecx
  00088	e8 00 00 00 00	 call	 __allmul
  0008d	8b c8		 mov	 ecx, eax
  0008f	8b f2		 mov	 esi, edx
  00091	8b 55 08	 mov	 edx, DWORD PTR _src$[ebp]
  00094	0f be 02	 movsx	 eax, BYTE PTR [edx]
  00097	83 e8 30	 sub	 eax, 48			; 00000030H
  0009a	99		 cdq
  0009b	03 c8		 add	 ecx, eax
  0009d	13 f2		 adc	 esi, edx
  0009f	89 4d e8	 mov	 DWORD PTR _v$[ebp], ecx
  000a2	89 75 ec	 mov	 DWORD PTR _v$[ebp+4], esi
  000a5	8b 45 08	 mov	 eax, DWORD PTR _src$[ebp]
  000a8	83 c0 01	 add	 eax, 1
  000ab	89 45 08	 mov	 DWORD PTR _src$[ebp], eax
  000ae	eb b6		 jmp	 SHORT $LN2@ImAtoi
$LN3@ImAtoi:

; 1877 :     *output = negative ? -v : v;

  000b0	83 7d f8 00	 cmp	 DWORD PTR _negative$[ebp], 0
  000b4	74 1b		 je	 SHORT $LN7@ImAtoi
  000b6	8b 45 e8	 mov	 eax, DWORD PTR _v$[ebp]
  000b9	f7 d8		 neg	 eax
  000bb	8b 4d ec	 mov	 ecx, DWORD PTR _v$[ebp+4]
  000be	83 d1 00	 adc	 ecx, 0
  000c1	f7 d9		 neg	 ecx
  000c3	89 85 1c ff ff
	ff		 mov	 DWORD PTR tv82[ebp], eax
  000c9	89 8d 20 ff ff
	ff		 mov	 DWORD PTR tv82[ebp+4], ecx
  000cf	eb 12		 jmp	 SHORT $LN8@ImAtoi
$LN7@ImAtoi:
  000d1	8b 55 e8	 mov	 edx, DWORD PTR _v$[ebp]
  000d4	89 95 1c ff ff
	ff		 mov	 DWORD PTR tv82[ebp], edx
  000da	8b 45 ec	 mov	 eax, DWORD PTR _v$[ebp+4]
  000dd	89 85 20 ff ff
	ff		 mov	 DWORD PTR tv82[ebp+4], eax
$LN8@ImAtoi:
  000e3	8b 4d 0c	 mov	 ecx, DWORD PTR _output$[ebp]
  000e6	8b 95 1c ff ff
	ff		 mov	 edx, DWORD PTR tv82[ebp]
  000ec	89 11		 mov	 DWORD PTR [ecx], edx
  000ee	8b 85 20 ff ff
	ff		 mov	 eax, DWORD PTR tv82[ebp+4]
  000f4	89 41 04	 mov	 DWORD PTR [ecx+4], eax

; 1878 :     return src;

  000f7	8b 45 08	 mov	 eax, DWORD PTR _src$[ebp]

; 1879 : }

  000fa	5f		 pop	 edi
  000fb	5e		 pop	 esi
  000fc	5b		 pop	 ebx
  000fd	81 c4 e4 00 00
	00		 add	 esp, 228		; 000000e4H
  00103	3b ec		 cmp	 ebp, esp
  00105	e8 00 00 00 00	 call	 __RTC_CheckEsp
  0010a	8b e5		 mov	 esp, ebp
  0010c	5d		 pop	 ebp
  0010d	c3		 ret	 0
??$ImAtoi@_J@@YAPBDPBDPA_J@Z ENDP			; ImAtoi<__int64>
_TEXT	ENDS
; Function compile flags: /Odtp /RTCsu /ZI
; File D:\Programmieren\csgoHack\ProjektWolf\ImGui DirectX 9 Kiero Hook 2\imgui\imgui_internal.h
;	COMDAT ??$ImMax@N@@YANNN@Z
_TEXT	SEGMENT
tv65 = -200						; size = 8
_lhs$ = 8						; size = 8
_rhs$ = 16						; size = 8
??$ImMax@N@@YANNN@Z PROC				; ImMax<double>, COMDAT

; 315  : template<typename T> static inline T ImMax(T lhs, T rhs)                        { return lhs >= rhs ? lhs : rhs; }

  00000	55		 push	 ebp
  00001	8b ec		 mov	 ebp, esp
  00003	81 ec c8 00 00
	00		 sub	 esp, 200		; 000000c8H
  00009	53		 push	 ebx
  0000a	56		 push	 esi
  0000b	57		 push	 edi
  0000c	8d bd 38 ff ff
	ff		 lea	 edi, DWORD PTR [ebp-200]
  00012	b9 32 00 00 00	 mov	 ecx, 50			; 00000032H
  00017	b8 cc cc cc cc	 mov	 eax, -858993460		; ccccccccH
  0001c	f3 ab		 rep stosd
  0001e	b9 00 00 00 00	 mov	 ecx, OFFSET __71512A68_imgui_internal@h
  00023	e8 00 00 00 00	 call	 @__CheckForDebuggerJustMyCode@4
  00028	f2 0f 10 45 08	 movsd	 xmm0, QWORD PTR _lhs$[ebp]
  0002d	66 0f 2f 45 10	 comisd	 xmm0, QWORD PTR _rhs$[ebp]
  00032	72 0f		 jb	 SHORT $LN3@ImMax
  00034	f2 0f 10 45 08	 movsd	 xmm0, QWORD PTR _lhs$[ebp]
  00039	f2 0f 11 85 38
	ff ff ff	 movsd	 QWORD PTR tv65[ebp], xmm0
  00041	eb 0d		 jmp	 SHORT $LN4@ImMax
$LN3@ImMax:
  00043	f2 0f 10 45 10	 movsd	 xmm0, QWORD PTR _rhs$[ebp]
  00048	f2 0f 11 85 38
	ff ff ff	 movsd	 QWORD PTR tv65[ebp], xmm0
$LN4@ImMax:
  00050	dd 85 38 ff ff
	ff		 fld	 QWORD PTR tv65[ebp]
  00056	5f		 pop	 edi
  00057	5e		 pop	 esi
  00058	5b		 pop	 ebx
  00059	81 c4 c8 00 00
	00		 add	 esp, 200		; 000000c8H
  0005f	3b ec		 cmp	 ebp, esp
  00061	e8 00 00 00 00	 call	 __RTC_CheckEsp
  00066	8b e5		 mov	 esp, ebp
  00068	5d		 pop	 ebp
  00069	c3		 ret	 0
??$ImMax@N@@YANNN@Z ENDP				; ImMax<double>
_TEXT	ENDS
; Function compile flags: /Odtp /RTCsu /ZI
; File D:\Programmieren\csgoHack\ProjektWolf\ImGui DirectX 9 Kiero Hook 2\imgui\imgui_internal.h
;	COMDAT ??$ImLerp@N@@YANNNM@Z
_TEXT	SEGMENT
tv73 = -200						; size = 8
_a$ = 8							; size = 8
_b$ = 16						; size = 8
_t$ = 24						; size = 4
??$ImLerp@N@@YANNNM@Z PROC				; ImLerp<double>, COMDAT

; 317  : template<typename T> static inline T ImLerp(T a, T b, float t)                  { return (T)(a + (b - a) * t); }

  00000	55		 push	 ebp
  00001	8b ec		 mov	 ebp, esp
  00003	81 ec c8 00 00
	00		 sub	 esp, 200		; 000000c8H
  00009	53		 push	 ebx
  0000a	56		 push	 esi
  0000b	57		 push	 edi
  0000c	8d bd 38 ff ff
	ff		 lea	 edi, DWORD PTR [ebp-200]
  00012	b9 32 00 00 00	 mov	 ecx, 50			; 00000032H
  00017	b8 cc cc cc cc	 mov	 eax, -858993460		; ccccccccH
  0001c	f3 ab		 rep stosd
  0001e	b9 00 00 00 00	 mov	 ecx, OFFSET __71512A68_imgui_internal@h
  00023	e8 00 00 00 00	 call	 @__CheckForDebuggerJustMyCode@4
  00028	f2 0f 10 45 10	 movsd	 xmm0, QWORD PTR _b$[ebp]
  0002d	f2 0f 5c 45 08	 subsd	 xmm0, QWORD PTR _a$[ebp]
  00032	f3 0f 5a 4d 18	 cvtss2sd xmm1, DWORD PTR _t$[ebp]
  00037	f2 0f 59 c1	 mulsd	 xmm0, xmm1
  0003b	f2 0f 58 45 08	 addsd	 xmm0, QWORD PTR _a$[ebp]
  00040	f2 0f 11 85 38
	ff ff ff	 movsd	 QWORD PTR tv73[ebp], xmm0
  00048	dd 85 38 ff ff
	ff		 fld	 QWORD PTR tv73[ebp]
  0004e	5f		 pop	 edi
  0004f	5e		 pop	 esi
  00050	5b		 pop	 ebx
  00051	81 c4 c8 00 00
	00		 add	 esp, 200		; 000000c8H
  00057	3b ec		 cmp	 ebp, esp
  00059	e8 00 00 00 00	 call	 __RTC_CheckEsp
  0005e	8b e5		 mov	 esp, ebp
  00060	5d		 pop	 ebp
  00061	c3		 ret	 0
??$ImLerp@N@@YANNNM@Z ENDP				; ImLerp<double>
_TEXT	ENDS
; Function compile flags: /Odtp /RTCsu /ZI
; File D:\Programmieren\csgoHack\ProjektWolf\ImGui DirectX 9 Kiero Hook 2\imgui\imgui_internal.h
;	COMDAT ??$ImMin@N@@YANNN@Z
_TEXT	SEGMENT
tv65 = -200						; size = 8
_lhs$ = 8						; size = 8
_rhs$ = 16						; size = 8
??$ImMin@N@@YANNN@Z PROC				; ImMin<double>, COMDAT

; 314  : template<typename T> static inline T ImMin(T lhs, T rhs)                        { return lhs < rhs ? lhs : rhs; }

  00000	55		 push	 ebp
  00001	8b ec		 mov	 ebp, esp
  00003	81 ec c8 00 00
	00		 sub	 esp, 200		; 000000c8H
  00009	53		 push	 ebx
  0000a	56		 push	 esi
  0000b	57		 push	 edi
  0000c	8d bd 38 ff ff
	ff		 lea	 edi, DWORD PTR [ebp-200]
  00012	b9 32 00 00 00	 mov	 ecx, 50			; 00000032H
  00017	b8 cc cc cc cc	 mov	 eax, -858993460		; ccccccccH
  0001c	f3 ab		 rep stosd
  0001e	b9 00 00 00 00	 mov	 ecx, OFFSET __71512A68_imgui_internal@h
  00023	e8 00 00 00 00	 call	 @__CheckForDebuggerJustMyCode@4
  00028	f2 0f 10 45 10	 movsd	 xmm0, QWORD PTR _rhs$[ebp]
  0002d	66 0f 2f 45 08	 comisd	 xmm0, QWORD PTR _lhs$[ebp]
  00032	76 0f		 jbe	 SHORT $LN3@ImMin
  00034	f2 0f 10 45 08	 movsd	 xmm0, QWORD PTR _lhs$[ebp]
  00039	f2 0f 11 85 38
	ff ff ff	 movsd	 QWORD PTR tv65[ebp], xmm0
  00041	eb 0d		 jmp	 SHORT $LN4@ImMin
$LN3@ImMin:
  00043	f2 0f 10 45 10	 movsd	 xmm0, QWORD PTR _rhs$[ebp]
  00048	f2 0f 11 85 38
	ff ff ff	 movsd	 QWORD PTR tv65[ebp], xmm0
$LN4@ImMin:
  00050	dd 85 38 ff ff
	ff		 fld	 QWORD PTR tv65[ebp]
  00056	5f		 pop	 edi
  00057	5e		 pop	 esi
  00058	5b		 pop	 ebx
  00059	81 c4 c8 00 00
	00		 add	 esp, 200		; 000000c8H
  0005f	3b ec		 cmp	 ebp, esp
  00061	e8 00 00 00 00	 call	 __RTC_CheckEsp
  00066	8b e5		 mov	 esp, ebp
  00068	5d		 pop	 ebp
  00069	c3		 ret	 0
??$ImMin@N@@YANNN@Z ENDP				; ImMin<double>
_TEXT	ENDS
; Function compile flags: /Odtp /RTCsu /ZI
; File D:\Programmieren\csgoHack\ProjektWolf\ImGui DirectX 9 Kiero Hook 2\imgui\imgui_widgets.cpp
;	COMDAT ??$SliderCalcRatioFromValueT@NN@ImGui@@YAMHNNNMM@Z
_TEXT	SEGMENT
tv228 = -268						; size = 8
tv251 = -260						; size = 8
tv198 = -260						; size = 8
tv249 = -252						; size = 8
tv241 = -252						; size = 4
tv219 = -252						; size = 8
tv210 = -252						; size = 4
tv78 = -252						; size = 8
tv246 = -248						; size = 4
tv237 = -248						; size = 4
tv207 = -248						; size = 4
tv68 = -245						; size = 1
_f$1 = -48						; size = 4
_f$2 = -36						; size = 4
_v_clamped$ = -24					; size = 8
_is_power$ = -5						; size = 1
_data_type$ = 8						; size = 4
_v$ = 12						; size = 8
_v_min$ = 20						; size = 8
_v_max$ = 28						; size = 8
_power$ = 36						; size = 4
_linear_zero_pos$ = 40					; size = 4
??$SliderCalcRatioFromValueT@NN@ImGui@@YAMHNNNMM@Z PROC	; ImGui::SliderCalcRatioFromValueT<double,double>, COMDAT

; 2282 : {

  00000	55		 push	 ebp
  00001	8b ec		 mov	 ebp, esp
  00003	81 ec 0c 01 00
	00		 sub	 esp, 268		; 0000010cH
  00009	53		 push	 ebx
  0000a	56		 push	 esi
  0000b	57		 push	 edi
  0000c	8d bd f4 fe ff
	ff		 lea	 edi, DWORD PTR [ebp-268]
  00012	b9 43 00 00 00	 mov	 ecx, 67			; 00000043H
  00017	b8 cc cc cc cc	 mov	 eax, -858993460		; ccccccccH
  0001c	f3 ab		 rep stosd
  0001e	b9 00 00 00 00	 mov	 ecx, OFFSET __32F429E7_imgui_widgets@cpp
  00023	e8 00 00 00 00	 call	 @__CheckForDebuggerJustMyCode@4

; 2283 :     if (v_min == v_max)

  00028	f2 0f 10 45 14	 movsd	 xmm0, QWORD PTR _v_min$[ebp]
  0002d	66 0f 2e 45 1c	 ucomisd xmm0, QWORD PTR _v_max$[ebp]
  00032	9f		 lahf
  00033	f6 c4 44	 test	 ah, 68			; 00000044H
  00036	7a 07		 jp	 SHORT $LN2@SliderCalc

; 2284 :         return 0.0f;

  00038	d9 ee		 fldz
  0003a	e9 9c 02 00 00	 jmp	 $LN1@SliderCalc
$LN2@SliderCalc:

; 2285 : 
; 2286 :     const bool is_power = (power != 1.0f) && (data_type == ImGuiDataType_Float || data_type == ImGuiDataType_Double);

  0003f	f3 0f 10 45 24	 movss	 xmm0, DWORD PTR _power$[ebp]
  00044	0f 2e 05 00 00
	00 00		 ucomiss xmm0, DWORD PTR __real@3f800000
  0004b	9f		 lahf
  0004c	f6 c4 44	 test	 ah, 68			; 00000044H
  0004f	7b 15		 jnp	 SHORT $LN8@SliderCalc
  00051	83 7d 08 08	 cmp	 DWORD PTR _data_type$[ebp], 8
  00055	74 06		 je	 SHORT $LN7@SliderCalc
  00057	83 7d 08 09	 cmp	 DWORD PTR _data_type$[ebp], 9
  0005b	75 09		 jne	 SHORT $LN8@SliderCalc
$LN7@SliderCalc:
  0005d	c6 85 0b ff ff
	ff 01		 mov	 BYTE PTR tv68[ebp], 1
  00064	eb 07		 jmp	 SHORT $LN9@SliderCalc
$LN8@SliderCalc:
  00066	c6 85 0b ff ff
	ff 00		 mov	 BYTE PTR tv68[ebp], 0
$LN9@SliderCalc:
  0006d	8a 85 0b ff ff
	ff		 mov	 al, BYTE PTR tv68[ebp]
  00073	88 45 fb	 mov	 BYTE PTR _is_power$[ebp], al

; 2287 :     const TYPE v_clamped = (v_min < v_max) ? ImClamp(v, v_min, v_max) : ImClamp(v, v_max, v_min);

  00076	f2 0f 10 45 1c	 movsd	 xmm0, QWORD PTR _v_max$[ebp]
  0007b	66 0f 2f 45 14	 comisd	 xmm0, QWORD PTR _v_min$[ebp]
  00080	76 37		 jbe	 SHORT $LN10@SliderCalc
  00082	83 ec 08	 sub	 esp, 8
  00085	f2 0f 10 45 1c	 movsd	 xmm0, QWORD PTR _v_max$[ebp]
  0008a	f2 0f 11 04 24	 movsd	 QWORD PTR [esp], xmm0
  0008f	83 ec 08	 sub	 esp, 8
  00092	f2 0f 10 45 14	 movsd	 xmm0, QWORD PTR _v_min$[ebp]
  00097	f2 0f 11 04 24	 movsd	 QWORD PTR [esp], xmm0
  0009c	83 ec 08	 sub	 esp, 8
  0009f	f2 0f 10 45 0c	 movsd	 xmm0, QWORD PTR _v$[ebp]
  000a4	f2 0f 11 04 24	 movsd	 QWORD PTR [esp], xmm0
  000a9	e8 00 00 00 00	 call	 ??$ImClamp@N@@YANNNN@Z	; ImClamp<double>
  000ae	83 c4 18	 add	 esp, 24			; 00000018H
  000b1	dd 9d 04 ff ff
	ff		 fstp	 QWORD PTR tv78[ebp]
  000b7	eb 35		 jmp	 SHORT $LN11@SliderCalc
$LN10@SliderCalc:
  000b9	83 ec 08	 sub	 esp, 8
  000bc	f2 0f 10 45 14	 movsd	 xmm0, QWORD PTR _v_min$[ebp]
  000c1	f2 0f 11 04 24	 movsd	 QWORD PTR [esp], xmm0
  000c6	83 ec 08	 sub	 esp, 8
  000c9	f2 0f 10 45 1c	 movsd	 xmm0, QWORD PTR _v_max$[ebp]
  000ce	f2 0f 11 04 24	 movsd	 QWORD PTR [esp], xmm0
  000d3	83 ec 08	 sub	 esp, 8
  000d6	f2 0f 10 45 0c	 movsd	 xmm0, QWORD PTR _v$[ebp]
  000db	f2 0f 11 04 24	 movsd	 QWORD PTR [esp], xmm0
  000e0	e8 00 00 00 00	 call	 ??$ImClamp@N@@YANNNN@Z	; ImClamp<double>
  000e5	83 c4 18	 add	 esp, 24			; 00000018H
  000e8	dd 9d 04 ff ff
	ff		 fstp	 QWORD PTR tv78[ebp]
$LN11@SliderCalc:
  000ee	f2 0f 10 85 04
	ff ff ff	 movsd	 xmm0, QWORD PTR tv78[ebp]
  000f6	f2 0f 11 45 e8	 movsd	 QWORD PTR _v_clamped$[ebp], xmm0

; 2288 :     if (is_power)

  000fb	0f b6 45 fb	 movzx	 eax, BYTE PTR _is_power$[ebp]
  000ff	85 c0		 test	 eax, eax
  00101	0f 84 aa 01 00
	00		 je	 $LN5@SliderCalc

; 2289 :     {
; 2290 :         if (v_clamped < 0.0f)

  00107	0f 57 c0	 xorps	 xmm0, xmm0
  0010a	66 0f 2f 45 e8	 comisd	 xmm0, QWORD PTR _v_clamped$[ebp]
  0010f	0f 86 bf 00 00
	00		 jbe	 $LN4@SliderCalc

; 2291 :         {
; 2292 :             const float f = 1.0f - (float)((v_clamped - v_min) / (ImMin((TYPE)0, v_max) - v_min));

  00115	f2 0f 10 45 e8	 movsd	 xmm0, QWORD PTR _v_clamped$[ebp]
  0011a	f2 0f 5c 45 14	 subsd	 xmm0, QWORD PTR _v_min$[ebp]
  0011f	83 ec 08	 sub	 esp, 8
  00122	f2 0f 10 4d 1c	 movsd	 xmm1, QWORD PTR _v_max$[ebp]
  00127	f2 0f 11 0c 24	 movsd	 QWORD PTR [esp], xmm1
  0012c	83 ec 08	 sub	 esp, 8
  0012f	0f 57 c9	 xorps	 xmm1, xmm1
  00132	f2 0f 11 0c 24	 movsd	 QWORD PTR [esp], xmm1
  00137	f2 0f 11 85 04
	ff ff ff	 movsd	 QWORD PTR tv249[ebp], xmm0
  0013f	e8 00 00 00 00	 call	 ??$ImMin@N@@YANNN@Z	; ImMin<double>
  00144	83 c4 10	 add	 esp, 16			; 00000010H
  00147	dd 9d fc fe ff
	ff		 fstp	 QWORD PTR tv198[ebp]
  0014d	f2 0f 10 85 fc
	fe ff ff	 movsd	 xmm0, QWORD PTR tv198[ebp]
  00155	f2 0f 5c 45 14	 subsd	 xmm0, QWORD PTR _v_min$[ebp]
  0015a	f2 0f 10 8d 04
	ff ff ff	 movsd	 xmm1, QWORD PTR tv249[ebp]
  00162	f2 0f 5e c8	 divsd	 xmm1, xmm0
  00166	f2 0f 5a c1	 cvtsd2ss xmm0, xmm1
  0016a	f3 0f 10 0d 00
	00 00 00	 movss	 xmm1, DWORD PTR __real@3f800000
  00172	f3 0f 5c c8	 subss	 xmm1, xmm0
  00176	f3 0f 11 4d dc	 movss	 DWORD PTR _f$2[ebp], xmm1

; 2293 :             return (1.0f - ImPow(f, 1.0f/power)) * linear_zero_pos;

  0017b	f3 0f 10 05 00
	00 00 00	 movss	 xmm0, DWORD PTR __real@3f800000
  00183	f3 0f 5e 45 24	 divss	 xmm0, DWORD PTR _power$[ebp]
  00188	51		 push	 ecx
  00189	f3 0f 11 04 24	 movss	 DWORD PTR [esp], xmm0
  0018e	51		 push	 ecx
  0018f	f3 0f 10 45 dc	 movss	 xmm0, DWORD PTR _f$2[ebp]
  00194	f3 0f 11 04 24	 movss	 DWORD PTR [esp], xmm0
  00199	e8 00 00 00 00	 call	 ?ImPow@@YAMMM@Z		; ImPow
  0019e	83 c4 08	 add	 esp, 8
  001a1	d9 9d 08 ff ff
	ff		 fstp	 DWORD PTR tv207[ebp]
  001a7	f3 0f 10 05 00
	00 00 00	 movss	 xmm0, DWORD PTR __real@3f800000
  001af	f3 0f 5c 85 08
	ff ff ff	 subss	 xmm0, DWORD PTR tv207[ebp]
  001b7	f3 0f 59 45 28	 mulss	 xmm0, DWORD PTR _linear_zero_pos$[ebp]
  001bc	f3 0f 11 85 04
	ff ff ff	 movss	 DWORD PTR tv210[ebp], xmm0
  001c4	d9 85 04 ff ff
	ff		 fld	 DWORD PTR tv210[ebp]
  001ca	e9 0c 01 00 00	 jmp	 $LN1@SliderCalc

; 2294 :         }

  001cf	e9 dd 00 00 00	 jmp	 $LN5@SliderCalc
$LN4@SliderCalc:

; 2295 :         else
; 2296 :         {
; 2297 :             const float f = (float)((v_clamped - ImMax((TYPE)0, v_min)) / (v_max - ImMax((TYPE)0, v_min)));

  001d4	83 ec 08	 sub	 esp, 8
  001d7	f2 0f 10 45 14	 movsd	 xmm0, QWORD PTR _v_min$[ebp]
  001dc	f2 0f 11 04 24	 movsd	 QWORD PTR [esp], xmm0
  001e1	83 ec 08	 sub	 esp, 8
  001e4	0f 57 c0	 xorps	 xmm0, xmm0
  001e7	f2 0f 11 04 24	 movsd	 QWORD PTR [esp], xmm0
  001ec	e8 00 00 00 00	 call	 ??$ImMax@N@@YANNN@Z	; ImMax<double>
  001f1	83 c4 10	 add	 esp, 16			; 00000010H
  001f4	dd 9d 04 ff ff
	ff		 fstp	 QWORD PTR tv219[ebp]
  001fa	f2 0f 10 45 e8	 movsd	 xmm0, QWORD PTR _v_clamped$[ebp]
  001ff	f2 0f 5c 85 04
	ff ff ff	 subsd	 xmm0, QWORD PTR tv219[ebp]
  00207	83 ec 08	 sub	 esp, 8
  0020a	f2 0f 10 4d 14	 movsd	 xmm1, QWORD PTR _v_min$[ebp]
  0020f	f2 0f 11 0c 24	 movsd	 QWORD PTR [esp], xmm1
  00214	83 ec 08	 sub	 esp, 8
  00217	0f 57 c9	 xorps	 xmm1, xmm1
  0021a	f2 0f 11 0c 24	 movsd	 QWORD PTR [esp], xmm1
  0021f	f2 0f 11 85 fc
	fe ff ff	 movsd	 QWORD PTR tv251[ebp], xmm0
  00227	e8 00 00 00 00	 call	 ??$ImMax@N@@YANNN@Z	; ImMax<double>
  0022c	83 c4 10	 add	 esp, 16			; 00000010H
  0022f	dd 9d f4 fe ff
	ff		 fstp	 QWORD PTR tv228[ebp]
  00235	f2 0f 10 45 1c	 movsd	 xmm0, QWORD PTR _v_max$[ebp]
  0023a	f2 0f 5c 85 f4
	fe ff ff	 subsd	 xmm0, QWORD PTR tv228[ebp]
  00242	f2 0f 10 8d fc
	fe ff ff	 movsd	 xmm1, QWORD PTR tv251[ebp]
  0024a	f2 0f 5e c8	 divsd	 xmm1, xmm0
  0024e	f2 0f 5a c1	 cvtsd2ss xmm0, xmm1
  00252	f3 0f 11 45 d0	 movss	 DWORD PTR _f$1[ebp], xmm0

; 2298 :             return linear_zero_pos + ImPow(f, 1.0f/power) * (1.0f - linear_zero_pos);

  00257	f3 0f 10 05 00
	00 00 00	 movss	 xmm0, DWORD PTR __real@3f800000
  0025f	f3 0f 5e 45 24	 divss	 xmm0, DWORD PTR _power$[ebp]
  00264	51		 push	 ecx
  00265	f3 0f 11 04 24	 movss	 DWORD PTR [esp], xmm0
  0026a	51		 push	 ecx
  0026b	f3 0f 10 45 d0	 movss	 xmm0, DWORD PTR _f$1[ebp]
  00270	f3 0f 11 04 24	 movss	 DWORD PTR [esp], xmm0
  00275	e8 00 00 00 00	 call	 ?ImPow@@YAMMM@Z		; ImPow
  0027a	83 c4 08	 add	 esp, 8
  0027d	d9 9d 08 ff ff
	ff		 fstp	 DWORD PTR tv237[ebp]
  00283	f3 0f 10 85 08
	ff ff ff	 movss	 xmm0, DWORD PTR tv237[ebp]
  0028b	f3 0f 10 0d 00
	00 00 00	 movss	 xmm1, DWORD PTR __real@3f800000
  00293	f3 0f 5c 4d 28	 subss	 xmm1, DWORD PTR _linear_zero_pos$[ebp]
  00298	f3 0f 59 c1	 mulss	 xmm0, xmm1
  0029c	f3 0f 58 45 28	 addss	 xmm0, DWORD PTR _linear_zero_pos$[ebp]
  002a1	f3 0f 11 85 04
	ff ff ff	 movss	 DWORD PTR tv241[ebp], xmm0
  002a9	d9 85 04 ff ff
	ff		 fld	 DWORD PTR tv241[ebp]
  002af	eb 2a		 jmp	 SHORT $LN1@SliderCalc
$LN5@SliderCalc:

; 2299 :         }
; 2300 :     }
; 2301 : 
; 2302 :     // Linear slider
; 2303 :     return (float)((FLOATTYPE)(v_clamped - v_min) / (FLOATTYPE)(v_max - v_min));

  002b1	f2 0f 10 45 e8	 movsd	 xmm0, QWORD PTR _v_clamped$[ebp]
  002b6	f2 0f 5c 45 14	 subsd	 xmm0, QWORD PTR _v_min$[ebp]
  002bb	f2 0f 10 4d 1c	 movsd	 xmm1, QWORD PTR _v_max$[ebp]
  002c0	f2 0f 5c 4d 14	 subsd	 xmm1, QWORD PTR _v_min$[ebp]
  002c5	f2 0f 5e c1	 divsd	 xmm0, xmm1
  002c9	f2 0f 5a c0	 cvtsd2ss xmm0, xmm0
  002cd	f3 0f 11 85 08
	ff ff ff	 movss	 DWORD PTR tv246[ebp], xmm0
  002d5	d9 85 08 ff ff
	ff		 fld	 DWORD PTR tv246[ebp]
$LN1@SliderCalc:

; 2304 : }

  002db	5f		 pop	 edi
  002dc	5e		 pop	 esi
  002dd	5b		 pop	 ebx
  002de	81 c4 0c 01 00
	00		 add	 esp, 268		; 0000010cH
  002e4	3b ec		 cmp	 ebp, esp
  002e6	e8 00 00 00 00	 call	 __RTC_CheckEsp
  002eb	8b e5		 mov	 esp, ebp
  002ed	5d		 pop	 ebp
  002ee	c3		 ret	 0
??$SliderCalcRatioFromValueT@NN@ImGui@@YAMHNNNMM@Z ENDP	; ImGui::SliderCalcRatioFromValueT<double,double>
_TEXT	ENDS
; Function compile flags: /Odtp /RTCsu /ZI
; File D:\Programmieren\csgoHack\ProjektWolf\ImGui DirectX 9 Kiero Hook 2\imgui\imgui_widgets.cpp
;	COMDAT ??$SliderCalcRatioFromValueT@MM@ImGui@@YAMHMMMMM@Z
_TEXT	SEGMENT
tv225 = -252						; size = 4
tv248 = -248						; size = 4
tv238 = -248						; size = 4
tv207 = -248						; size = 4
tv195 = -248						; size = 4
tv246 = -244						; size = 4
tv243 = -244						; size = 4
tv234 = -244						; size = 4
tv216 = -244						; size = 4
tv204 = -244						; size = 4
tv78 = -244						; size = 4
tv68 = -241						; size = 1
_f$1 = -44						; size = 4
_f$2 = -32						; size = 4
_v_clamped$ = -20					; size = 4
_is_power$ = -5						; size = 1
_data_type$ = 8						; size = 4
_v$ = 12						; size = 4
_v_min$ = 16						; size = 4
_v_max$ = 20						; size = 4
_power$ = 24						; size = 4
_linear_zero_pos$ = 28					; size = 4
??$SliderCalcRatioFromValueT@MM@ImGui@@YAMHMMMMM@Z PROC	; ImGui::SliderCalcRatioFromValueT<float,float>, COMDAT

; 2282 : {

  00000	55		 push	 ebp
  00001	8b ec		 mov	 ebp, esp
  00003	81 ec fc 00 00
	00		 sub	 esp, 252		; 000000fcH
  00009	53		 push	 ebx
  0000a	56		 push	 esi
  0000b	57		 push	 edi
  0000c	8d bd 04 ff ff
	ff		 lea	 edi, DWORD PTR [ebp-252]
  00012	b9 3f 00 00 00	 mov	 ecx, 63			; 0000003fH
  00017	b8 cc cc cc cc	 mov	 eax, -858993460		; ccccccccH
  0001c	f3 ab		 rep stosd
  0001e	b9 00 00 00 00	 mov	 ecx, OFFSET __32F429E7_imgui_widgets@cpp
  00023	e8 00 00 00 00	 call	 @__CheckForDebuggerJustMyCode@4

; 2283 :     if (v_min == v_max)

  00028	f3 0f 10 45 10	 movss	 xmm0, DWORD PTR _v_min$[ebp]
  0002d	0f 2e 45 14	 ucomiss xmm0, DWORD PTR _v_max$[ebp]
  00031	9f		 lahf
  00032	f6 c4 44	 test	 ah, 68			; 00000044H
  00035	7a 07		 jp	 SHORT $LN2@SliderCalc

; 2284 :         return 0.0f;

  00037	d9 ee		 fldz
  00039	e9 76 02 00 00	 jmp	 $LN1@SliderCalc
$LN2@SliderCalc:

; 2285 : 
; 2286 :     const bool is_power = (power != 1.0f) && (data_type == ImGuiDataType_Float || data_type == ImGuiDataType_Double);

  0003e	f3 0f 10 45 18	 movss	 xmm0, DWORD PTR _power$[ebp]
  00043	0f 2e 05 00 00
	00 00		 ucomiss xmm0, DWORD PTR __real@3f800000
  0004a	9f		 lahf
  0004b	f6 c4 44	 test	 ah, 68			; 00000044H
  0004e	7b 15		 jnp	 SHORT $LN8@SliderCalc
  00050	83 7d 08 08	 cmp	 DWORD PTR _data_type$[ebp], 8
  00054	74 06		 je	 SHORT $LN7@SliderCalc
  00056	83 7d 08 09	 cmp	 DWORD PTR _data_type$[ebp], 9
  0005a	75 09		 jne	 SHORT $LN8@SliderCalc
$LN7@SliderCalc:
  0005c	c6 85 0f ff ff
	ff 01		 mov	 BYTE PTR tv68[ebp], 1
  00063	eb 07		 jmp	 SHORT $LN9@SliderCalc
$LN8@SliderCalc:
  00065	c6 85 0f ff ff
	ff 00		 mov	 BYTE PTR tv68[ebp], 0
$LN9@SliderCalc:
  0006c	8a 85 0f ff ff
	ff		 mov	 al, BYTE PTR tv68[ebp]
  00072	88 45 fb	 mov	 BYTE PTR _is_power$[ebp], al

; 2287 :     const TYPE v_clamped = (v_min < v_max) ? ImClamp(v, v_min, v_max) : ImClamp(v, v_max, v_min);

  00075	f3 0f 10 45 14	 movss	 xmm0, DWORD PTR _v_max$[ebp]
  0007a	0f 2f 45 10	 comiss	 xmm0, DWORD PTR _v_min$[ebp]
  0007e	76 31		 jbe	 SHORT $LN10@SliderCalc
  00080	51		 push	 ecx
  00081	f3 0f 10 45 14	 movss	 xmm0, DWORD PTR _v_max$[ebp]
  00086	f3 0f 11 04 24	 movss	 DWORD PTR [esp], xmm0
  0008b	51		 push	 ecx
  0008c	f3 0f 10 45 10	 movss	 xmm0, DWORD PTR _v_min$[ebp]
  00091	f3 0f 11 04 24	 movss	 DWORD PTR [esp], xmm0
  00096	51		 push	 ecx
  00097	f3 0f 10 45 0c	 movss	 xmm0, DWORD PTR _v$[ebp]
  0009c	f3 0f 11 04 24	 movss	 DWORD PTR [esp], xmm0
  000a1	e8 00 00 00 00	 call	 ??$ImClamp@M@@YAMMMM@Z	; ImClamp<float>
  000a6	83 c4 0c	 add	 esp, 12			; 0000000cH
  000a9	d9 9d 0c ff ff
	ff		 fstp	 DWORD PTR tv78[ebp]
  000af	eb 2f		 jmp	 SHORT $LN11@SliderCalc
$LN10@SliderCalc:
  000b1	51		 push	 ecx
  000b2	f3 0f 10 45 10	 movss	 xmm0, DWORD PTR _v_min$[ebp]
  000b7	f3 0f 11 04 24	 movss	 DWORD PTR [esp], xmm0
  000bc	51		 push	 ecx
  000bd	f3 0f 10 45 14	 movss	 xmm0, DWORD PTR _v_max$[ebp]
  000c2	f3 0f 11 04 24	 movss	 DWORD PTR [esp], xmm0
  000c7	51		 push	 ecx
  000c8	f3 0f 10 45 0c	 movss	 xmm0, DWORD PTR _v$[ebp]
  000cd	f3 0f 11 04 24	 movss	 DWORD PTR [esp], xmm0
  000d2	e8 00 00 00 00	 call	 ??$ImClamp@M@@YAMMMM@Z	; ImClamp<float>
  000d7	83 c4 0c	 add	 esp, 12			; 0000000cH
  000da	d9 9d 0c ff ff
	ff		 fstp	 DWORD PTR tv78[ebp]
$LN11@SliderCalc:
  000e0	f3 0f 10 85 0c
	ff ff ff	 movss	 xmm0, DWORD PTR tv78[ebp]
  000e8	f3 0f 11 45 ec	 movss	 DWORD PTR _v_clamped$[ebp], xmm0

; 2288 :     if (is_power)

  000ed	0f b6 45 fb	 movzx	 eax, BYTE PTR _is_power$[ebp]
  000f1	85 c0		 test	 eax, eax
  000f3	0f 84 95 01 00
	00		 je	 $LN5@SliderCalc

; 2289 :     {
; 2290 :         if (v_clamped < 0.0f)

  000f9	0f 57 c0	 xorps	 xmm0, xmm0
  000fc	0f 2f 45 ec	 comiss	 xmm0, DWORD PTR _v_clamped$[ebp]
  00100	0f 86 b7 00 00
	00		 jbe	 $LN4@SliderCalc

; 2291 :         {
; 2292 :             const float f = 1.0f - (float)((v_clamped - v_min) / (ImMin((TYPE)0, v_max) - v_min));

  00106	f3 0f 10 45 ec	 movss	 xmm0, DWORD PTR _v_clamped$[ebp]
  0010b	f3 0f 5c 45 10	 subss	 xmm0, DWORD PTR _v_min$[ebp]
  00110	51		 push	 ecx
  00111	f3 0f 10 4d 14	 movss	 xmm1, DWORD PTR _v_max$[ebp]
  00116	f3 0f 11 0c 24	 movss	 DWORD PTR [esp], xmm1
  0011b	51		 push	 ecx
  0011c	0f 57 c9	 xorps	 xmm1, xmm1
  0011f	f3 0f 11 0c 24	 movss	 DWORD PTR [esp], xmm1
  00124	f3 0f 11 85 0c
	ff ff ff	 movss	 DWORD PTR tv246[ebp], xmm0
  0012c	e8 00 00 00 00	 call	 ??$ImMin@M@@YAMMM@Z	; ImMin<float>
  00131	83 c4 08	 add	 esp, 8
  00134	d9 9d 08 ff ff
	ff		 fstp	 DWORD PTR tv195[ebp]
  0013a	f3 0f 10 85 08
	ff ff ff	 movss	 xmm0, DWORD PTR tv195[ebp]
  00142	f3 0f 5c 45 10	 subss	 xmm0, DWORD PTR _v_min$[ebp]
  00147	f3 0f 10 8d 0c
	ff ff ff	 movss	 xmm1, DWORD PTR tv246[ebp]
  0014f	f3 0f 5e c8	 divss	 xmm1, xmm0
  00153	f3 0f 10 05 00
	00 00 00	 movss	 xmm0, DWORD PTR __real@3f800000
  0015b	f3 0f 5c c1	 subss	 xmm0, xmm1
  0015f	f3 0f 11 45 e0	 movss	 DWORD PTR _f$2[ebp], xmm0

; 2293 :             return (1.0f - ImPow(f, 1.0f/power)) * linear_zero_pos;

  00164	f3 0f 10 05 00
	00 00 00	 movss	 xmm0, DWORD PTR __real@3f800000
  0016c	f3 0f 5e 45 18	 divss	 xmm0, DWORD PTR _power$[ebp]
  00171	51		 push	 ecx
  00172	f3 0f 11 04 24	 movss	 DWORD PTR [esp], xmm0
  00177	51		 push	 ecx
  00178	f3 0f 10 45 e0	 movss	 xmm0, DWORD PTR _f$2[ebp]
  0017d	f3 0f 11 04 24	 movss	 DWORD PTR [esp], xmm0
  00182	e8 00 00 00 00	 call	 ?ImPow@@YAMMM@Z		; ImPow
  00187	83 c4 08	 add	 esp, 8
  0018a	d9 9d 0c ff ff
	ff		 fstp	 DWORD PTR tv204[ebp]
  00190	f3 0f 10 05 00
	00 00 00	 movss	 xmm0, DWORD PTR __real@3f800000
  00198	f3 0f 5c 85 0c
	ff ff ff	 subss	 xmm0, DWORD PTR tv204[ebp]
  001a0	f3 0f 59 45 1c	 mulss	 xmm0, DWORD PTR _linear_zero_pos$[ebp]
  001a5	f3 0f 11 85 08
	ff ff ff	 movss	 DWORD PTR tv207[ebp], xmm0
  001ad	d9 85 08 ff ff
	ff		 fld	 DWORD PTR tv207[ebp]
  001b3	e9 fc 00 00 00	 jmp	 $LN1@SliderCalc

; 2294 :         }

  001b8	e9 d1 00 00 00	 jmp	 $LN5@SliderCalc
$LN4@SliderCalc:

; 2295 :         else
; 2296 :         {
; 2297 :             const float f = (float)((v_clamped - ImMax((TYPE)0, v_min)) / (v_max - ImMax((TYPE)0, v_min)));

  001bd	51		 push	 ecx
  001be	f3 0f 10 45 10	 movss	 xmm0, DWORD PTR _v_min$[ebp]
  001c3	f3 0f 11 04 24	 movss	 DWORD PTR [esp], xmm0
  001c8	51		 push	 ecx
  001c9	0f 57 c0	 xorps	 xmm0, xmm0
  001cc	f3 0f 11 04 24	 movss	 DWORD PTR [esp], xmm0
  001d1	e8 00 00 00 00	 call	 ??$ImMax@M@@YAMMM@Z	; ImMax<float>
  001d6	83 c4 08	 add	 esp, 8
  001d9	d9 9d 0c ff ff
	ff		 fstp	 DWORD PTR tv216[ebp]
  001df	f3 0f 10 45 ec	 movss	 xmm0, DWORD PTR _v_clamped$[ebp]
  001e4	f3 0f 5c 85 0c
	ff ff ff	 subss	 xmm0, DWORD PTR tv216[ebp]
  001ec	51		 push	 ecx
  001ed	f3 0f 10 4d 10	 movss	 xmm1, DWORD PTR _v_min$[ebp]
  001f2	f3 0f 11 0c 24	 movss	 DWORD PTR [esp], xmm1
  001f7	51		 push	 ecx
  001f8	0f 57 c9	 xorps	 xmm1, xmm1
  001fb	f3 0f 11 0c 24	 movss	 DWORD PTR [esp], xmm1
  00200	f3 0f 11 85 08
	ff ff ff	 movss	 DWORD PTR tv248[ebp], xmm0
  00208	e8 00 00 00 00	 call	 ??$ImMax@M@@YAMMM@Z	; ImMax<float>
  0020d	83 c4 08	 add	 esp, 8
  00210	d9 9d 04 ff ff
	ff		 fstp	 DWORD PTR tv225[ebp]
  00216	f3 0f 10 45 14	 movss	 xmm0, DWORD PTR _v_max$[ebp]
  0021b	f3 0f 5c 85 04
	ff ff ff	 subss	 xmm0, DWORD PTR tv225[ebp]
  00223	f3 0f 10 8d 08
	ff ff ff	 movss	 xmm1, DWORD PTR tv248[ebp]
  0022b	f3 0f 5e c8	 divss	 xmm1, xmm0
  0022f	f3 0f 11 4d d4	 movss	 DWORD PTR _f$1[ebp], xmm1

; 2298 :             return linear_zero_pos + ImPow(f, 1.0f/power) * (1.0f - linear_zero_pos);

  00234	f3 0f 10 05 00
	00 00 00	 movss	 xmm0, DWORD PTR __real@3f800000
  0023c	f3 0f 5e 45 18	 divss	 xmm0, DWORD PTR _power$[ebp]
  00241	51		 push	 ecx
  00242	f3 0f 11 04 24	 movss	 DWORD PTR [esp], xmm0
  00247	51		 push	 ecx
  00248	f3 0f 10 45 d4	 movss	 xmm0, DWORD PTR _f$1[ebp]
  0024d	f3 0f 11 04 24	 movss	 DWORD PTR [esp], xmm0
  00252	e8 00 00 00 00	 call	 ?ImPow@@YAMMM@Z		; ImPow
  00257	83 c4 08	 add	 esp, 8
  0025a	d9 9d 0c ff ff
	ff		 fstp	 DWORD PTR tv234[ebp]
  00260	f3 0f 10 85 0c
	ff ff ff	 movss	 xmm0, DWORD PTR tv234[ebp]
  00268	f3 0f 10 0d 00
	00 00 00	 movss	 xmm1, DWORD PTR __real@3f800000
  00270	f3 0f 5c 4d 1c	 subss	 xmm1, DWORD PTR _linear_zero_pos$[ebp]
  00275	f3 0f 59 c1	 mulss	 xmm0, xmm1
  00279	f3 0f 58 45 1c	 addss	 xmm0, DWORD PTR _linear_zero_pos$[ebp]
  0027e	f3 0f 11 85 08
	ff ff ff	 movss	 DWORD PTR tv238[ebp], xmm0
  00286	d9 85 08 ff ff
	ff		 fld	 DWORD PTR tv238[ebp]
  0028c	eb 26		 jmp	 SHORT $LN1@SliderCalc
$LN5@SliderCalc:

; 2299 :         }
; 2300 :     }
; 2301 : 
; 2302 :     // Linear slider
; 2303 :     return (float)((FLOATTYPE)(v_clamped - v_min) / (FLOATTYPE)(v_max - v_min));

  0028e	f3 0f 10 45 ec	 movss	 xmm0, DWORD PTR _v_clamped$[ebp]
  00293	f3 0f 5c 45 10	 subss	 xmm0, DWORD PTR _v_min$[ebp]
  00298	f3 0f 10 4d 14	 movss	 xmm1, DWORD PTR _v_max$[ebp]
  0029d	f3 0f 5c 4d 10	 subss	 xmm1, DWORD PTR _v_min$[ebp]
  002a2	f3 0f 5e c1	 divss	 xmm0, xmm1
  002a6	f3 0f 11 85 0c
	ff ff ff	 movss	 DWORD PTR tv243[ebp], xmm0
  002ae	d9 85 0c ff ff
	ff		 fld	 DWORD PTR tv243[ebp]
$LN1@SliderCalc:

; 2304 : }

  002b4	5f		 pop	 edi
  002b5	5e		 pop	 esi
  002b6	5b		 pop	 ebx
  002b7	81 c4 fc 00 00
	00		 add	 esp, 252		; 000000fcH
  002bd	3b ec		 cmp	 ebp, esp
  002bf	e8 00 00 00 00	 call	 __RTC_CheckEsp
  002c4	8b e5		 mov	 esp, ebp
  002c6	5d		 pop	 ebp
  002c7	c3		 ret	 0
??$SliderCalcRatioFromValueT@MM@ImGui@@YAMHMMMMM@Z ENDP	; ImGui::SliderCalcRatioFromValueT<float,float>
_TEXT	ENDS
; Function compile flags: /Odtp /RTCsu /ZI
; File D:\Programmieren\csgoHack\ProjektWolf\ImGui DirectX 9 Kiero Hook 2\imgui\imgui_internal.h
;	COMDAT ??$ImMax@_K@@YA_K_K0@Z
_TEXT	SEGMENT
tv65 = -200						; size = 8
_lhs$ = 8						; size = 8
_rhs$ = 16						; size = 8
??$ImMax@_K@@YA_K_K0@Z PROC				; ImMax<unsigned __int64>, COMDAT

; 315  : template<typename T> static inline T ImMax(T lhs, T rhs)                        { return lhs >= rhs ? lhs : rhs; }

  00000	55		 push	 ebp
  00001	8b ec		 mov	 ebp, esp
  00003	81 ec c8 00 00
	00		 sub	 esp, 200		; 000000c8H
  00009	53		 push	 ebx
  0000a	56		 push	 esi
  0000b	57		 push	 edi
  0000c	8d bd 38 ff ff
	ff		 lea	 edi, DWORD PTR [ebp-200]
  00012	b9 32 00 00 00	 mov	 ecx, 50			; 00000032H
  00017	b8 cc cc cc cc	 mov	 eax, -858993460		; ccccccccH
  0001c	f3 ab		 rep stosd
  0001e	b9 00 00 00 00	 mov	 ecx, OFFSET __71512A68_imgui_internal@h
  00023	e8 00 00 00 00	 call	 @__CheckForDebuggerJustMyCode@4
  00028	8b 45 0c	 mov	 eax, DWORD PTR _lhs$[ebp+4]
  0002b	3b 45 14	 cmp	 eax, DWORD PTR _rhs$[ebp+4]
  0002e	72 1e		 jb	 SHORT $LN3@ImMax
  00030	77 08		 ja	 SHORT $LN5@ImMax
  00032	8b 4d 08	 mov	 ecx, DWORD PTR _lhs$[ebp]
  00035	3b 4d 10	 cmp	 ecx, DWORD PTR _rhs$[ebp]
  00038	72 14		 jb	 SHORT $LN3@ImMax
$LN5@ImMax:
  0003a	8b 55 08	 mov	 edx, DWORD PTR _lhs$[ebp]
  0003d	89 95 38 ff ff
	ff		 mov	 DWORD PTR tv65[ebp], edx
  00043	8b 45 0c	 mov	 eax, DWORD PTR _lhs$[ebp+4]
  00046	89 85 3c ff ff
	ff		 mov	 DWORD PTR tv65[ebp+4], eax
  0004c	eb 12		 jmp	 SHORT $LN4@ImMax
$LN3@ImMax:
  0004e	8b 4d 10	 mov	 ecx, DWORD PTR _rhs$[ebp]
  00051	89 8d 38 ff ff
	ff		 mov	 DWORD PTR tv65[ebp], ecx
  00057	8b 55 14	 mov	 edx, DWORD PTR _rhs$[ebp+4]
  0005a	89 95 3c ff ff
	ff		 mov	 DWORD PTR tv65[ebp+4], edx
$LN4@ImMax:
  00060	8b 85 38 ff ff
	ff		 mov	 eax, DWORD PTR tv65[ebp]
  00066	8b 95 3c ff ff
	ff		 mov	 edx, DWORD PTR tv65[ebp+4]
  0006c	5f		 pop	 edi
  0006d	5e		 pop	 esi
  0006e	5b		 pop	 ebx
  0006f	81 c4 c8 00 00
	00		 add	 esp, 200		; 000000c8H
  00075	3b ec		 cmp	 ebp, esp
  00077	e8 00 00 00 00	 call	 __RTC_CheckEsp
  0007c	8b e5		 mov	 esp, ebp
  0007e	5d		 pop	 ebp
  0007f	c3		 ret	 0
??$ImMax@_K@@YA_K_K0@Z ENDP				; ImMax<unsigned __int64>
_TEXT	ENDS
; Function compile flags: /Odtp /RTCsu /ZI
; File D:\Programmieren\csgoHack\ProjektWolf\ImGui DirectX 9 Kiero Hook 2\imgui\imgui_internal.h
;	COMDAT ??$ImLerp@_K@@YA_K_K0M@Z
_TEXT	SEGMENT
tv94 = -196						; size = 4
_a$ = 8							; size = 8
_b$ = 16						; size = 8
_t$ = 24						; size = 4
??$ImLerp@_K@@YA_K_K0M@Z PROC				; ImLerp<unsigned __int64>, COMDAT

; 317  : template<typename T> static inline T ImLerp(T a, T b, float t)                  { return (T)(a + (b - a) * t); }

  00000	55		 push	 ebp
  00001	8b ec		 mov	 ebp, esp
  00003	81 ec c4 00 00
	00		 sub	 esp, 196		; 000000c4H
  00009	53		 push	 ebx
  0000a	56		 push	 esi
  0000b	57		 push	 edi
  0000c	8d bd 3c ff ff
	ff		 lea	 edi, DWORD PTR [ebp-196]
  00012	b9 31 00 00 00	 mov	 ecx, 49			; 00000031H
  00017	b8 cc cc cc cc	 mov	 eax, -858993460		; ccccccccH
  0001c	f3 ab		 rep stosd
  0001e	b9 00 00 00 00	 mov	 ecx, OFFSET __71512A68_imgui_internal@h
  00023	e8 00 00 00 00	 call	 @__CheckForDebuggerJustMyCode@4
  00028	8b 55 0c	 mov	 edx, DWORD PTR _a$[ebp+4]
  0002b	8b 4d 08	 mov	 ecx, DWORD PTR _a$[ebp]
  0002e	e8 00 00 00 00	 call	 __ultod3
  00033	f2 0f 5a c0	 cvtsd2ss xmm0, xmm0
  00037	8b 4d 10	 mov	 ecx, DWORD PTR _b$[ebp]
  0003a	2b 4d 08	 sub	 ecx, DWORD PTR _a$[ebp]
  0003d	8b 55 14	 mov	 edx, DWORD PTR _b$[ebp+4]
  00040	1b 55 0c	 sbb	 edx, DWORD PTR _a$[ebp+4]
  00043	f3 0f 11 85 3c
	ff ff ff	 movss	 DWORD PTR tv94[ebp], xmm0
  0004b	e8 00 00 00 00	 call	 __ultod3
  00050	f2 0f 5a c0	 cvtsd2ss xmm0, xmm0
  00054	f3 0f 59 45 18	 mulss	 xmm0, DWORD PTR _t$[ebp]
  00059	f3 0f 10 8d 3c
	ff ff ff	 movss	 xmm1, DWORD PTR tv94[ebp]
  00061	f3 0f 58 c8	 addss	 xmm1, xmm0
  00065	0f 28 c1	 movaps	 xmm0, xmm1
  00068	e8 00 00 00 00	 call	 __ftoul3
  0006d	5f		 pop	 edi
  0006e	5e		 pop	 esi
  0006f	5b		 pop	 ebx
  00070	81 c4 c4 00 00
	00		 add	 esp, 196		; 000000c4H
  00076	3b ec		 cmp	 ebp, esp
  00078	e8 00 00 00 00	 call	 __RTC_CheckEsp
  0007d	8b e5		 mov	 esp, ebp
  0007f	5d		 pop	 ebp
  00080	c3		 ret	 0
??$ImLerp@_K@@YA_K_K0M@Z ENDP				; ImLerp<unsigned __int64>
_TEXT	ENDS
; Function compile flags: /Odtp /RTCsu /ZI
; File D:\Programmieren\csgoHack\ProjektWolf\ImGui DirectX 9 Kiero Hook 2\imgui\imgui_internal.h
;	COMDAT ??$ImMin@_K@@YA_K_K0@Z
_TEXT	SEGMENT
tv65 = -200						; size = 8
_lhs$ = 8						; size = 8
_rhs$ = 16						; size = 8
??$ImMin@_K@@YA_K_K0@Z PROC				; ImMin<unsigned __int64>, COMDAT

; 314  : template<typename T> static inline T ImMin(T lhs, T rhs)                        { return lhs < rhs ? lhs : rhs; }

  00000	55		 push	 ebp
  00001	8b ec		 mov	 ebp, esp
  00003	81 ec c8 00 00
	00		 sub	 esp, 200		; 000000c8H
  00009	53		 push	 ebx
  0000a	56		 push	 esi
  0000b	57		 push	 edi
  0000c	8d bd 38 ff ff
	ff		 lea	 edi, DWORD PTR [ebp-200]
  00012	b9 32 00 00 00	 mov	 ecx, 50			; 00000032H
  00017	b8 cc cc cc cc	 mov	 eax, -858993460		; ccccccccH
  0001c	f3 ab		 rep stosd
  0001e	b9 00 00 00 00	 mov	 ecx, OFFSET __71512A68_imgui_internal@h
  00023	e8 00 00 00 00	 call	 @__CheckForDebuggerJustMyCode@4
  00028	8b 45 0c	 mov	 eax, DWORD PTR _lhs$[ebp+4]
  0002b	3b 45 14	 cmp	 eax, DWORD PTR _rhs$[ebp+4]
  0002e	77 1e		 ja	 SHORT $LN3@ImMin
  00030	72 08		 jb	 SHORT $LN5@ImMin
  00032	8b 4d 08	 mov	 ecx, DWORD PTR _lhs$[ebp]
  00035	3b 4d 10	 cmp	 ecx, DWORD PTR _rhs$[ebp]
  00038	73 14		 jae	 SHORT $LN3@ImMin
$LN5@ImMin:
  0003a	8b 55 08	 mov	 edx, DWORD PTR _lhs$[ebp]
  0003d	89 95 38 ff ff
	ff		 mov	 DWORD PTR tv65[ebp], edx
  00043	8b 45 0c	 mov	 eax, DWORD PTR _lhs$[ebp+4]
  00046	89 85 3c ff ff
	ff		 mov	 DWORD PTR tv65[ebp+4], eax
  0004c	eb 12		 jmp	 SHORT $LN4@ImMin
$LN3@ImMin:
  0004e	8b 4d 10	 mov	 ecx, DWORD PTR _rhs$[ebp]
  00051	89 8d 38 ff ff
	ff		 mov	 DWORD PTR tv65[ebp], ecx
  00057	8b 55 14	 mov	 edx, DWORD PTR _rhs$[ebp+4]
  0005a	89 95 3c ff ff
	ff		 mov	 DWORD PTR tv65[ebp+4], edx
$LN4@ImMin:
  00060	8b 85 38 ff ff
	ff		 mov	 eax, DWORD PTR tv65[ebp]
  00066	8b 95 3c ff ff
	ff		 mov	 edx, DWORD PTR tv65[ebp+4]
  0006c	5f		 pop	 edi
  0006d	5e		 pop	 esi
  0006e	5b		 pop	 ebx
  0006f	81 c4 c8 00 00
	00		 add	 esp, 200		; 000000c8H
  00075	3b ec		 cmp	 ebp, esp
  00077	e8 00 00 00 00	 call	 __RTC_CheckEsp
  0007c	8b e5		 mov	 esp, ebp
  0007e	5d		 pop	 ebp
  0007f	c3		 ret	 0
??$ImMin@_K@@YA_K_K0@Z ENDP				; ImMin<unsigned __int64>
_TEXT	ENDS
; Function compile flags: /Odtp /RTCsu /ZI
; File D:\Programmieren\csgoHack\ProjektWolf\ImGui DirectX 9 Kiero Hook 2\imgui\imgui_widgets.cpp
;	COMDAT ??$SliderCalcRatioFromValueT@_KN@ImGui@@YAMH_K00MM@Z
_TEXT	SEGMENT
tv337 = -256						; size = 4
tv340 = -252						; size = 8
tv318 = -252						; size = 4
tv258 = -252						; size = 4
tv78 = -252						; size = 8
tv314 = -248						; size = 4
tv255 = -248						; size = 4
tv68 = -245						; size = 1
_f$1 = -48						; size = 4
_f$2 = -36						; size = 4
_v_clamped$ = -24					; size = 8
_is_power$ = -5						; size = 1
_data_type$ = 8						; size = 4
_v$ = 12						; size = 8
_v_min$ = 20						; size = 8
_v_max$ = 28						; size = 8
_power$ = 36						; size = 4
_linear_zero_pos$ = 40					; size = 4
??$SliderCalcRatioFromValueT@_KN@ImGui@@YAMH_K00MM@Z PROC ; ImGui::SliderCalcRatioFromValueT<unsigned __int64,double>, COMDAT

; 2282 : {

  00000	55		 push	 ebp
  00001	8b ec		 mov	 ebp, esp
  00003	81 ec 00 01 00
	00		 sub	 esp, 256		; 00000100H
  00009	53		 push	 ebx
  0000a	56		 push	 esi
  0000b	57		 push	 edi
  0000c	8d bd 00 ff ff
	ff		 lea	 edi, DWORD PTR [ebp-256]
  00012	b9 40 00 00 00	 mov	 ecx, 64			; 00000040H
  00017	b8 cc cc cc cc	 mov	 eax, -858993460		; ccccccccH
  0001c	f3 ab		 rep stosd
  0001e	b9 00 00 00 00	 mov	 ecx, OFFSET __32F429E7_imgui_widgets@cpp
  00023	e8 00 00 00 00	 call	 @__CheckForDebuggerJustMyCode@4

; 2283 :     if (v_min == v_max)

  00028	8b 45 14	 mov	 eax, DWORD PTR _v_min$[ebp]
  0002b	3b 45 1c	 cmp	 eax, DWORD PTR _v_max$[ebp]
  0002e	75 0f		 jne	 SHORT $LN2@SliderCalc
  00030	8b 4d 18	 mov	 ecx, DWORD PTR _v_min$[ebp+4]
  00033	3b 4d 20	 cmp	 ecx, DWORD PTR _v_max$[ebp+4]
  00036	75 07		 jne	 SHORT $LN2@SliderCalc

; 2284 :         return 0.0f;

  00038	d9 ee		 fldz
  0003a	e9 77 02 00 00	 jmp	 $LN1@SliderCalc
$LN2@SliderCalc:

; 2285 : 
; 2286 :     const bool is_power = (power != 1.0f) && (data_type == ImGuiDataType_Float || data_type == ImGuiDataType_Double);

  0003f	f3 0f 10 45 24	 movss	 xmm0, DWORD PTR _power$[ebp]
  00044	0f 2e 05 00 00
	00 00		 ucomiss xmm0, DWORD PTR __real@3f800000
  0004b	9f		 lahf
  0004c	f6 c4 44	 test	 ah, 68			; 00000044H
  0004f	7b 15		 jnp	 SHORT $LN8@SliderCalc
  00051	83 7d 08 08	 cmp	 DWORD PTR _data_type$[ebp], 8
  00055	74 06		 je	 SHORT $LN7@SliderCalc
  00057	83 7d 08 09	 cmp	 DWORD PTR _data_type$[ebp], 9
  0005b	75 09		 jne	 SHORT $LN8@SliderCalc
$LN7@SliderCalc:
  0005d	c6 85 0b ff ff
	ff 01		 mov	 BYTE PTR tv68[ebp], 1
  00064	eb 07		 jmp	 SHORT $LN9@SliderCalc
$LN8@SliderCalc:
  00066	c6 85 0b ff ff
	ff 00		 mov	 BYTE PTR tv68[ebp], 0
$LN9@SliderCalc:
  0006d	8a 85 0b ff ff
	ff		 mov	 al, BYTE PTR tv68[ebp]
  00073	88 45 fb	 mov	 BYTE PTR _is_power$[ebp], al

; 2287 :     const TYPE v_clamped = (v_min < v_max) ? ImClamp(v, v_min, v_max) : ImClamp(v, v_max, v_min);

  00076	8b 45 18	 mov	 eax, DWORD PTR _v_min$[ebp+4]
  00079	3b 45 20	 cmp	 eax, DWORD PTR _v_max$[ebp+4]
  0007c	77 38		 ja	 SHORT $LN10@SliderCalc
  0007e	72 08		 jb	 SHORT $LN12@SliderCalc
  00080	8b 4d 14	 mov	 ecx, DWORD PTR _v_min$[ebp]
  00083	3b 4d 1c	 cmp	 ecx, DWORD PTR _v_max$[ebp]
  00086	73 2e		 jae	 SHORT $LN10@SliderCalc
$LN12@SliderCalc:
  00088	8b 55 20	 mov	 edx, DWORD PTR _v_max$[ebp+4]
  0008b	52		 push	 edx
  0008c	8b 45 1c	 mov	 eax, DWORD PTR _v_max$[ebp]
  0008f	50		 push	 eax
  00090	8b 4d 18	 mov	 ecx, DWORD PTR _v_min$[ebp+4]
  00093	51		 push	 ecx
  00094	8b 55 14	 mov	 edx, DWORD PTR _v_min$[ebp]
  00097	52		 push	 edx
  00098	8b 45 10	 mov	 eax, DWORD PTR _v$[ebp+4]
  0009b	50		 push	 eax
  0009c	8b 4d 0c	 mov	 ecx, DWORD PTR _v$[ebp]
  0009f	51		 push	 ecx
  000a0	e8 00 00 00 00	 call	 ??$ImClamp@_K@@YA_K_K00@Z ; ImClamp<unsigned __int64>
  000a5	83 c4 18	 add	 esp, 24			; 00000018H
  000a8	89 85 04 ff ff
	ff		 mov	 DWORD PTR tv78[ebp], eax
  000ae	89 95 08 ff ff
	ff		 mov	 DWORD PTR tv78[ebp+4], edx
  000b4	eb 2c		 jmp	 SHORT $LN11@SliderCalc
$LN10@SliderCalc:
  000b6	8b 55 18	 mov	 edx, DWORD PTR _v_min$[ebp+4]
  000b9	52		 push	 edx
  000ba	8b 45 14	 mov	 eax, DWORD PTR _v_min$[ebp]
  000bd	50		 push	 eax
  000be	8b 4d 20	 mov	 ecx, DWORD PTR _v_max$[ebp+4]
  000c1	51		 push	 ecx
  000c2	8b 55 1c	 mov	 edx, DWORD PTR _v_max$[ebp]
  000c5	52		 push	 edx
  000c6	8b 45 10	 mov	 eax, DWORD PTR _v$[ebp+4]
  000c9	50		 push	 eax
  000ca	8b 4d 0c	 mov	 ecx, DWORD PTR _v$[ebp]
  000cd	51		 push	 ecx
  000ce	e8 00 00 00 00	 call	 ??$ImClamp@_K@@YA_K_K00@Z ; ImClamp<unsigned __int64>
  000d3	83 c4 18	 add	 esp, 24			; 00000018H
  000d6	89 85 04 ff ff
	ff		 mov	 DWORD PTR tv78[ebp], eax
  000dc	89 95 08 ff ff
	ff		 mov	 DWORD PTR tv78[ebp+4], edx
$LN11@SliderCalc:
  000e2	8b 95 04 ff ff
	ff		 mov	 edx, DWORD PTR tv78[ebp]
  000e8	89 55 e8	 mov	 DWORD PTR _v_clamped$[ebp], edx
  000eb	8b 85 08 ff ff
	ff		 mov	 eax, DWORD PTR tv78[ebp+4]
  000f1	89 45 ec	 mov	 DWORD PTR _v_clamped$[ebp+4], eax

; 2288 :     if (is_power)

  000f4	0f b6 45 fb	 movzx	 eax, BYTE PTR _is_power$[ebp]
  000f8	85 c0		 test	 eax, eax
  000fa	0f 84 6e 01 00
	00		 je	 $LN5@SliderCalc

; 2289 :     {
; 2290 :         if (v_clamped < 0.0f)

  00100	8b 55 ec	 mov	 edx, DWORD PTR _v_clamped$[ebp+4]
  00103	8b 4d e8	 mov	 ecx, DWORD PTR _v_clamped$[ebp]
  00106	e8 00 00 00 00	 call	 __ultod3
  0010b	f2 0f 5a c0	 cvtsd2ss xmm0, xmm0
  0010f	0f 57 c9	 xorps	 xmm1, xmm1
  00112	0f 2f c8	 comiss	 xmm1, xmm0
  00115	0f 86 a4 00 00
	00		 jbe	 $LN4@SliderCalc

; 2291 :         {
; 2292 :             const float f = 1.0f - (float)((v_clamped - v_min) / (ImMin((TYPE)0, v_max) - v_min));

  0011b	8b 75 e8	 mov	 esi, DWORD PTR _v_clamped$[ebp]
  0011e	2b 75 14	 sub	 esi, DWORD PTR _v_min$[ebp]
  00121	8b 7d ec	 mov	 edi, DWORD PTR _v_clamped$[ebp+4]
  00124	1b 7d 18	 sbb	 edi, DWORD PTR _v_min$[ebp+4]
  00127	8b 45 20	 mov	 eax, DWORD PTR _v_max$[ebp+4]
  0012a	50		 push	 eax
  0012b	8b 4d 1c	 mov	 ecx, DWORD PTR _v_max$[ebp]
  0012e	51		 push	 ecx
  0012f	6a 00		 push	 0
  00131	6a 00		 push	 0
  00133	e8 00 00 00 00	 call	 ??$ImMin@_K@@YA_K_K0@Z	; ImMin<unsigned __int64>
  00138	83 c4 10	 add	 esp, 16			; 00000010H
  0013b	2b 45 14	 sub	 eax, DWORD PTR _v_min$[ebp]
  0013e	1b 55 18	 sbb	 edx, DWORD PTR _v_min$[ebp+4]
  00141	52		 push	 edx
  00142	50		 push	 eax
  00143	57		 push	 edi
  00144	56		 push	 esi
  00145	e8 00 00 00 00	 call	 __aulldiv
  0014a	8b c8		 mov	 ecx, eax
  0014c	e8 00 00 00 00	 call	 __ultod3
  00151	f2 0f 5a c0	 cvtsd2ss xmm0, xmm0
  00155	f3 0f 10 0d 00
	00 00 00	 movss	 xmm1, DWORD PTR __real@3f800000
  0015d	f3 0f 5c c8	 subss	 xmm1, xmm0
  00161	f3 0f 11 4d dc	 movss	 DWORD PTR _f$2[ebp], xmm1

; 2293 :             return (1.0f - ImPow(f, 1.0f/power)) * linear_zero_pos;

  00166	f3 0f 10 05 00
	00 00 00	 movss	 xmm0, DWORD PTR __real@3f800000
  0016e	f3 0f 5e 45 24	 divss	 xmm0, DWORD PTR _power$[ebp]
  00173	51		 push	 ecx
  00174	f3 0f 11 04 24	 movss	 DWORD PTR [esp], xmm0
  00179	51		 push	 ecx
  0017a	f3 0f 10 45 dc	 movss	 xmm0, DWORD PTR _f$2[ebp]
  0017f	f3 0f 11 04 24	 movss	 DWORD PTR [esp], xmm0
  00184	e8 00 00 00 00	 call	 ?ImPow@@YAMMM@Z		; ImPow
  00189	83 c4 08	 add	 esp, 8
  0018c	d9 9d 08 ff ff
	ff		 fstp	 DWORD PTR tv255[ebp]
  00192	f3 0f 10 05 00
	00 00 00	 movss	 xmm0, DWORD PTR __real@3f800000
  0019a	f3 0f 5c 85 08
	ff ff ff	 subss	 xmm0, DWORD PTR tv255[ebp]
  001a2	f3 0f 59 45 28	 mulss	 xmm0, DWORD PTR _linear_zero_pos$[ebp]
  001a7	f3 0f 11 85 04
	ff ff ff	 movss	 DWORD PTR tv258[ebp], xmm0
  001af	d9 85 04 ff ff
	ff		 fld	 DWORD PTR tv258[ebp]
  001b5	e9 fc 00 00 00	 jmp	 $LN1@SliderCalc

; 2294 :         }

  001ba	e9 af 00 00 00	 jmp	 $LN5@SliderCalc
$LN4@SliderCalc:

; 2295 :         else
; 2296 :         {
; 2297 :             const float f = (float)((v_clamped - ImMax((TYPE)0, v_min)) / (v_max - ImMax((TYPE)0, v_min)));

  001bf	8b 45 18	 mov	 eax, DWORD PTR _v_min$[ebp+4]
  001c2	50		 push	 eax
  001c3	8b 4d 14	 mov	 ecx, DWORD PTR _v_min$[ebp]
  001c6	51		 push	 ecx
  001c7	6a 00		 push	 0
  001c9	6a 00		 push	 0
  001cb	e8 00 00 00 00	 call	 ??$ImMax@_K@@YA_K_K0@Z	; ImMax<unsigned __int64>
  001d0	83 c4 10	 add	 esp, 16			; 00000010H
  001d3	8b 75 e8	 mov	 esi, DWORD PTR _v_clamped$[ebp]
  001d6	2b f0		 sub	 esi, eax
  001d8	8b 7d ec	 mov	 edi, DWORD PTR _v_clamped$[ebp+4]
  001db	1b fa		 sbb	 edi, edx
  001dd	8b 55 18	 mov	 edx, DWORD PTR _v_min$[ebp+4]
  001e0	52		 push	 edx
  001e1	8b 45 14	 mov	 eax, DWORD PTR _v_min$[ebp]
  001e4	50		 push	 eax
  001e5	6a 00		 push	 0
  001e7	6a 00		 push	 0
  001e9	e8 00 00 00 00	 call	 ??$ImMax@_K@@YA_K_K0@Z	; ImMax<unsigned __int64>
  001ee	83 c4 10	 add	 esp, 16			; 00000010H
  001f1	8b 4d 1c	 mov	 ecx, DWORD PTR _v_max$[ebp]
  001f4	2b c8		 sub	 ecx, eax
  001f6	8b 45 20	 mov	 eax, DWORD PTR _v_max$[ebp+4]
  001f9	1b c2		 sbb	 eax, edx
  001fb	50		 push	 eax
  001fc	51		 push	 ecx
  001fd	57		 push	 edi
  001fe	56		 push	 esi
  001ff	e8 00 00 00 00	 call	 __aulldiv
  00204	8b c8		 mov	 ecx, eax
  00206	e8 00 00 00 00	 call	 __ultod3
  0020b	f2 0f 5a c0	 cvtsd2ss xmm0, xmm0
  0020f	f3 0f 11 45 d0	 movss	 DWORD PTR _f$1[ebp], xmm0

; 2298 :             return linear_zero_pos + ImPow(f, 1.0f/power) * (1.0f - linear_zero_pos);

  00214	f3 0f 10 05 00
	00 00 00	 movss	 xmm0, DWORD PTR __real@3f800000
  0021c	f3 0f 5e 45 24	 divss	 xmm0, DWORD PTR _power$[ebp]
  00221	51		 push	 ecx
  00222	f3 0f 11 04 24	 movss	 DWORD PTR [esp], xmm0
  00227	51		 push	 ecx
  00228	f3 0f 10 45 d0	 movss	 xmm0, DWORD PTR _f$1[ebp]
  0022d	f3 0f 11 04 24	 movss	 DWORD PTR [esp], xmm0
  00232	e8 00 00 00 00	 call	 ?ImPow@@YAMMM@Z		; ImPow
  00237	83 c4 08	 add	 esp, 8
  0023a	d9 9d 08 ff ff
	ff		 fstp	 DWORD PTR tv314[ebp]
  00240	f3 0f 10 85 08
	ff ff ff	 movss	 xmm0, DWORD PTR tv314[ebp]
  00248	f3 0f 10 0d 00
	00 00 00	 movss	 xmm1, DWORD PTR __real@3f800000
  00250	f3 0f 5c 4d 28	 subss	 xmm1, DWORD PTR _linear_zero_pos$[ebp]
  00255	f3 0f 59 c1	 mulss	 xmm0, xmm1
  00259	f3 0f 58 45 28	 addss	 xmm0, DWORD PTR _linear_zero_pos$[ebp]
  0025e	f3 0f 11 85 04
	ff ff ff	 movss	 DWORD PTR tv318[ebp], xmm0
  00266	d9 85 04 ff ff
	ff		 fld	 DWORD PTR tv318[ebp]
  0026c	eb 48		 jmp	 SHORT $LN1@SliderCalc
$LN5@SliderCalc:

; 2299 :         }
; 2300 :     }
; 2301 : 
; 2302 :     // Linear slider
; 2303 :     return (float)((FLOATTYPE)(v_clamped - v_min) / (FLOATTYPE)(v_max - v_min));

  0026e	8b 4d e8	 mov	 ecx, DWORD PTR _v_clamped$[ebp]
  00271	2b 4d 14	 sub	 ecx, DWORD PTR _v_min$[ebp]
  00274	8b 55 ec	 mov	 edx, DWORD PTR _v_clamped$[ebp+4]
  00277	1b 55 18	 sbb	 edx, DWORD PTR _v_min$[ebp+4]
  0027a	e8 00 00 00 00	 call	 __ultod3
  0027f	8b 4d 1c	 mov	 ecx, DWORD PTR _v_max$[ebp]
  00282	2b 4d 14	 sub	 ecx, DWORD PTR _v_min$[ebp]
  00285	8b 55 20	 mov	 edx, DWORD PTR _v_max$[ebp+4]
  00288	1b 55 18	 sbb	 edx, DWORD PTR _v_min$[ebp+4]
  0028b	f2 0f 11 85 04
	ff ff ff	 movsd	 QWORD PTR tv340[ebp], xmm0
  00293	e8 00 00 00 00	 call	 __ultod3
  00298	f2 0f 10 8d 04
	ff ff ff	 movsd	 xmm1, QWORD PTR tv340[ebp]
  002a0	f2 0f 5e c8	 divsd	 xmm1, xmm0
  002a4	f2 0f 5a c1	 cvtsd2ss xmm0, xmm1
  002a8	f3 0f 11 85 00
	ff ff ff	 movss	 DWORD PTR tv337[ebp], xmm0
  002b0	d9 85 00 ff ff
	ff		 fld	 DWORD PTR tv337[ebp]
$LN1@SliderCalc:

; 2304 : }

  002b6	5f		 pop	 edi
  002b7	5e		 pop	 esi
  002b8	5b		 pop	 ebx
  002b9	81 c4 00 01 00
	00		 add	 esp, 256		; 00000100H
  002bf	3b ec		 cmp	 ebp, esp
  002c1	e8 00 00 00 00	 call	 __RTC_CheckEsp
  002c6	8b e5		 mov	 esp, ebp
  002c8	5d		 pop	 ebp
  002c9	c3		 ret	 0
??$SliderCalcRatioFromValueT@_KN@ImGui@@YAMH_K00MM@Z ENDP ; ImGui::SliderCalcRatioFromValueT<unsigned __int64,double>
_TEXT	ENDS
; Function compile flags: /Odtp /RTCsu /ZI
; File D:\Programmieren\csgoHack\ProjektWolf\ImGui DirectX 9 Kiero Hook 2\imgui\imgui_internal.h
;	COMDAT ??$ImMax@_J@@YA_J_J0@Z
_TEXT	SEGMENT
tv65 = -200						; size = 8
_lhs$ = 8						; size = 8
_rhs$ = 16						; size = 8
??$ImMax@_J@@YA_J_J0@Z PROC				; ImMax<__int64>, COMDAT

; 315  : template<typename T> static inline T ImMax(T lhs, T rhs)                        { return lhs >= rhs ? lhs : rhs; }

  00000	55		 push	 ebp
  00001	8b ec		 mov	 ebp, esp
  00003	81 ec c8 00 00
	00		 sub	 esp, 200		; 000000c8H
  00009	53		 push	 ebx
  0000a	56		 push	 esi
  0000b	57		 push	 edi
  0000c	8d bd 38 ff ff
	ff		 lea	 edi, DWORD PTR [ebp-200]
  00012	b9 32 00 00 00	 mov	 ecx, 50			; 00000032H
  00017	b8 cc cc cc cc	 mov	 eax, -858993460		; ccccccccH
  0001c	f3 ab		 rep stosd
  0001e	b9 00 00 00 00	 mov	 ecx, OFFSET __71512A68_imgui_internal@h
  00023	e8 00 00 00 00	 call	 @__CheckForDebuggerJustMyCode@4
  00028	8b 45 0c	 mov	 eax, DWORD PTR _lhs$[ebp+4]
  0002b	3b 45 14	 cmp	 eax, DWORD PTR _rhs$[ebp+4]
  0002e	7c 1e		 jl	 SHORT $LN3@ImMax
  00030	7f 08		 jg	 SHORT $LN5@ImMax
  00032	8b 4d 08	 mov	 ecx, DWORD PTR _lhs$[ebp]
  00035	3b 4d 10	 cmp	 ecx, DWORD PTR _rhs$[ebp]
  00038	72 14		 jb	 SHORT $LN3@ImMax
$LN5@ImMax:
  0003a	8b 55 08	 mov	 edx, DWORD PTR _lhs$[ebp]
  0003d	89 95 38 ff ff
	ff		 mov	 DWORD PTR tv65[ebp], edx
  00043	8b 45 0c	 mov	 eax, DWORD PTR _lhs$[ebp+4]
  00046	89 85 3c ff ff
	ff		 mov	 DWORD PTR tv65[ebp+4], eax
  0004c	eb 12		 jmp	 SHORT $LN4@ImMax
$LN3@ImMax:
  0004e	8b 4d 10	 mov	 ecx, DWORD PTR _rhs$[ebp]
  00051	89 8d 38 ff ff
	ff		 mov	 DWORD PTR tv65[ebp], ecx
  00057	8b 55 14	 mov	 edx, DWORD PTR _rhs$[ebp+4]
  0005a	89 95 3c ff ff
	ff		 mov	 DWORD PTR tv65[ebp+4], edx
$LN4@ImMax:
  00060	8b 85 38 ff ff
	ff		 mov	 eax, DWORD PTR tv65[ebp]
  00066	8b 95 3c ff ff
	ff		 mov	 edx, DWORD PTR tv65[ebp+4]
  0006c	5f		 pop	 edi
  0006d	5e		 pop	 esi
  0006e	5b		 pop	 ebx
  0006f	81 c4 c8 00 00
	00		 add	 esp, 200		; 000000c8H
  00075	3b ec		 cmp	 ebp, esp
  00077	e8 00 00 00 00	 call	 __RTC_CheckEsp
  0007c	8b e5		 mov	 esp, ebp
  0007e	5d		 pop	 ebp
  0007f	c3		 ret	 0
??$ImMax@_J@@YA_J_J0@Z ENDP				; ImMax<__int64>
_TEXT	ENDS
; Function compile flags: /Odtp /RTCsu /ZI
; File D:\Programmieren\csgoHack\ProjektWolf\ImGui DirectX 9 Kiero Hook 2\imgui\imgui_internal.h
;	COMDAT ??$ImLerp@_J@@YA_J_J0M@Z
_TEXT	SEGMENT
tv94 = -196						; size = 4
_a$ = 8							; size = 8
_b$ = 16						; size = 8
_t$ = 24						; size = 4
??$ImLerp@_J@@YA_J_J0M@Z PROC				; ImLerp<__int64>, COMDAT

; 317  : template<typename T> static inline T ImLerp(T a, T b, float t)                  { return (T)(a + (b - a) * t); }

  00000	55		 push	 ebp
  00001	8b ec		 mov	 ebp, esp
  00003	81 ec c4 00 00
	00		 sub	 esp, 196		; 000000c4H
  00009	53		 push	 ebx
  0000a	56		 push	 esi
  0000b	57		 push	 edi
  0000c	8d bd 3c ff ff
	ff		 lea	 edi, DWORD PTR [ebp-196]
  00012	b9 31 00 00 00	 mov	 ecx, 49			; 00000031H
  00017	b8 cc cc cc cc	 mov	 eax, -858993460		; ccccccccH
  0001c	f3 ab		 rep stosd
  0001e	b9 00 00 00 00	 mov	 ecx, OFFSET __71512A68_imgui_internal@h
  00023	e8 00 00 00 00	 call	 @__CheckForDebuggerJustMyCode@4
  00028	8b 55 0c	 mov	 edx, DWORD PTR _a$[ebp+4]
  0002b	8b 4d 08	 mov	 ecx, DWORD PTR _a$[ebp]
  0002e	e8 00 00 00 00	 call	 __ltod3
  00033	f2 0f 5a c0	 cvtsd2ss xmm0, xmm0
  00037	8b 4d 10	 mov	 ecx, DWORD PTR _b$[ebp]
  0003a	2b 4d 08	 sub	 ecx, DWORD PTR _a$[ebp]
  0003d	8b 55 14	 mov	 edx, DWORD PTR _b$[ebp+4]
  00040	1b 55 0c	 sbb	 edx, DWORD PTR _a$[ebp+4]
  00043	f3 0f 11 85 3c
	ff ff ff	 movss	 DWORD PTR tv94[ebp], xmm0
  0004b	e8 00 00 00 00	 call	 __ltod3
  00050	f2 0f 5a c0	 cvtsd2ss xmm0, xmm0
  00054	f3 0f 59 45 18	 mulss	 xmm0, DWORD PTR _t$[ebp]
  00059	f3 0f 10 8d 3c
	ff ff ff	 movss	 xmm1, DWORD PTR tv94[ebp]
  00061	f3 0f 58 c8	 addss	 xmm1, xmm0
  00065	0f 28 c1	 movaps	 xmm0, xmm1
  00068	e8 00 00 00 00	 call	 __ftol3
  0006d	5f		 pop	 edi
  0006e	5e		 pop	 esi
  0006f	5b		 pop	 ebx
  00070	81 c4 c4 00 00
	00		 add	 esp, 196		; 000000c4H
  00076	3b ec		 cmp	 ebp, esp
  00078	e8 00 00 00 00	 call	 __RTC_CheckEsp
  0007d	8b e5		 mov	 esp, ebp
  0007f	5d		 pop	 ebp
  00080	c3		 ret	 0
??$ImLerp@_J@@YA_J_J0M@Z ENDP				; ImLerp<__int64>
_TEXT	ENDS
; Function compile flags: /Odtp /RTCsu /ZI
; File D:\Programmieren\csgoHack\ProjektWolf\ImGui DirectX 9 Kiero Hook 2\imgui\imgui_internal.h
;	COMDAT ??$ImMin@_J@@YA_J_J0@Z
_TEXT	SEGMENT
tv65 = -200						; size = 8
_lhs$ = 8						; size = 8
_rhs$ = 16						; size = 8
??$ImMin@_J@@YA_J_J0@Z PROC				; ImMin<__int64>, COMDAT

; 314  : template<typename T> static inline T ImMin(T lhs, T rhs)                        { return lhs < rhs ? lhs : rhs; }

  00000	55		 push	 ebp
  00001	8b ec		 mov	 ebp, esp
  00003	81 ec c8 00 00
	00		 sub	 esp, 200		; 000000c8H
  00009	53		 push	 ebx
  0000a	56		 push	 esi
  0000b	57		 push	 edi
  0000c	8d bd 38 ff ff
	ff		 lea	 edi, DWORD PTR [ebp-200]
  00012	b9 32 00 00 00	 mov	 ecx, 50			; 00000032H
  00017	b8 cc cc cc cc	 mov	 eax, -858993460		; ccccccccH
  0001c	f3 ab		 rep stosd
  0001e	b9 00 00 00 00	 mov	 ecx, OFFSET __71512A68_imgui_internal@h
  00023	e8 00 00 00 00	 call	 @__CheckForDebuggerJustMyCode@4
  00028	8b 45 0c	 mov	 eax, DWORD PTR _lhs$[ebp+4]
  0002b	3b 45 14	 cmp	 eax, DWORD PTR _rhs$[ebp+4]
  0002e	7f 1e		 jg	 SHORT $LN3@ImMin
  00030	7c 08		 jl	 SHORT $LN5@ImMin
  00032	8b 4d 08	 mov	 ecx, DWORD PTR _lhs$[ebp]
  00035	3b 4d 10	 cmp	 ecx, DWORD PTR _rhs$[ebp]
  00038	73 14		 jae	 SHORT $LN3@ImMin
$LN5@ImMin:
  0003a	8b 55 08	 mov	 edx, DWORD PTR _lhs$[ebp]
  0003d	89 95 38 ff ff
	ff		 mov	 DWORD PTR tv65[ebp], edx
  00043	8b 45 0c	 mov	 eax, DWORD PTR _lhs$[ebp+4]
  00046	89 85 3c ff ff
	ff		 mov	 DWORD PTR tv65[ebp+4], eax
  0004c	eb 12		 jmp	 SHORT $LN4@ImMin
$LN3@ImMin:
  0004e	8b 4d 10	 mov	 ecx, DWORD PTR _rhs$[ebp]
  00051	89 8d 38 ff ff
	ff		 mov	 DWORD PTR tv65[ebp], ecx
  00057	8b 55 14	 mov	 edx, DWORD PTR _rhs$[ebp+4]
  0005a	89 95 3c ff ff
	ff		 mov	 DWORD PTR tv65[ebp+4], edx
$LN4@ImMin:
  00060	8b 85 38 ff ff
	ff		 mov	 eax, DWORD PTR tv65[ebp]
  00066	8b 95 3c ff ff
	ff		 mov	 edx, DWORD PTR tv65[ebp+4]
  0006c	5f		 pop	 edi
  0006d	5e		 pop	 esi
  0006e	5b		 pop	 ebx
  0006f	81 c4 c8 00 00
	00		 add	 esp, 200		; 000000c8H
  00075	3b ec		 cmp	 ebp, esp
  00077	e8 00 00 00 00	 call	 __RTC_CheckEsp
  0007c	8b e5		 mov	 esp, ebp
  0007e	5d		 pop	 ebp
  0007f	c3		 ret	 0
??$ImMin@_J@@YA_J_J0@Z ENDP				; ImMin<__int64>
_TEXT	ENDS
; Function compile flags: /Odtp /RTCsu /ZI
; File D:\Programmieren\csgoHack\ProjektWolf\ImGui DirectX 9 Kiero Hook 2\imgui\imgui_widgets.cpp
;	COMDAT ??$SliderCalcRatioFromValueT@_JN@ImGui@@YAMH_J00MM@Z
_TEXT	SEGMENT
tv337 = -256						; size = 4
tv340 = -252						; size = 8
tv318 = -252						; size = 4
tv258 = -252						; size = 4
tv78 = -252						; size = 8
tv314 = -248						; size = 4
tv255 = -248						; size = 4
tv68 = -245						; size = 1
_f$1 = -48						; size = 4
_f$2 = -36						; size = 4
_v_clamped$ = -24					; size = 8
_is_power$ = -5						; size = 1
_data_type$ = 8						; size = 4
_v$ = 12						; size = 8
_v_min$ = 20						; size = 8
_v_max$ = 28						; size = 8
_power$ = 36						; size = 4
_linear_zero_pos$ = 40					; size = 4
??$SliderCalcRatioFromValueT@_JN@ImGui@@YAMH_J00MM@Z PROC ; ImGui::SliderCalcRatioFromValueT<__int64,double>, COMDAT

; 2282 : {

  00000	55		 push	 ebp
  00001	8b ec		 mov	 ebp, esp
  00003	81 ec 00 01 00
	00		 sub	 esp, 256		; 00000100H
  00009	53		 push	 ebx
  0000a	56		 push	 esi
  0000b	57		 push	 edi
  0000c	8d bd 00 ff ff
	ff		 lea	 edi, DWORD PTR [ebp-256]
  00012	b9 40 00 00 00	 mov	 ecx, 64			; 00000040H
  00017	b8 cc cc cc cc	 mov	 eax, -858993460		; ccccccccH
  0001c	f3 ab		 rep stosd
  0001e	b9 00 00 00 00	 mov	 ecx, OFFSET __32F429E7_imgui_widgets@cpp
  00023	e8 00 00 00 00	 call	 @__CheckForDebuggerJustMyCode@4

; 2283 :     if (v_min == v_max)

  00028	8b 45 14	 mov	 eax, DWORD PTR _v_min$[ebp]
  0002b	3b 45 1c	 cmp	 eax, DWORD PTR _v_max$[ebp]
  0002e	75 0f		 jne	 SHORT $LN2@SliderCalc
  00030	8b 4d 18	 mov	 ecx, DWORD PTR _v_min$[ebp+4]
  00033	3b 4d 20	 cmp	 ecx, DWORD PTR _v_max$[ebp+4]
  00036	75 07		 jne	 SHORT $LN2@SliderCalc

; 2284 :         return 0.0f;

  00038	d9 ee		 fldz
  0003a	e9 77 02 00 00	 jmp	 $LN1@SliderCalc
$LN2@SliderCalc:

; 2285 : 
; 2286 :     const bool is_power = (power != 1.0f) && (data_type == ImGuiDataType_Float || data_type == ImGuiDataType_Double);

  0003f	f3 0f 10 45 24	 movss	 xmm0, DWORD PTR _power$[ebp]
  00044	0f 2e 05 00 00
	00 00		 ucomiss xmm0, DWORD PTR __real@3f800000
  0004b	9f		 lahf
  0004c	f6 c4 44	 test	 ah, 68			; 00000044H
  0004f	7b 15		 jnp	 SHORT $LN8@SliderCalc
  00051	83 7d 08 08	 cmp	 DWORD PTR _data_type$[ebp], 8
  00055	74 06		 je	 SHORT $LN7@SliderCalc
  00057	83 7d 08 09	 cmp	 DWORD PTR _data_type$[ebp], 9
  0005b	75 09		 jne	 SHORT $LN8@SliderCalc
$LN7@SliderCalc:
  0005d	c6 85 0b ff ff
	ff 01		 mov	 BYTE PTR tv68[ebp], 1
  00064	eb 07		 jmp	 SHORT $LN9@SliderCalc
$LN8@SliderCalc:
  00066	c6 85 0b ff ff
	ff 00		 mov	 BYTE PTR tv68[ebp], 0
$LN9@SliderCalc:
  0006d	8a 85 0b ff ff
	ff		 mov	 al, BYTE PTR tv68[ebp]
  00073	88 45 fb	 mov	 BYTE PTR _is_power$[ebp], al

; 2287 :     const TYPE v_clamped = (v_min < v_max) ? ImClamp(v, v_min, v_max) : ImClamp(v, v_max, v_min);

  00076	8b 45 18	 mov	 eax, DWORD PTR _v_min$[ebp+4]
  00079	3b 45 20	 cmp	 eax, DWORD PTR _v_max$[ebp+4]
  0007c	7f 38		 jg	 SHORT $LN10@SliderCalc
  0007e	7c 08		 jl	 SHORT $LN12@SliderCalc
  00080	8b 4d 14	 mov	 ecx, DWORD PTR _v_min$[ebp]
  00083	3b 4d 1c	 cmp	 ecx, DWORD PTR _v_max$[ebp]
  00086	73 2e		 jae	 SHORT $LN10@SliderCalc
$LN12@SliderCalc:
  00088	8b 55 20	 mov	 edx, DWORD PTR _v_max$[ebp+4]
  0008b	52		 push	 edx
  0008c	8b 45 1c	 mov	 eax, DWORD PTR _v_max$[ebp]
  0008f	50		 push	 eax
  00090	8b 4d 18	 mov	 ecx, DWORD PTR _v_min$[ebp+4]
  00093	51		 push	 ecx
  00094	8b 55 14	 mov	 edx, DWORD PTR _v_min$[ebp]
  00097	52		 push	 edx
  00098	8b 45 10	 mov	 eax, DWORD PTR _v$[ebp+4]
  0009b	50		 push	 eax
  0009c	8b 4d 0c	 mov	 ecx, DWORD PTR _v$[ebp]
  0009f	51		 push	 ecx
  000a0	e8 00 00 00 00	 call	 ??$ImClamp@_J@@YA_J_J00@Z ; ImClamp<__int64>
  000a5	83 c4 18	 add	 esp, 24			; 00000018H
  000a8	89 85 04 ff ff
	ff		 mov	 DWORD PTR tv78[ebp], eax
  000ae	89 95 08 ff ff
	ff		 mov	 DWORD PTR tv78[ebp+4], edx
  000b4	eb 2c		 jmp	 SHORT $LN11@SliderCalc
$LN10@SliderCalc:
  000b6	8b 55 18	 mov	 edx, DWORD PTR _v_min$[ebp+4]
  000b9	52		 push	 edx
  000ba	8b 45 14	 mov	 eax, DWORD PTR _v_min$[ebp]
  000bd	50		 push	 eax
  000be	8b 4d 20	 mov	 ecx, DWORD PTR _v_max$[ebp+4]
  000c1	51		 push	 ecx
  000c2	8b 55 1c	 mov	 edx, DWORD PTR _v_max$[ebp]
  000c5	52		 push	 edx
  000c6	8b 45 10	 mov	 eax, DWORD PTR _v$[ebp+4]
  000c9	50		 push	 eax
  000ca	8b 4d 0c	 mov	 ecx, DWORD PTR _v$[ebp]
  000cd	51		 push	 ecx
  000ce	e8 00 00 00 00	 call	 ??$ImClamp@_J@@YA_J_J00@Z ; ImClamp<__int64>
  000d3	83 c4 18	 add	 esp, 24			; 00000018H
  000d6	89 85 04 ff ff
	ff		 mov	 DWORD PTR tv78[ebp], eax
  000dc	89 95 08 ff ff
	ff		 mov	 DWORD PTR tv78[ebp+4], edx
$LN11@SliderCalc:
  000e2	8b 95 04 ff ff
	ff		 mov	 edx, DWORD PTR tv78[ebp]
  000e8	89 55 e8	 mov	 DWORD PTR _v_clamped$[ebp], edx
  000eb	8b 85 08 ff ff
	ff		 mov	 eax, DWORD PTR tv78[ebp+4]
  000f1	89 45 ec	 mov	 DWORD PTR _v_clamped$[ebp+4], eax

; 2288 :     if (is_power)

