; Listing generated by Microsoft (R) Optimizing Compiler Version 19.27.29112.0 

	TITLE	D:\Programmieren\csgoHack\ProjektWolf\ProjektWolf\ImGui DirectX 9 Kiero Hook 2\imgui\imgui_demo.cpp
	.686P
	.XMM
	include listing.inc
	.model	flat

INCLUDELIB MSVCRTD
INCLUDELIB OLDNAMES

PUBLIC	??_C@_05DDEOPHNO@Bobby@				; `string'
PUBLIC	??_C@_08FLMMIHDE@Beatrice@			; `string'
PUBLIC	??_C@_05BECHDIPO@Betty@				; `string'
PUBLIC	??_C@_07OEGNBIJH@Brianna@			; `string'
PUBLIC	??_C@_05MAEBLNFA@Barry@				; `string'
PUBLIC	??_C@_07JNHNGBFJ@Bernard@			; `string'
PUBLIC	??_C@_04KCKMHEOC@Bibi@				; `string'
PUBLIC	??_C@_06HGIOBEEM@Blaine@			; `string'
PUBLIC	??_C@_04HKIGHOCK@Bryn@				; `string'
PUBLIC	??_C@_08HGEMKAAG@Item?5One@			; `string'
PUBLIC	??_C@_08BIEMAAON@Item?5Two@			; `string'
PUBLIC	??_C@_0L@PNIFIMNF@Item?5Three@			; `string'
PUBLIC	??_C@_09FNJGFEIF@Item?5Four@			; `string'
PUBLIC	??_C@_09HPDIDBJG@Item?5Five@			; `string'
msvcjmc	SEGMENT
__ED9CC025_corecrt_memcpy_s@h DB 01H
__241EEA0C_corecrt_memory@h DB 01H
__875914C9_corecrt_wstring@h DB 01H
__731387C4_string@h DB 01H
__8BAA8EBB_imgui@h DB 01H
__40DF0D2D_ctype@h DB 01H
__E2865EBA_corecrt_math@h DB 01H
__1850469A_corecrt_stdio_config@h DB 01H
__01D10305_corecrt_wstdio@h DB 01H
__9FF75F13_stdio@h DB 01H
__F5601360_stdlib@h DB 01H
__B5B020C2_imgui_demo@cpp DB 01H
__6D9F1981_predefined C++ types (compiler internal) DB 01H
msvcjmc	ENDS
;	COMDAT ??_C@_09HPDIDBJG@Item?5Five@
CONST	SEGMENT
??_C@_09HPDIDBJG@Item?5Five@ DB 'Item Five', 00H	; `string'
CONST	ENDS
;	COMDAT ??_C@_09FNJGFEIF@Item?5Four@
CONST	SEGMENT
??_C@_09FNJGFEIF@Item?5Four@ DB 'Item Four', 00H	; `string'
CONST	ENDS
;	COMDAT ??_C@_0L@PNIFIMNF@Item?5Three@
CONST	SEGMENT
??_C@_0L@PNIFIMNF@Item?5Three@ DB 'Item Three', 00H	; `string'
CONST	ENDS
;	COMDAT ??_C@_08BIEMAAON@Item?5Two@
CONST	SEGMENT
??_C@_08BIEMAAON@Item?5Two@ DB 'Item Two', 00H		; `string'
CONST	ENDS
;	COMDAT ??_C@_08HGEMKAAG@Item?5One@
CONST	SEGMENT
??_C@_08HGEMKAAG@Item?5One@ DB 'Item One', 00H		; `string'
CONST	ENDS
;	COMDAT ??_C@_04HKIGHOCK@Bryn@
CONST	SEGMENT
??_C@_04HKIGHOCK@Bryn@ DB 'Bryn', 00H			; `string'
CONST	ENDS
;	COMDAT ??_C@_06HGIOBEEM@Blaine@
CONST	SEGMENT
??_C@_06HGIOBEEM@Blaine@ DB 'Blaine', 00H		; `string'
CONST	ENDS
;	COMDAT ??_C@_04KCKMHEOC@Bibi@
CONST	SEGMENT
??_C@_04KCKMHEOC@Bibi@ DB 'Bibi', 00H			; `string'
CONST	ENDS
;	COMDAT ??_C@_07JNHNGBFJ@Bernard@
CONST	SEGMENT
??_C@_07JNHNGBFJ@Bernard@ DB 'Bernard', 00H		; `string'
CONST	ENDS
;	COMDAT ??_C@_05MAEBLNFA@Barry@
CONST	SEGMENT
??_C@_05MAEBLNFA@Barry@ DB 'Barry', 00H			; `string'
CONST	ENDS
;	COMDAT ??_C@_07OEGNBIJH@Brianna@
CONST	SEGMENT
??_C@_07OEGNBIJH@Brianna@ DB 'Brianna', 00H		; `string'
CONST	ENDS
;	COMDAT ??_C@_05BECHDIPO@Betty@
CONST	SEGMENT
??_C@_05BECHDIPO@Betty@ DB 'Betty', 00H			; `string'
CONST	ENDS
;	COMDAT ??_C@_08FLMMIHDE@Beatrice@
CONST	SEGMENT
??_C@_08FLMMIHDE@Beatrice@ DB 'Beatrice', 00H		; `string'
CONST	ENDS
;	COMDAT ??_C@_05DDEOPHNO@Bobby@
CONST	SEGMENT
??_C@_05DDEOPHNO@Bobby@ DB 'Bobby', 00H			; `string'
CONST	ENDS
PUBLIC	??0ImVec2@@QAE@MM@Z				; ImVec2::ImVec2
PUBLIC	??0ImVec4@@QAE@XZ				; ImVec4::ImVec4
PUBLIC	??0ImVec4@@QAE@MMMM@Z				; ImVec4::ImVec4
PUBLIC	?ShowDemoWindow@ImGui@@YAXPA_N@Z		; ImGui::ShowDemoWindow
PUBLIC	?ShowAboutWindow@ImGui@@YAXPA_N@Z		; ImGui::ShowAboutWindow
PUBLIC	?ShowStyleEditor@ImGui@@YAXPAUImGuiStyle@@@Z	; ImGui::ShowStyleEditor
PUBLIC	?ShowStyleSelector@ImGui@@YA_NPBD@Z		; ImGui::ShowStyleSelector
PUBLIC	?ShowFontSelector@ImGui@@YAXPBD@Z		; ImGui::ShowFontSelector
PUBLIC	?ShowUserGuide@ImGui@@YAXXZ			; ImGui::ShowUserGuide
PUBLIC	??A?$ImVector@G@@QAEAAGH@Z			; ImVector<unsigned short>::operator[]
PUBLIC	?IsActive@ImGuiTextFilter@@QBE_NXZ		; ImGuiTextFilter::IsActive
PUBLIC	??1?$ImVector@UImGuiTextRange@ImGuiTextFilter@@@@QAE@XZ ; ImVector<ImGuiTextFilter::ImGuiTextRange>::~ImVector<ImGuiTextFilter::ImGuiTextRange>
PUBLIC	?empty@?$ImVector@UImGuiTextRange@ImGuiTextFilter@@@@QBE_NXZ ; ImVector<ImGuiTextFilter::ImGuiTextRange>::empty
PUBLIC	??1ImGuiTextFilter@@QAE@XZ			; ImGuiTextFilter::~ImGuiTextFilter
PUBLIC	??0?$ImVector@D@@QAE@XZ				; ImVector<char>::ImVector<char>
PUBLIC	??1?$ImVector@D@@QAE@XZ				; ImVector<char>::~ImVector<char>
PUBLIC	?empty@?$ImVector@D@@QBE_NXZ			; ImVector<char>::empty
PUBLIC	?size@?$ImVector@D@@QBEHXZ			; ImVector<char>::size
PUBLIC	?capacity@?$ImVector@D@@QBEHXZ			; ImVector<char>::capacity
PUBLIC	?clear@?$ImVector@D@@QAEXXZ			; ImVector<char>::clear
PUBLIC	?begin@?$ImVector@D@@QAEPADXZ			; ImVector<char>::begin
PUBLIC	?front@?$ImVector@D@@QBEABDXZ			; ImVector<char>::front
PUBLIC	?back@?$ImVector@D@@QBEABDXZ			; ImVector<char>::back
PUBLIC	?_grow_capacity@?$ImVector@D@@QBEHH@Z		; ImVector<char>::_grow_capacity
PUBLIC	?resize@?$ImVector@D@@QAEXH@Z			; ImVector<char>::resize
PUBLIC	?reserve@?$ImVector@D@@QAEXH@Z			; ImVector<char>::reserve
PUBLIC	?push_back@?$ImVector@D@@QAEXABD@Z		; ImVector<char>::push_back
PUBLIC	??0ImGuiTextBuffer@@QAE@XZ			; ImGuiTextBuffer::ImGuiTextBuffer
PUBLIC	??AImGuiTextBuffer@@QBEDH@Z			; ImGuiTextBuffer::operator[]
PUBLIC	?begin@ImGuiTextBuffer@@QBEPBDXZ		; ImGuiTextBuffer::begin
PUBLIC	?end@ImGuiTextBuffer@@QBEPBDXZ			; ImGuiTextBuffer::end
PUBLIC	?size@ImGuiTextBuffer@@QBEHXZ			; ImGuiTextBuffer::size
PUBLIC	?clear@ImGuiTextBuffer@@QAEXXZ			; ImGuiTextBuffer::clear
PUBLIC	??1ImGuiTextBuffer@@QAE@XZ			; ImGuiTextBuffer::~ImGuiTextBuffer
PUBLIC	??0ImGuiListClipper@@QAE@HM@Z			; ImGuiListClipper::ImGuiListClipper
PUBLIC	??1ImGuiListClipper@@QAE@XZ			; ImGuiListClipper::~ImGuiListClipper
PUBLIC	??0ImColor@@QAE@MMMM@Z				; ImColor::ImColor
PUBLIC	??0ImColor@@QAE@ABUImVec4@@@Z			; ImColor::ImColor
PUBLIC	??BImColor@@QBEIXZ				; ImColor::operator unsigned int
PUBLIC	??BImColor@@QBE?AUImVec4@@XZ			; ImColor::operator ImVec4
PUBLIC	?HSV@ImColor@@SA?AU1@MMMM@Z			; ImColor::HSV
PUBLIC	??0?$ImVector@UImVec2@@@@QAE@XZ			; ImVector<ImVec2>::ImVector<ImVec2>
PUBLIC	??1?$ImVector@UImVec2@@@@QAE@XZ			; ImVector<ImVec2>::~ImVector<ImVec2>
PUBLIC	?empty@?$ImVector@UImVec2@@@@QBE_NXZ		; ImVector<ImVec2>::empty
PUBLIC	??A?$ImVector@UImVec2@@@@QAEAAUImVec2@@H@Z	; ImVector<ImVec2>::operator[]
PUBLIC	?clear@?$ImVector@UImVec2@@@@QAEXXZ		; ImVector<ImVec2>::clear
PUBLIC	?_grow_capacity@?$ImVector@UImVec2@@@@QBEHH@Z	; ImVector<ImVec2>::_grow_capacity
PUBLIC	?reserve@?$ImVector@UImVec2@@@@QAEXH@Z		; ImVector<ImVec2>::reserve
PUBLIC	?push_back@?$ImVector@UImVec2@@@@QAEXABUImVec2@@@Z ; ImVector<ImVec2>::push_back
PUBLIC	?pop_back@?$ImVector@UImVec2@@@@QAEXXZ		; ImVector<ImVec2>::pop_back
PUBLIC	??A?$ImVector@PAUImFont@@@@QAEAAPAUImFont@@H@Z	; ImVector<ImFont *>::operator[]
PUBLIC	?GetDebugName@ImFont@@QBEPBDXZ			; ImFont::GetDebugName
PUBLIC	_cosf
PUBLIC	_fmodf
PUBLIC	_sinf
PUBLIC	_sqrtf
PUBLIC	___local_stdio_printf_options
PUBLIC	__vsnprintf_l
PUBLIC	__vsnprintf
PUBLIC	__vsprintf_l
PUBLIC	_sprintf
PUBLIC	??$__builtin_array_init_helper@UImVec4@@@@YAXPAUImVec4@@I@Z ; __builtin_array_init_helper<ImVec4>
PUBLIC	??0?$ImVector@PAD@@QAE@XZ			; ImVector<char *>::ImVector<char *>
PUBLIC	??1?$ImVector@PAD@@QAE@XZ			; ImVector<char *>::~ImVector<char *>
PUBLIC	??A?$ImVector@PAD@@QAEAAPADH@Z			; ImVector<char *>::operator[]
PUBLIC	?clear@?$ImVector@PAD@@QAEXXZ			; ImVector<char *>::clear
PUBLIC	?begin@?$ImVector@PAD@@QAEPAPADXZ		; ImVector<char *>::begin
PUBLIC	?_grow_capacity@?$ImVector@PAD@@QBEHH@Z		; ImVector<char *>::_grow_capacity
PUBLIC	?reserve@?$ImVector@PAD@@QAEXH@Z		; ImVector<char *>::reserve
PUBLIC	?push_back@?$ImVector@PAD@@QAEXABQAD@Z		; ImVector<char *>::push_back
PUBLIC	?erase@?$ImVector@PAD@@QAEPAPADPBQAD@Z		; ImVector<char *>::erase
PUBLIC	??0?$ImVector@PBD@@QAE@XZ			; ImVector<char const *>::ImVector<char const *>
PUBLIC	??1?$ImVector@PBD@@QAE@XZ			; ImVector<char const *>::~ImVector<char const *>
PUBLIC	??A?$ImVector@PBD@@QAEAAPBDH@Z			; ImVector<char const *>::operator[]
PUBLIC	?_grow_capacity@?$ImVector@PBD@@QBEHH@Z		; ImVector<char const *>::_grow_capacity
PUBLIC	?reserve@?$ImVector@PBD@@QAEXH@Z		; ImVector<char const *>::reserve
PUBLIC	?push_back@?$ImVector@PBD@@QAEXABQBD@Z		; ImVector<char const *>::push_back
PUBLIC	??0ExampleAppConsole@@QAE@XZ			; ExampleAppConsole::ExampleAppConsole
PUBLIC	??1ExampleAppConsole@@QAE@XZ			; ExampleAppConsole::~ExampleAppConsole
PUBLIC	?Stricmp@ExampleAppConsole@@SAHPBD0@Z		; ExampleAppConsole::Stricmp
PUBLIC	?Strnicmp@ExampleAppConsole@@SAHPBD0H@Z		; ExampleAppConsole::Strnicmp
PUBLIC	?Strdup@ExampleAppConsole@@SAPADPBD@Z		; ExampleAppConsole::Strdup
PUBLIC	?Strtrim@ExampleAppConsole@@SAXPAD@Z		; ExampleAppConsole::Strtrim
PUBLIC	?ClearLog@ExampleAppConsole@@QAEXXZ		; ExampleAppConsole::ClearLog
PUBLIC	?AddLog@ExampleAppConsole@@QAAXPBDZZ		; ExampleAppConsole::AddLog
PUBLIC	?Draw@ExampleAppConsole@@QAEXPBDPA_N@Z		; ExampleAppConsole::Draw
PUBLIC	?ExecCommand@ExampleAppConsole@@QAEXPBD@Z	; ExampleAppConsole::ExecCommand
PUBLIC	?TextEditCallbackStub@ExampleAppConsole@@SAHPAUImGuiInputTextCallbackData@@@Z ; ExampleAppConsole::TextEditCallbackStub
PUBLIC	?TextEditCallback@ExampleAppConsole@@QAEHPAUImGuiInputTextCallbackData@@@Z ; ExampleAppConsole::TextEditCallback
PUBLIC	??0?$ImVector@H@@QAE@XZ				; ImVector<int>::ImVector<int>
PUBLIC	??1?$ImVector@H@@QAE@XZ				; ImVector<int>::~ImVector<int>
PUBLIC	??A?$ImVector@H@@QAEAAHH@Z			; ImVector<int>::operator[]
PUBLIC	?clear@?$ImVector@H@@QAEXXZ			; ImVector<int>::clear
PUBLIC	?_grow_capacity@?$ImVector@H@@QBEHH@Z		; ImVector<int>::_grow_capacity
PUBLIC	?reserve@?$ImVector@H@@QAEXH@Z			; ImVector<int>::reserve
PUBLIC	?push_back@?$ImVector@H@@QAEXABH@Z		; ImVector<int>::push_back
PUBLIC	??0ExampleAppLog@@QAE@XZ			; ExampleAppLog::ExampleAppLog
PUBLIC	?Clear@ExampleAppLog@@QAEXXZ			; ExampleAppLog::Clear
PUBLIC	?AddLog@ExampleAppLog@@QAAXPBDZZ		; ExampleAppLog::AddLog
PUBLIC	?Draw@ExampleAppLog@@QAEXPBDPA_N@Z		; ExampleAppLog::Draw
PUBLIC	??1ExampleAppLog@@QAE@XZ			; ExampleAppLog::~ExampleAppLog
PUBLIC	??0MyDocument@@QAE@PBD_NABUImVec4@@@Z		; MyDocument::MyDocument
PUBLIC	?DoOpen@MyDocument@@QAEXXZ			; MyDocument::DoOpen
PUBLIC	?DoQueueClose@MyDocument@@QAEXXZ		; MyDocument::DoQueueClose
PUBLIC	?DoForceClose@MyDocument@@QAEXXZ		; MyDocument::DoForceClose
PUBLIC	?DoSave@MyDocument@@QAEXXZ			; MyDocument::DoSave
PUBLIC	?DisplayContents@MyDocument@@SAXPAU1@@Z		; MyDocument::DisplayContents
PUBLIC	?DisplayContextMenu@MyDocument@@SAXPAU1@@Z	; MyDocument::DisplayContextMenu
PUBLIC	??0?$ImVector@UMyDocument@@@@QAE@XZ		; ImVector<MyDocument>::ImVector<MyDocument>
PUBLIC	??1?$ImVector@UMyDocument@@@@QAE@XZ		; ImVector<MyDocument>::~ImVector<MyDocument>
PUBLIC	??A?$ImVector@UMyDocument@@@@QAEAAUMyDocument@@H@Z ; ImVector<MyDocument>::operator[]
PUBLIC	?_grow_capacity@?$ImVector@UMyDocument@@@@QBEHH@Z ; ImVector<MyDocument>::_grow_capacity
PUBLIC	?reserve@?$ImVector@UMyDocument@@@@QAEXH@Z	; ImVector<MyDocument>::reserve
PUBLIC	?push_back@?$ImVector@UMyDocument@@@@QAEXABUMyDocument@@@Z ; ImVector<MyDocument>::push_back
PUBLIC	??0ExampleAppDocuments@@QAE@XZ			; ExampleAppDocuments::ExampleAppDocuments
PUBLIC	??1ExampleAppDocuments@@QAE@XZ			; ExampleAppDocuments::~ExampleAppDocuments
PUBLIC	??0?$ImVector@PAUMyDocument@@@@QAE@XZ		; ImVector<MyDocument *>::ImVector<MyDocument *>
PUBLIC	??1?$ImVector@PAUMyDocument@@@@QAE@XZ		; ImVector<MyDocument *>::~ImVector<MyDocument *>
PUBLIC	?empty@?$ImVector@PAUMyDocument@@@@QBE_NXZ	; ImVector<MyDocument *>::empty
PUBLIC	??A?$ImVector@PAUMyDocument@@@@QAEAAPAUMyDocument@@H@Z ; ImVector<MyDocument *>::operator[]
PUBLIC	?clear@?$ImVector@PAUMyDocument@@@@QAEXXZ	; ImVector<MyDocument *>::clear
PUBLIC	?_grow_capacity@?$ImVector@PAUMyDocument@@@@QBEHH@Z ; ImVector<MyDocument *>::_grow_capacity
PUBLIC	?reserve@?$ImVector@PAUMyDocument@@@@QAEXH@Z	; ImVector<MyDocument *>::reserve
PUBLIC	?push_back@?$ImVector@PAUMyDocument@@@@QAEXABQAUMyDocument@@@Z ; ImVector<MyDocument *>::push_back
PUBLIC	__JustMyCode_Default
PUBLIC	??_C@_1LK@HIKNCJCN@?$AAD?$AA?3?$AA?2?$AAP?$AAr?$AAo?$AAg?$AAr?$AAa?$AAm?$AAm?$AAi?$AAe?$AAr?$AAe@ ; `string'
PUBLIC	??_C@_13COJANIEC@?$AA0@				; `string'
PUBLIC	??_C@_1BM@COLNJNAB@?$AAB?$AAu?$AAf?$AA?4?$AAD?$AAa?$AAt?$AAa?$AA?5?$AA?$CB?$AA?$DN?$AA?5?$AA0@ ; `string'
PUBLIC	??_C@_1CC@IHACEFEE@?$AAI?$AAt?$AAe?$AAm?$AAs?$AAC?$AAo?$AAu?$AAn?$AAt?$AA?5?$AA?$DN?$AA?$DN?$AA?5?$AA?9@ ; `string'
PUBLIC	??_C@_09EEKGDCPH@?$DMunknown?$DO@		; `string'
PUBLIC	?_OptionsStorage@?1??__local_stdio_printf_options@@9@4_KA ; `__local_stdio_printf_options'::`2'::_OptionsStorage
PUBLIC	??_C@_03NAEMJKHE@?$CI?$DP?$CJ@			; `string'
PUBLIC	??_C@_0CO@FFJHEDDC@Double?9click?5on?5title?5bar?5to?5co@ ; `string'
PUBLIC	??_C@_0GD@KHDHCLNB@Click?5and?5drag?5on?5lower?5corner?5@ ; `string'
PUBLIC	??_C@_0DL@LJHMLMPJ@CTRL?$CLClick?5on?5a?5slider?5or?5drag?5@ ; `string'
PUBLIC	??_C@_0DJ@LKCIFMEM@TAB?1SHIFT?$CLTAB?5to?5cycle?5through?5@ ; `string'
PUBLIC	??_C@_0CK@LADJDPFO@CTRL?$CLMouse?5Wheel?5to?5zoom?5window@ ; `string'
PUBLIC	??_C@_0BG@NMLMAAHC@While?5inputing?5text?3?6@	; `string'
PUBLIC	??_C@_0BO@EGJGDBOL@CTRL?$CLLeft?1Right?5to?5word?5jump?4@ ; `string'
PUBLIC	??_C@_0CG@EHDHJJCE@CTRL?$CLA?5or?5double?9click?5to?5selec@ ; `string'
PUBLIC	??_C@_0CM@COCDFHEI@CTRL?$CLX?1C?1V?5to?5use?5clipboard?5cut@ ; `string'
PUBLIC	??_C@_0BM@KMMNEEIL@CTRL?$CLZ?0CTRL?$CLY?5to?5undo?1redo?4@ ; `string'
PUBLIC	??_C@_0BC@PKENOIKO@ESCAPE?5to?5revert?4@	; `string'
PUBLIC	??_C@_0FC@FJHKJEAF@You?5can?5apply?5arithmetic?5operat@ ; `string'
PUBLIC	??_C@_0CC@LHGBBELP@With?5keyboard?5navigation?5enable@ ; `string'
PUBLIC	??_C@_0BI@PBJOMNMB@Arrow?5keys?5to?5navigate?4@	; `string'
PUBLIC	??_C@_0BM@LKNGKCOD@Space?5to?5activate?5a?5widget?4@ ; `string'
PUBLIC	??_C@_0CE@LIPDCNLP@Return?5to?5input?5text?5into?5a?5wid@ ; `string'
PUBLIC	??_C@_0DP@NLCDBEHA@Escape?5to?5deactivate?5a?5widget?0?5@ ; `string'
PUBLIC	??_C@_0CL@EBPMKFNL@Alt?5to?5jump?5to?5the?5menu?5layer?5o@ ; `string'
PUBLIC	??_C@_0BN@MNOOCJNJ@CTRL?$CLTab?5to?5select?5a?5window?4@ ; `string'
PUBLIC	?__LINE__Var@?0??ShowDemoWindow@ImGui@@YAXPA_N@Z@4JA ; `ImGui::ShowDemoWindow'::`1'::__LINE__Var
PUBLIC	??_C@_0DD@MGKHNCLH@Missing?5dear?5imgui?5context?4?5Ref@ ; `string'
PUBLIC	??_C@_1MI@BHIFDDFG@?$AAD?$AA?3?$AA?2?$AAP?$AAr?$AAo?$AAg?$AAr?$AAa?$AAm?$AAm?$AAi?$AAe?$AAr?$AAe@ ; `string'
PUBLIC	??_C@_1LA@COADBOEK@?$AAI?$AAm?$AAG?$AAu?$AAi?$AA?3?$AA?3?$AAG?$AAe?$AAt?$AAC?$AAu?$AAr?$AAr?$AAe@ ; `string'
PUBLIC	??_C@_0N@GJBKNEHA@Style?5Editor@		; `string'
PUBLIC	??_C@_0BA@IGMFAKOE@Dear?5ImGui?5Demo@		; `string'
PUBLIC	??_C@_04IFEHPILC@Menu@				; `string'
PUBLIC	??_C@_08KJMBPHGD@Examples@			; `string'
PUBLIC	??_C@_0O@ECNFCDDH@Main?5menu?5bar@		; `string'
PUBLIC	??_C@_07PGLPGHFC@Console@			; `string'
PUBLIC	??_C@_03GGEOLGBL@Log@				; `string'
PUBLIC	??_C@_0O@JBJOEMFC@Simple?5layout@		; `string'
PUBLIC	??_C@_0BA@DNAHAJCI@Property?5editor@		; `string'
PUBLIC	??_C@_0BC@INJCBODH@Long?5text?5display@		; `string'
PUBLIC	??_C@_0BF@OHKJAELB@Auto?9resizing?5window@	; `string'
PUBLIC	??_C@_0BM@CJMMFMCL@Constrained?9resizing?5window@ ; `string'
PUBLIC	??_C@_0P@IMGHCBNF@Simple?5overlay@		; `string'
PUBLIC	??_C@_0BL@MDGJIIDL@Manipulating?5window?5titles@ ; `string'
PUBLIC	??_C@_0BB@MLNDPKFI@Custom?5rendering@		; `string'
PUBLIC	??_C@_09IBGBKIMC@Documents@			; `string'
PUBLIC	??_C@_05OENKALAF@Tools@				; `string'
PUBLIC	??_C@_07OKMHIPFF@Metrics@			; `string'
PUBLIC	??_C@_0BB@NKKLPDOL@About?5Dear?5ImGui@		; `string'
PUBLIC	??_C@_08KHNILBGC@1?475?5WIP@			; `string'
PUBLIC	??_C@_0BM@OGBJOAAJ@dear?5imgui?5says?5hello?4?5?$CI?$CFs?$CJ@ ; `string'
PUBLIC	??_C@_04DDFEFHOJ@Help@				; `string'
PUBLIC	??_C@_0BB@LJBDHCFD@ABOUT?5THIS?5DEMO?3@		; `string'
PUBLIC	??_C@_0DO@FBJHOIEP@Sections?5below?5are?5demonstratin@ ; `string'
PUBLIC	??_C@_0DH@GKLDFKKO@The?5?$CCExamples?$CC?5menu?5above?5leads@ ; `string'
PUBLIC	??_C@_0HK@IHDIDEEM@The?5?$CCTools?$CC?5menu?5above?5gives?5ac@ ; `string'
PUBLIC	??_C@_0BC@GECCEBDK@PROGRAMMER?5GUIDE?3@		; `string'
PUBLIC	??_C@_0EC@GEILMFPK@See?5the?5ShowDemoWindow?$CI?$CJ?5code?5i@ ; `string'
PUBLIC	??_C@_0BL@CMPGJGKF@See?5comments?5in?5imgui?4cpp?4@ ; `string'
PUBLIC	??_C@_0DC@LILBLMCJ@See?5example?5applications?5in?5the@ ; `string'
PUBLIC	??_C@_0CO@IHPGPBLH@Read?5the?5FAQ?5at?5http?3?1?1www?4dear@ ; `string'
PUBLIC	??_C@_0EB@MLAMCLHL@Set?5?8io?4ConfigFlags?5?$HM?$DN?5NavEnabl@ ; `string'
PUBLIC	??_C@_0DP@CIADOILL@Set?5?8io?4ConfigFlags?5?$HM?$DN?5NavEnabl@ ; `string'
PUBLIC	??_C@_0M@NDGNNOFI@USER?5GUIDE?3@		; `string'
PUBLIC	??_C@_0O@PIILMNHI@Configuration@		; `string'
PUBLIC	??_C@_0BB@DLCAGGKD@Configuration?$CD?$CD2@	; `string'
PUBLIC	??_C@_0CC@MKDHACD@io?4ConfigFlags?3?5NavEnableKeyboa@ ; `string'
PUBLIC	??_C@_0CB@MCNBOBFF@io?4ConfigFlags?3?5NavEnableGamepa@ ; `string'
PUBLIC	??_C@_0KE@MBIKOFFP@Required?5back?9end?5to?5feed?5in?5ga@ ; `string'
PUBLIC	??_C@_0CF@BBHAMFJD@io?4ConfigFlags?3?5NavEnableSetMou@ ; `string'
PUBLIC	??_C@_0GF@EIFIGBGA@Instruct?5navigation?5to?5move?5the@ ; `string'
PUBLIC	??_C@_0BI@FJCAMGFF@io?4ConfigFlags?3?5NoMouse@	; `string'
PUBLIC	??_C@_0BL@MKGMHIPJ@?$DM?$DMPRESS?5SPACE?5TO?5DISABLE?$DO?$DO@ ; `string'
PUBLIC	??_C@_0CE@KNKEEHDL@io?4ConfigFlags?3?5NoMouseCursorCh@ ; `string'
PUBLIC	??_C@_0EC@DCPLBGPI@Instruct?5back?9end?5to?5not?5alter?5@ ; `string'
PUBLIC	??_C@_0BO@GBANMLLJ@io?4ConfigInputTextCursorBlink@ ; `string'
PUBLIC	??_C@_0EP@GBIAPNGK@Set?5to?5false?5to?5disable?5blinkin@ ; `string'
PUBLIC	??_C@_0CA@IFIIDADM@io?4ConfigWindowsResizeFromEdges@ ; `string'
PUBLIC	??_C@_0LI@DCCFFPOA@Enable?5resizing?5of?5windows?5from@ ; `string'
PUBLIC	??_C@_0CF@PKBLIGGG@io?4ConfigWindowsMoveFromTitleBa@ ; `string'
PUBLIC	??_C@_0BD@PFDMJJAG@io?4MouseDrawCursor@		; `string'
PUBLIC	??_C@_0BFL@ILCCFGGP@Instruct?5Dear?5ImGui?5to?5render?5a@ ; `string'
PUBLIC	??_C@_0O@GGPAPCP@Backend?5Flags@		; `string'
PUBLIC	??_C@_0LG@OFNCJLC@Those?5flags?5are?5set?5by?5the?5back@ ; `string'
PUBLIC	??_C@_0BM@KECFJBMD@io?4BackendFlags?3?5HasGamepad@ ; `string'
PUBLIC	??_C@_0CB@OGFIDKNB@io?4BackendFlags?3?5HasMouseCursor@ ; `string'
PUBLIC	??_C@_0CA@JKLPDGP@io?4BackendFlags?3?5HasSetMousePos@ ; `string'
PUBLIC	??_C@_0CG@EKAIMAPC@io?4BackendFlags?3?5RendererHasVtx@ ; `string'
PUBLIC	??_C@_05IHAFCALK@Style@				; `string'
PUBLIC	??_C@_0GJ@COKJKNBB@The?5same?5contents?5can?5be?5access@ ; `string'
PUBLIC	??_C@_0BA@BMMAIOLM@Capture?1Logging@		; `string'
PUBLIC	??_C@_0JC@LGKFGNAK@The?5logging?5API?5redirects?5all?5t@ ; `string'
PUBLIC	??_C@_0GA@GFOLBJBL@Try?5opening?5any?5of?5the?5contents@ ; `string'
PUBLIC	??_C@_0FK@CDOBPMKK@You?5can?5also?5call?5ImGui?3?3LogTex@ ; `string'
PUBLIC	??_C@_0CC@DLICJJEI@Copy?5?$CCHello?0?5world?$CB?$CC?5to?5clipboa@ ; `string'
PUBLIC	??_C@_0O@GEHPLBPJ@Hello?0?5world?$CB@		; `string'
PUBLIC	??_C@_0P@FBBKILOB@Window?5options@		; `string'
PUBLIC	??_C@_0M@EABCFDNG@No?5titlebar@			; `string'
PUBLIC	??_C@_0N@GGGGKBFF@No?5scrollbar@		; `string'
PUBLIC	??_C@_07KBMDBGCH@No?5menu@			; `string'
PUBLIC	??_C@_07JGIJBGNK@No?5move@			; `string'
PUBLIC	??_C@_09HMNEIDKA@No?5resize@			; `string'
PUBLIC	??_C@_0M@PFMGNBM@No?5collapse@			; `string'
PUBLIC	??_C@_08DGAKPBEJ@No?5close@			; `string'
PUBLIC	??_C@_06KFENEDHJ@No?5nav@			; `string'
PUBLIC	??_C@_0O@EHIGJHPL@No?5background@		; `string'
PUBLIC	??_C@_0BC@FKMLNKJL@No?5bring?5to?5front@	; `string'
PUBLIC	?__LINE__Var@?0??ShowDemoWindowWidgets@@YAXXZ@4JA ; `ShowDemoWindowWidgets'::`1'::__LINE__Var
PUBLIC	??_C@_05EAJAAGNN@imgui@				; `string'
PUBLIC	??_C@_1DK@GBCOMGGK@?$AAm?$AAy?$AA_?$AAs?$AAt?$AAr?$AA?9?$AA?$DO?$AAb?$AAe?$AAg?$AAi?$AAn?$AA?$CI?$AA?$CJ@ ; `string'
PUBLIC	??_C@_1GE@PBHHHBJD@?$AA?$CI?$AAf?$AAl?$AAa?$AAg?$AAs?$AA?5?$AA?$CG?$AA?5?$AAI?$AAm?$AAG?$AAu?$AAi?$AAI@ ; `string'
PUBLIC	??_C@_07DIHFNIOG@Widgets@			; `string'
PUBLIC	??_C@_05NIKDGMHP@Basic@				; `string'
PUBLIC	??_C@_06LKBCGDFD@Button@			; `string'
PUBLIC	??_C@_0BI@IPKGBENJ@Thanks?5for?5clicking?5me?$CB@ ; `string'
PUBLIC	??_C@_08PDFIPFLP@checkbox@			; `string'
PUBLIC	??_C@_07HJMAFCAJ@radio?5a@			; `string'
PUBLIC	??_C@_07FCONABMK@radio?5b@			; `string'
PUBLIC	??_C@_07ELPGDAIL@radio?5c@			; `string'
PUBLIC	??_C@_05BBIFMDEO@Click@				; `string'
PUBLIC	??_C@_0BA@FMOKFMLK@Hold?5to?5repeat?3@		; `string'
PUBLIC	??_C@_06EKMNOCAF@?$CD?$CDleft@			; `string'
PUBLIC	??_C@_07GKNPDGAE@?$CD?$CDright@			; `string'
PUBLIC	??_C@_02DPKJAMEF@?$CFd@				; `string'
PUBLIC	??_C@_0O@EKHBLLBD@Hover?5over?5me@		; `string'
PUBLIC	??_C@_0P@HKPBNOOC@I?5am?5a?5tooltip@		; `string'
PUBLIC	??_C@_07LFBEAIAC@?9?5or?5me@			; `string'
PUBLIC	??_C@_0BF@CIONDOGG@I?5am?5a?5fancy?5tooltip@	; `string'
PUBLIC	??_C@_05HPADKKDG@Curve@				; `string'
PUBLIC	??_C@_05LPIJGKJ@Value@				; `string'
PUBLIC	??_C@_05IDCCNNGI@label@				; `string'
PUBLIC	??_C@_04OHNMNPPA@AAAA@				; `string'
PUBLIC	??_C@_04JLKCOHFE@BBBB@				; `string'
PUBLIC	??_C@_04GKHPCPH@CCCC@				; `string'
PUBLIC	??_C@_04GDFOJGBM@DDDD@				; `string'
PUBLIC	??_C@_04POFLIDLP@EEEE@				; `string'
PUBLIC	??_C@_04ICCFLLBL@FFFF@				; `string'
PUBLIC	??_C@_04BPCAKOLI@GGGG@				; `string'
PUBLIC	??_C@_04EJNHHCMN@HHHH@				; `string'
PUBLIC	??_C@_04NENCGHGO@IIII@				; `string'
PUBLIC	??_C@_04KIKMFPMK@JJJJ@				; `string'
PUBLIC	??_C@_04DFKJEKGJ@KKKK@				; `string'
PUBLIC	??_C@_07HGFDAEEO@LLLLLLL@			; `string'
PUBLIC	??_C@_04MNFFDLCB@MMMM@				; `string'
PUBLIC	??_C@_07DDNOFDDK@OOOOOOO@			; `string'
PUBLIC	??_C@_05LLEFIEMM@combo@				; `string'
PUBLIC	??_C@_0IA@DADAGMOI@Refer?5to?5the?5?$CCCombo?$CC?5section?5be@ ; `string'
PUBLIC	??_C@_0L@GKEMLLGG@input?5text@			; `string'
PUBLIC	??_C@_0BJJ@FMHDKCMG@USER?3?6Hold?5SHIFT?5or?5use?5mouse?5t@ ; `string'
PUBLIC	??_C@_0BA@DCMOPOEB@enter?5text?5here@		; `string'
PUBLIC	??_C@_0BF@FKMBICKL@input?5text?5?$CIw?1?5hint?$CJ@ ; `string'
PUBLIC	??_C@_09KJGAAOJL@input?5int@			; `string'
PUBLIC	??_C@_0IG@EBGMOFJG@You?5can?5apply?5arithmetic?5operat@ ; `string'
PUBLIC	??_C@_04GFJLOHHD@?$CF?43f@			; `string'
PUBLIC	??_C@_0M@HLMFPLHI@input?5float@			; `string'
PUBLIC	??_C@_04GJMOAIJC@?$CF?48f@			; `string'
PUBLIC	??_C@_0N@HNPEBCJF@input?5double@		; `string'
PUBLIC	??_C@_02CGLCDNAE@?$CFe@				; `string'
PUBLIC	??_C@_0BB@MKDEHDDF@input?5scientific@		; `string'
PUBLIC	??_C@_0FH@NIEHKNDF@You?5can?5input?5value?5using?5the?5s@ ; `string'
PUBLIC	??_C@_0N@KKMOFJMF@input?5float3@		; `string'
PUBLIC	??_C@_08EAMJBIPC@drag?5int@			; `string'
PUBLIC	??_C@_0HA@JJHPNEPM@Click?5and?5drag?5to?5edit?5value?4?6H@ ; `string'
PUBLIC	??_C@_04FCMNJMCO@?$CFd?$CF?$CF@			; `string'
PUBLIC	??_C@_0BA@MCINAHBB@drag?5int?50?4?4100@		; `string'
PUBLIC	??_C@_0L@DLCOHHGO@drag?5float@			; `string'
PUBLIC	??_C@_08LHDHPMPH@?$CF?406f?5ns@			; `string'
PUBLIC	??_C@_0BB@CIODINPI@drag?5small?5float@		; `string'
PUBLIC	??_C@_0L@INJDAFHM@slider?5int@			; `string'
PUBLIC	??_C@_0BL@FBJLFMJ@CTRL?$CLclick?5to?5input?5value?4@ ; `string'
PUBLIC	??_C@_0N@BCCPFMAI@ratio?5?$DN?5?$CF?43f@	; `string'
PUBLIC	??_C@_0N@PNCIGDCI@slider?5float@		; `string'
PUBLIC	??_C@_04GANEPBPG@?$CF?44f@			; `string'
PUBLIC	??_C@_0BF@EFFJNHKJ@slider?5float?5?$CIcurve?$CJ@ ; `string'
PUBLIC	??_C@_08FKIHKODH@?$CF?40f?5deg@			; `string'
PUBLIC	??_C@_0N@EFIJIFM@slider?5angle@			; `string'
PUBLIC	??_C@_04OHLPDOFO@Fire@				; `string'
PUBLIC	??_C@_05IKBANCEK@Earth@				; `string'
PUBLIC	??_C@_03KHBMPEGA@Air@				; `string'
PUBLIC	??_C@_05EMKMBNJK@Water@				; `string'
PUBLIC	??_C@_07NBCGADJA@Unknown@			; `string'
PUBLIC	??_C@_0M@ENFPDMMO@slider?5enum@			; `string'
PUBLIC	??_C@_0FH@BEBFOFKH@Using?5the?5format?5string?5paramet@ ; `string'
PUBLIC	??_C@_07OCDFLNDK@color?51@			; `string'
PUBLIC	??_C@_0MA@GFIMMJPK@Click?5on?5the?5colored?5square?5to?5@ ; `string'
PUBLIC	??_C@_07MJBIOOPJ@color?52@			; `string'
PUBLIC	??_C@_05EBJDGKGA@Apple@				; `string'
PUBLIC	??_C@_06OJJIHNKI@Banana@			; `string'
PUBLIC	??_C@_06MKLLCMPJ@Cherry@			; `string'
PUBLIC	??_C@_04LFFBHHAI@Kiwi@				; `string'
PUBLIC	??_C@_05CNKNDDOO@Mango@				; `string'
PUBLIC	??_C@_06LMIDBFFB@Orange@			; `string'
PUBLIC	??_C@_09EBEMMGPP@Pineapple@			; `string'
PUBLIC	??_C@_0L@BNANDFPN@Strawberry@			; `string'
PUBLIC	??_C@_0L@JJNGHCMI@Watermelon@			; `string'
PUBLIC	??_C@_0BI@JHEMJDIG@listbox?6?$CIsingle?5select?$CJ@ ; `string'
PUBLIC	??_C@_05BMMGIDNN@Trees@				; `string'
PUBLIC	??_C@_0M@OABIBGBA@Basic?5trees@			; `string'
PUBLIC	??_C@_08GPGIPNJB@Child?5?$CFd@			; `string'
PUBLIC	??_C@_09KGLHLKML@blah?5blah@			; `string'
PUBLIC	??_C@_06HFKPFKMP@button@			; `string'
PUBLIC	??_C@_0CA@LDNIBPC@Advanced?0?5with?5Selectable?5nodes@ ; `string'
PUBLIC	??_C@_0IL@PMAJKNJG@This?5is?5a?5more?5typical?5looking?5@ ; `string'
PUBLIC	??_C@_0BP@JJAJNCOF@ImGuiTreeNodeFlags_OpenOnArrow@ ; `string'
PUBLIC	??_C@_0CF@HDMDLLCC@ImGuiTreeNodeFlags_OpenOnDouble@ ; `string'
PUBLIC	??_C@_0CC@CLHKBONF@ImGuiTreeNodeFlags_SpanAvailWid@ ; `string'
PUBLIC	??_C@_0CB@OHNGGEGD@ImGuiTreeNodeFlags_SpanFullWidt@ ; `string'
PUBLIC	??_C@_0CF@BINADAGB@Align?5label?5with?5current?5X?5posi@ ; `string'
PUBLIC	??_C@_06KPGIMOHP@Hello?$CB@			; `string'
PUBLIC	??_C@_0BD@DKDJNGLG@Selectable?5Node?5?$CFd@	; `string'
PUBLIC	??_C@_0BE@GJFAIPKG@Blah?5blah?6Blah?5Blah@	; `string'
PUBLIC	??_C@_0BD@MLABGFOG@Selectable?5Leaf?5?$CFd@	; `string'
PUBLIC	??_C@_0BD@GBPHDMGC@Collapsing?5Headers@		; `string'
PUBLIC	??_C@_0BA@JOCPBPDO@Show?52nd?5header@		; `string'
PUBLIC	??_C@_06OENKJGA@Header@				; `string'
PUBLIC	??_C@_0BC@BLAKNONB@IsItemHovered?3?5?$CFd@	; `string'
PUBLIC	??_C@_0BA@PJMPKHOM@Some?5content?5?$CFd@	; `string'
PUBLIC	??_C@_0BL@IHHHIKPE@Header?5with?5a?5close?5button@ ; `string'
PUBLIC	??_C@_0BA@PEMOHED@More?5content?5?$CFd@		; `string'
PUBLIC	??_C@_07DHNDKCGP@Bullets@			; `string'
PUBLIC	??_C@_0P@DEGHIHA@Bullet?5point?51@		; `string'
PUBLIC	??_C@_0CB@LFMFDEHN@Bullet?5point?52?6On?5multiple?5line@ ; `string'
PUBLIC	??_C@_09CGOFEACE@Tree?5node@			; `string'
PUBLIC	??_C@_0BF@FBMIEPNI@Another?5bullet?5point@	; `string'
PUBLIC	??_C@_0BL@OAFINJBP@Bullet?5point?53?5?$CItwo?5calls?$CJ@ ; `string'
PUBLIC	??_C@_04OJAHODMC@Text@				; `string'
PUBLIC	??_C@_0N@DOPJCPAP@Colored?5Text@		; `string'
PUBLIC	??_C@_04IDKACLOG@Pink@				; `string'
PUBLIC	??_C@_06ICCAKDNH@Yellow@			; `string'
PUBLIC	??_C@_08JGILNPHN@Disabled@			; `string'
PUBLIC	??_C@_0DA@EPJPAHDI@The?5TextDisabled?5color?5is?5store@ ; `string'
PUBLIC	??_C@_0O@CLIMKCMB@Word?5Wrapping@		; `string'
PUBLIC	??_C@_0LE@LBABKNFA@This?5text?5should?5automatically?5@ ; `string'
PUBLIC	??_C@_04GHNNFJCK@?$CF?40f@			; `string'
PUBLIC	??_C@_0L@NHCJIHMI@Wrap?5width@			; `string'
PUBLIC	??_C@_0BC@FPEPJKFB@Test?5paragraph?51?3@	; `string'
PUBLIC	??_C@_0JH@KIIFCPNC@The?5lazy?5dog?5is?5a?5good?5dog?4?5Thi@ ; `string'
PUBLIC	??_C@_0BC@FNAJCEAI@Test?5paragraph?52?3@	; `string'
PUBLIC	??_C@_0FB@BGHPBDIA@aaaaaaaa?5bbbbbbbb?0?5c?5cccccccc?0d@ ; `string'
PUBLIC	??_C@_0L@KOGPBBGO@UTF?98?5Text@			; `string'
PUBLIC	??_C@_0MK@EHHBBDNA@CJK?5text?5will?5only?5appears?5if?5t@ ; `string'
PUBLIC	??_C@_0CH@EHCMNMLI@Hiragana?3?5?c?$IB?$IL?c?$IB?$IN?c?$IB?$IP?c?$IB?$JB?c?$IB?$JD?5?$CIkaki@ ; `string'
PUBLIC	??_C@_0BM@BCACPCEP@Kanjis?3?5?f?$JH?$KF?f?$JM?$KM?h?$KK?$JO?5?$CInihongo?$CJ@ ; `string'
PUBLIC	??_C@_0M@OKLFPIAG@UTF?98?5input@		; `string'
PUBLIC	??_C@_06EPMHLOBG@Images@			; `string'
PUBLIC	??_C@_0OJ@IGJPGIOP@Below?5we?5are?5displaying?5the?5fon@ ; `string'
PUBLIC	??_C@_09CLOIPCOK@?$CF?40fx?$CF?40f@		; `string'
PUBLIC	??_C@_0BC@FICOOKGF@Min?3?5?$CI?$CF?42f?0?5?$CF?42f?$CJ@ ; `string'
PUBLIC	??_C@_0BC@LIIPCIB@Max?3?5?$CI?$CF?42f?0?5?$CF?42f?$CJ@ ; `string'
PUBLIC	??_C@_0CA@KAEHPGML@And?5now?5some?5textured?5buttons?4?4@ ; `string'
PUBLIC	??_C@_0BC@JGNKDOGB@Pressed?5?$CFd?5times?4@	; `string'
PUBLIC	??_C@_05LMOJIBPK@Combo@				; `string'
PUBLIC	??_C@_0BP@KDFGPNLK@ImGuiComboFlags_PopupAlignLeft@ ; `string'
PUBLIC	??_C@_0DO@LDFFHHPN@Only?5makes?5a?5difference?5if?5the?5@ ; `string'
PUBLIC	??_C@_0BO@IADJEHHH@ImGuiComboFlags_NoArrowButton@ ; `string'
PUBLIC	??_C@_0BK@CFAPHAND@ImGuiComboFlags_NoPreview@	; `string'
PUBLIC	??_C@_07HDIKCFGM@combo?51@			; `string'
PUBLIC	??_C@_0BL@ICCGGBKH@aaaa?$AAbbbb?$AAcccc?$AAdddd?$AAeeee?$AA?$AA@ ; `string'
PUBLIC	??_C@_0BE@BBBJNHHG@combo?52?5?$CIone?9liner?$CJ@ ; `string'
PUBLIC	??_C@_0BA@MDMKCBHF@combo?53?5?$CIarray?$CJ@	; `string'
PUBLIC	??_C@_0BD@GDHGAEJD@combo?54?5?$CIfunction?$CJ@	; `string'
PUBLIC	??_C@_0M@GOIEGLPE@Selectables@			; `string'
PUBLIC	??_C@_0BD@KCGCFIHN@1?4?5I?5am?5selectable@	; `string'
PUBLIC	??_C@_0BD@BDENONE@2?4?5I?5am?5selectable@	; `string'
PUBLIC	??_C@_0BH@JKAIDAJJ@3?4?5I?5am?5not?5selectable@	; `string'
PUBLIC	??_C@_0BD@JMOINFMH@4?4?5I?5am?5selectable@	; `string'
PUBLIC	??_C@_0BJ@DACNLCFI@5?4?5I?5am?5double?5clickable@ ; `string'
PUBLIC	??_C@_0CC@NGMIMNBC@Selection?5State?3?5Single?5Selecti@ ; `string'
PUBLIC	??_C@_09IEODADNK@Object?5?$CFd@			; `string'
PUBLIC	??_C@_0CE@ILMFMDLL@Selection?5State?3?5Multiple?5Selec@ ; `string'
PUBLIC	??_C@_0CO@HEGMKIIH@Hold?5CTRL?5and?5click?5to?5select?5m@ ; `string'
PUBLIC	??_C@_0CH@PHBOMNNA@Rendering?5more?5text?5into?5the?5sa@ ; `string'
PUBLIC	??_C@_06HIICBHNJ@main?4c@			; `string'
PUBLIC	??_C@_0N@NKEFLDLJ@?52?0345?5bytes@		; `string'
PUBLIC	??_C@_09JJLAOCPC@Hello?4cpp@			; `string'
PUBLIC	??_C@_0N@LDNEMMOG@12?0345?5bytes@		; `string'
PUBLIC	??_C@_07GGGNKCPB@Hello?4h@			; `string'
PUBLIC	??_C@_0L@JGCLAHBC@In?5columns@			; `string'
PUBLIC	??_C@_07BCJGKFOL@Item?5?$CFd@			; `string'
PUBLIC	??_C@_04FEKPLKKA@Grid@				; `string'
PUBLIC	??_C@_06IFGMFLK@Sailor@				; `string'
PUBLIC	??_C@_09FBMAGD@Alignment@			; `string'
PUBLIC	??_C@_0LO@OMOMIFEB@Alignment?5applies?5when?5a?5select@ ; `string'
PUBLIC	??_C@_0M@HCIABIHI@?$CI?$CF?41f?0?$CF?41f?$CJ@	; `string'
PUBLIC	??_C@_0L@LLAOMMOH@Text?5Input@			; `string'
PUBLIC	??_C@_0BG@ENAPIHKE@Multi?9line?5Text?5Input@	; `string'
PUBLIC	??_C@_0NI@PLBNAOOK@You?5can?5use?5the?5ImGuiInputTextF@ ; `string'
PUBLIC	??_C@_0BN@IHHKAKNM@ImGuiInputTextFlags_ReadOnly@ ; `string'
PUBLIC	??_C@_0CC@GMDAHFPL@ImGuiInputTextFlags_AllowTabInp@ ; `string'
PUBLIC	??_C@_0CI@LIKAMPDL@ImGuiInputTextFlags_CtrlEnterFo@ ; `string'
PUBLIC	??_C@_08FDEOKKII@?$CD?$CDsource@		; `string'
PUBLIC	??_C@_0BE@EABDFJK@Filtered?5Text?5Input@	; `string'
PUBLIC	??_C@_07DLHCIBDH@default@			; `string'
PUBLIC	??_C@_07EEKBCPDP@decimal@			; `string'
PUBLIC	??_C@_0M@PLANEGDO@hexadecimal@			; `string'
PUBLIC	??_C@_09NMLHJAII@uppercase@			; `string'
PUBLIC	??_C@_08BFAFMKNB@no?5blank@			; `string'
PUBLIC	??_C@_0BA@DMKNNKAP@?$CCimgui?$CC?5letters@	; `string'
PUBLIC	??_C@_0P@CKJOHAFD@Password?5input@		; `string'
PUBLIC	??_C@_08NLHBPEGP@password@			; `string'
PUBLIC	??_C@_0FB@LAANLENK@Display?5all?5characters?5as?5?8?$CK?8?4?6@ ; `string'
PUBLIC	??_C@_0L@DGGOBGAB@?$DMpassword?$DO@		; `string'
PUBLIC	??_C@_0BD@DPDFGHAP@password?5?$CIw?1?5hint?$CJ@	; `string'
PUBLIC	??_C@_0BB@LNABFGG@password?5?$CIclear?$CJ@	; `string'
PUBLIC	??_C@_0BA@PGEBLBNL@Resize?5Callback@		; `string'
PUBLIC	??_C@_0LE@JOHBHMHP@Demonstrate?5using?5ImGuiInputTex@ ; `string'
PUBLIC	??_C@_07MDDMIGJK@?$CD?$CDMyStr@			; `string'
PUBLIC	??_C@_0BP@HFIMENAP@Data?3?5?$CFp?6Size?3?5?$CFd?6Capacity?3?5?$CFd@ ; `string'
PUBLIC	??_C@_0O@LEBMLIEA@Plots?5Widgets@		; `string'
PUBLIC	??_C@_07CCNCPHDL@Animate@			; `string'
PUBLIC	??_C@_0M@LJPKANLB@Frame?5Times@			; `string'
PUBLIC	??_C@_06BECIMFEF@avg?5?$CFf@			; `string'
PUBLIC	??_C@_05DDHCCCLJ@Lines@				; `string'
PUBLIC	??_C@_09NBOAEPFB@Histogram@			; `string'
PUBLIC	??_C@_08OLJDEBGC@Sin?$AASaw?$AA@		; `string'
PUBLIC	??_C@_04HPNHAEOP@func@				; `string'
PUBLIC	??_C@_0N@LHCNOOOP@Sample?5count@		; `string'
PUBLIC	??_C@_0N@HDMPBJBE@Progress?5Bar@		; `string'
PUBLIC	??_C@_05LCKIIOJE@?$CFd?1?$CFd@			; `string'
PUBLIC	??_C@_0BF@GELOCOAL@Color?1Picker?5Widgets@	; `string'
PUBLIC	??_C@_0BD@KJCAPGNJ@With?5Alpha?5Preview@	; `string'
PUBLIC	??_C@_0BI@FJEMIBKC@With?5Half?5Alpha?5Preview@	; `string'
PUBLIC	??_C@_0BD@KEFEHFM@With?5Drag?5and?5Drop@	; `string'
PUBLIC	??_C@_0BC@EJIAMDNC@With?5Options?5Menu@		; `string'
PUBLIC	??_C@_0DM@KEMLELAP@Right?9click?5on?5the?5individual?5c@ ; `string'
PUBLIC	??_C@_08FMJOEAGN@With?5HDR@			; `string'
PUBLIC	??_C@_0EI@FHFBEIHN@Currently?5all?5this?5does?5is?5to?5l@ ; `string'
PUBLIC	??_C@_0O@NOEDKBGC@Color?5widget?3@		; `string'
PUBLIC	??_C@_0GI@PMPMCJLF@Click?5on?5the?5colored?5square?5to?5@ ; `string'
PUBLIC	??_C@_0L@BFFLOOBG@MyColor?$CD?$CD1@		; `string'
PUBLIC	??_C@_0BN@GLLLKGMC@Color?5widget?5HSV?5with?5Alpha?3@ ; `string'
PUBLIC	??_C@_0L@DOHGLNNF@MyColor?$CD?$CD2@		; `string'
PUBLIC	??_C@_0CB@GHOEMJO@Color?5widget?5with?5Float?5Display@ ; `string'
PUBLIC	??_C@_0M@MFCAJMMH@MyColor?$CD?$CD2f@		; `string'
PUBLIC	??_C@_0BK@EFMOKOBO@Color?5button?5with?5Picker?3@ ; `string'
PUBLIC	??_C@_0NH@CMBOCHE@With?5the?5ImGuiColorEditFlags_No@ ; `string'
PUBLIC	??_C@_0L@CHGNIMJE@MyColor?$CD?$CD3@		; `string'
PUBLIC	??_C@_0CH@HJNHAHAP@Color?5button?5with?5Custom?5Picker@ ; `string'
PUBLIC	??_C@_0M@KAIODDPE@MyColor?$CD?$CD3b@		; `string'
PUBLIC	??_C@_07GDPBMLLI@Palette@			; `string'
PUBLIC	??_C@_08KFPGOGIA@mypicker@			; `string'
PUBLIC	??_C@_0DA@DKOICBGC@MY?5CUSTOM?5COLOR?5PICKER?5WITH?5AN?5@ ; `string'
PUBLIC	??_C@_08HHEANBBL@?$CD?$CDpicker@		; `string'
PUBLIC	??_C@_07EDIFFIJI@Current@			; `string'
PUBLIC	??_C@_09CDENILGE@?$CD?$CDcurrent@		; `string'
PUBLIC	??_C@_08CAGLMDLD@Previous@			; `string'
PUBLIC	??_C@_0L@JEAALFFH@?$CD?$CDprevious@		; `string'
PUBLIC	??_C@_09DDJBIEE@?$CD?$CDpalette@		; `string'
PUBLIC	??_C@_06LFKNFKEK@_COL3F@			; `string'
PUBLIC	??_C@_06LAOCEMMP@_COL4F@			; `string'
PUBLIC	??_C@_0BD@NCDFBPJC@Color?5button?5only?3@	; `string'
PUBLIC	??_C@_0M@LJJFACLF@MyColor?$CD?$CD3c@		; `string'
PUBLIC	??_C@_0O@IPOAJHA@Color?5picker?3@		; `string'
PUBLIC	??_C@_0L@EACIJKCC@With?5Alpha@			; `string'
PUBLIC	??_C@_0P@HFPOLAHI@With?5Alpha?5Bar@		; `string'
PUBLIC	??_C@_0BC@IIIMIJGF@With?5Side?5Preview@		; `string'
PUBLIC	??_C@_0P@CEAKBNI@With?5Ref?5Color@		; `string'
PUBLIC	??_C@_0L@LOHJOGGK@?$CD?$CDRefColor@		; `string'
PUBLIC	??_C@_0CO@EADBOKOE@Auto?1Current?$AANone?$AARGB?5Only?$AAHSV?5@ ; `string'
PUBLIC	??_C@_0N@OFPFGAFL@Display?5Mode@		; `string'
PUBLIC	??_C@_0BAP@CCFGMMGB@ColorEdit?5defaults?5to?5displayin@ ; `string'
PUBLIC	??_C@_0DI@OEJFDCPH@Auto?1Current?$AAHue?5bar?5?$CL?5SV?5rect?$AA@ ; `string'
PUBLIC	??_C@_0M@HAMIGHD@Picker?5Mode@			; `string'
PUBLIC	??_C@_0DA@NLCBNAAH@User?5can?5right?9click?5the?5picker@ ; `string'
PUBLIC	??_C@_0L@GICMBKFD@MyColor?$CD?$CD4@		; `string'
PUBLIC	??_C@_0BP@JHHHIHGA@Programmatically?5set?5defaults?3@ ; `string'
PUBLIC	??_C@_0BFE@MHBDKCN@SetColorEditOptions?$CI?$CJ?5is?5design@ ; `string'
PUBLIC	??_C@_0BP@GBPCDFBG@Default?3?5Uint8?5?$CL?5HSV?5?$CL?5Hue?5Bar@ ; `string'
PUBLIC	??_C@_0CB@BDAOENPB@Default?3?5Float?5?$CL?5HDR?5?$CL?5Hue?5Whee@ ; `string'
PUBLIC	??_C@_0BD@DKMMPKGG@HSV?5encoded?5colors@	; `string'
PUBLIC	??_C@_0BDF@MKEKOCPP@By?5default?0?5colors?5are?5given?5to@ ; `string'
PUBLIC	??_C@_0BM@EODGJACI@Color?5widget?5with?5InputHSV?3@ ; `string'
PUBLIC	??_C@_0BE@PEEENKKH@HSV?5shown?5as?5RGB?$CD?$CD1@ ; `string'
PUBLIC	??_C@_0BE@DKMNGIOI@HSV?5shown?5as?5HSV?$CD?$CD1@ ; `string'
PUBLIC	??_C@_0P@PMCJHJ@Raw?5HSV?5values@		; `string'
PUBLIC	??_C@_0O@JEFPADJJ@Range?5Widgets@		; `string'
PUBLIC	??_C@_0N@IBBLMIOP@Max?3?5?$CF?41f?5?$CF?$CF@	; `string'
PUBLIC	??_C@_0N@MBFELAJJ@Min?3?5?$CF?41f?5?$CF?$CF@	; `string'
PUBLIC	??_C@_05CCGOGOBM@range@				; `string'
PUBLIC	??_C@_0O@JDOPLCFE@Max?3?5?$CFd?5units@		; `string'
PUBLIC	??_C@_0O@CKMJCJCF@Min?3?5?$CFd?5units@		; `string'
PUBLIC	??_C@_0BG@NFKPCFAN@range?5int?5?$CIno?5bounds?$CJ@ ; `string'
PUBLIC	??_C@_0L@PAJDALGN@Data?5Types@			; `string'
PUBLIC	??_C@_06OFIAEEBG@Drags?3@			; `string'
PUBLIC	??_C@_0BI@LDAPNGOM@Clamp?5integers?5to?50?4?450@ ; `string'
PUBLIC	??_C@_0KL@BPNBHIKN@As?5with?5every?5widgets?5in?5dear?5i@ ; `string'
PUBLIC	??_C@_07LMCLPNLL@drag?5s8@			; `string'
PUBLIC	??_C@_05MMEBHIBO@?$CFu?5ms@			; `string'
PUBLIC	??_C@_07LIKGIBAJ@drag?5u8@			; `string'
PUBLIC	??_C@_08NKMCOLAD@drag?5s16@			; `string'
PUBLIC	??_C@_08PPKJLENP@drag?5u16@			; `string'
PUBLIC	??_C@_08LNCKPKGJ@drag?5s32@			; `string'
PUBLIC	??_C@_08JIEBKFLF@drag?5u32@			; `string'
PUBLIC	??_C@_08ONLLJPAE@drag?5s64@			; `string'
PUBLIC	??_C@_08MINAMANI@drag?5u64@			; `string'
PUBLIC	??_C@_02NJPGOMH@?$CFf@				; `string'
PUBLIC	??_C@_0O@NFIBPMBK@drag?5float?5?$FO2@		; `string'
PUBLIC	??_C@_0FL@DBMGDFGC@You?5can?5use?5the?5?8power?8?5paramet@ ; `string'
PUBLIC	??_C@_0M@PBAPOGLA@?$CF?410f?5grams@		; `string'
PUBLIC	??_C@_0M@IJGAEMEI@drag?5double@			; `string'
PUBLIC	??_C@_0O@PIJBNPDH@0?5?$DM?5?$CF?410f?5?$DM?51@	; `string'
PUBLIC	??_C@_0P@EEJHEFFF@drag?5double?5?$FO2@		; `string'
PUBLIC	??_C@_07BBLEOMAH@Sliders@			; `string'
PUBLIC	??_C@_0P@BGDAIEKI@slider?5s8?5full@		; `string'
PUBLIC	??_C@_02GMHACPFF@?$CFu@				; `string'
PUBLIC	??_C@_0P@NAFPINCP@slider?5u8?5full@		; `string'
PUBLIC	??_C@_0BA@NJECJBBM@slider?5s16?5full@		; `string'
PUBLIC	??_C@_0BA@KKFIOIJG@slider?5u16?5full@		; `string'
PUBLIC	??_C@_0P@LPLLDPN@slider?5s32?5low@		; `string'
PUBLIC	??_C@_0BA@KCOOMONB@slider?5s32?5high@		; `string'
PUBLIC	??_C@_0BA@GPCILCHC@slider?5s32?5full@		; `string'
PUBLIC	??_C@_0P@MNJELKHK@slider?5u32?5low@		; `string'
PUBLIC	??_C@_0BA@NBPELHFL@slider?5u32?5high@		; `string'
PUBLIC	??_C@_0BA@BMDCMLPI@slider?5u32?5full@		; `string'
PUBLIC	??_C@_05LLAMLEHD@?$CFI64d@			; `string'
PUBLIC	??_C@_0P@IPJKHPEH@slider?5s64?5low@		; `string'
PUBLIC	??_C@_0BA@IJNOPFIP@slider?5s64?5high@		; `string'
PUBLIC	??_C@_0BA@EEBIIJCM@slider?5s64?5full@		; `string'
PUBLIC	??_C@_08GGAHJCGP@?$CFI64u?5ms@			; `string'
PUBLIC	??_C@_0P@EJPFHGMA@slider?5u64?5low@		; `string'
PUBLIC	??_C@_0BA@PKMEIMAF@slider?5u64?5high@		; `string'
PUBLIC	??_C@_0BA@DHACPAKG@slider?5u64?5full@		; `string'
PUBLIC	??_C@_0BB@CCICNGDA@slider?5float?5low@		; `string'
PUBLIC	??_C@_05DIPGONMJ@?$CF?410f@			; `string'
PUBLIC	??_C@_0BD@DLKEDEFL@slider?5float?5low?$FO2@	; `string'
PUBLIC	??_C@_0BC@EHBCAJLJ@slider?5float?5high@		; `string'
PUBLIC	??_C@_0BC@NEJIDBJN@slider?5double?5low@		; `string'
PUBLIC	??_C@_0BE@BOGDHHDO@slider?5double?5low?$FO2@	; `string'
PUBLIC	??_C@_08NHECNFJD@?$CFe?5grams@			; `string'
PUBLIC	??_C@_0BD@OPIDMMAL@slider?5double?5high@	; `string'
PUBLIC	??_C@_06HDCHCENJ@Inputs@			; `string'
PUBLIC	??_C@_0BC@HEADHDLD@Show?5step?5buttons@		; `string'
PUBLIC	??_C@_08HGJIKBLN@input?5s8@			; `string'
PUBLIC	??_C@_08HCBFNNAP@input?5u8@			; `string'
PUBLIC	??_C@_09DDGLPNGK@input?5s16@			; `string'
PUBLIC	??_C@_09BGAAKCLG@input?5u16@			; `string'
PUBLIC	??_C@_09FEIDOMAA@input?5s32@			; `string'
PUBLIC	??_C@_04JIMNDDED@?$CF08X@			; `string'
PUBLIC	??_C@_0O@EKPJHNHM@input?5s32?5hex@		; `string'
PUBLIC	??_C@_09HBOILDNM@input?5u32@			; `string'
PUBLIC	??_C@_0O@IMJGHEPL@input?5u32?5hex@		; `string'
PUBLIC	??_C@_09EBCIJGN@input?5s64@			; `string'
PUBLIC	??_C@_09CBHJNGLB@input?5u64@			; `string'
PUBLIC	??_C@_0BI@ELCHCBAK@Multi?9component?5Widgets@	; `string'
PUBLIC	??_C@_0N@LDNFGIIE@input?5float2@		; `string'
PUBLIC	??_C@_0M@EHEBDGFJ@drag?5float2@			; `string'
PUBLIC	??_C@_0O@NIDINEOI@slider?5float2@		; `string'
PUBLIC	??_C@_0L@IKAEHOLD@input?5int2@			; `string'
PUBLIC	??_C@_09LOIDAOFJ@drag?5int2@			; `string'
PUBLIC	??_C@_0M@LEEOPKGD@slider?5int2@			; `string'
PUBLIC	??_C@_0M@FOFKAHBI@drag?5float3@			; `string'
PUBLIC	??_C@_0O@MBCDOFKJ@slider?5float3@		; `string'
PUBLIC	??_C@_0L@JDBPEPPC@input?5int3@			; `string'
PUBLIC	??_C@_09KHJIDPBI@drag?5int3@			; `string'
PUBLIC	??_C@_0M@KNFFMLCC@slider?5int3@			; `string'
PUBLIC	??_C@_0N@OFIPMPAC@input?5float4@		; `string'
PUBLIC	??_C@_0M@BBBLJBNP@drag?5float4@			; `string'
PUBLIC	??_C@_0O@IOGCHDGO@slider?5float4@		; `string'
PUBLIC	??_C@_0L@NMFONJDF@input?5int4@			; `string'
PUBLIC	??_C@_09OINJKJNP@drag?5int4@			; `string'
PUBLIC	??_C@_0M@OCBEFNOF@slider?5int4@			; `string'
PUBLIC	??_C@_0BB@EAIBMPEL@Vertical?5Sliders@		; `string'
PUBLIC	??_C@_05GFAJOEB@?$CD?$CDint@			; `string'
PUBLIC	??_C@_04BOPCFCPC@set1@				; `string'
PUBLIC	??_C@_00CNPNBAHC@@				; `string'
PUBLIC	??_C@_03CPFCAGPK@?$CD?$CDv@			; `string'
PUBLIC	??_C@_04DFNPABDB@set2@				; `string'
PUBLIC	??_C@_04CMMEDAHA@set3@				; `string'
PUBLIC	??_C@_08OPMLCCJJ@?$CF?42f?6sec@			; `string'
PUBLIC	??_C@_0O@NPGBLOMK@Drag?5and?5Drop@		; `string'
PUBLIC	??_C@_0CC@EPFBCHH@Drag?5and?5drop?5in?5standard?5widge@ ; `string'
PUBLIC	??_C@_0CH@FOFLCNFN@You?5can?5drag?5from?5the?5colored?5s@ ; `string'
PUBLIC	??_C@_0CB@EBEBHJBF@Drag?5and?5drop?5to?5copy?1swap?5item@ ; `string'
PUBLIC	??_C@_04OPMHGHMB@Copy@				; `string'
PUBLIC	??_C@_04LCANPIEP@Move@				; `string'
PUBLIC	??_C@_04NGKMPNDN@Swap@				; `string'
PUBLIC	??_C@_0O@IBJLLBID@DND_DEMO_CELL@		; `string'
PUBLIC	??_C@_07CFHHFHOL@Copy?5?$CFs@			; `string'
PUBLIC	??_C@_07EDLENMEH@Move?5?$CFs@			; `string'
PUBLIC	??_C@_07MIGHAHCG@Swap?5?$CFs@			; `string'
PUBLIC	??_C@_1EC@PPPBDLLH@?$AAp?$AAa?$AAy?$AAl?$AAo?$AAa?$AAd?$AA?9?$AA?$DO?$AAD?$AAa?$AAt?$AAa?$AAS?$AAi@ ; `string'
PUBLIC	??_C@_0BP@DIEMEPOM@Drag?5to?5reorder?5items?5?$CIsimple?$CJ@ ; `string'
PUBLIC	??_C@_0IF@PPHKDPML@We?5don?8t?5use?5the?5drag?5and?5drop?5@ ; `string'
PUBLIC	??_C@_0CO@NBHMOIFJ@Querying?5Status?5?$CIActive?1Focused@ ; `string'
PUBLIC	??_C@_0JG@MDBHHAIF@Text?$AAButton?$AAButton?5?$CIw?1?5repeat?$CJ?$AA@ ; `string'
PUBLIC	??_C@_09DBIMNOFJ@Item?5Type@			; `string'
PUBLIC	??_C@_0FB@PLFPNHBO@Testing?5how?5various?5types?5of?5it@ ; `string'
PUBLIC	??_C@_0L@HEHKMKDF@ITEM?3?5Text@			; `string'
PUBLIC	??_C@_0N@KDFNBBDI@ITEM?3?5Button@		; `string'
PUBLIC	??_C@_0P@EJKLMMCP@ITEM?3?5Checkbox@		; `string'
PUBLIC	??_C@_0BC@HBFCOBHP@ITEM?3?5SliderFloat@		; `string'
PUBLIC	??_C@_0BA@HPKEIJD@ITEM?3?5InputText@		; `string'
PUBLIC	??_C@_0BB@LGHPELBI@ITEM?3?5InputFloat@		; `string'
PUBLIC	??_C@_0BC@OHLBICCN@ITEM?3?5InputFloat3@		; `string'
PUBLIC	??_C@_0BB@GFGJJDD@ITEM?3?5ColorEdit4@		; `string'
PUBLIC	??_C@_0P@DJLFKAPF@ITEM?3?5MenuItem@		; `string'
PUBLIC	??_C@_0P@LCFKNGDN@ITEM?3?5TreeNode@		; `string'
PUBLIC	??_C@_0DH@BOEHHDDC@ITEM?3?5TreeNode?5w?1?5ImGuiTreeNode@ ; `string'
PUBLIC	??_C@_0O@DECMNPJF@ITEM?3?5ListBox@		; `string'
PUBLIC	??_C@_0CAA@CDNKPHBM@Return?5value?5?$DN?5?$CFd?6IsItemFocused@ ; `string'
PUBLIC	??_C@_0EA@FIPEGKJF@Embed?5everything?5inside?5a?5child@ ; `string'
PUBLIC	??_C@_0M@KCHHLPPE@outer_child@			; `string'
PUBLIC	??_C@_0KP@HKEFGHBG@IsWindowFocused?$CI?$CJ?5?$DN?5?$CFd?6IsWindow@ ; `string'
PUBLIC	??_C@_0BEP@BNECLKFC@IsWindowHovered?$CI?$CJ?5?$DN?5?$CFd?6IsWindow@ ; `string'
PUBLIC	??_C@_05GPGNDLEK@child@				; `string'
PUBLIC	??_C@_0EB@JLFLAMNL@This?5is?5another?5child?5window?5fo@ ; `string'
PUBLIC	??_C@_05JLNEMJLN@dummy@				; `string'
PUBLIC	??_C@_0DJ@OKFMLKNH@Hovered?1Active?5tests?5after?5Begi@ ; `string'
PUBLIC	??_C@_0BP@MFKNMHP@Title?5bar?5Hovered?1Active?5tests@ ; `string'
PUBLIC	??_C@_05LGELBCGM@Close@				; `string'
PUBLIC	??_C@_0HP@CKBHJIAM@IsItemHovered?$CI?$CJ?5after?5begin?5?$DN?5?$CF@ ; `string'
PUBLIC	??_C@_06KMHOJANB@Layout@			; `string'
PUBLIC	??_C@_0O@CCLKLEED@Child?5windows@		; `string'
PUBLIC	??_C@_0GO@NHEDEMHF@Use?5child?5windows?5to?5begin?5into@ ; `string'
PUBLIC	??_C@_0BE@DLAKMPBE@Disable?5Mouse?5Wheel@	; `string'
PUBLIC	??_C@_0N@PGMIMFJH@Disable?5Menu@		; `string'
PUBLIC	??_C@_04BNGNMAK@Goto@				; `string'
PUBLIC	??_C@_06JMBAAABB@?$CD?$CDLine@			; `string'
PUBLIC	??_C@_06JPIGPLJL@Child1@			; `string'
PUBLIC	??_C@_0BI@NIHPFDMO@?$CF04d?3?5scrollable?5region@ ; `string'
PUBLIC	??_C@_06LEKLKIFI@Child2@			; `string'
PUBLIC	??_C@_04OHGLKFFN@?$CF03d@			; `string'
PUBLIC	??_C@_04EPOOCEMM@blah@				; `string'
PUBLIC	??_C@_0N@NPCHMHMN@Some?5test?5?$CFd@		; `string'
PUBLIC	??_C@_0DB@EENCLFAL@Rect?5of?5child?5window?5is?3?5?$CI?$CF?40f?0@ ; `string'
PUBLIC	??_C@_0O@PINHNBJ@Widgets?5Width@		; `string'
PUBLIC	??_C@_0CE@LPIOKAFF@SetNextItemWidth?1PushItemWidth?$CI@ ; `string'
PUBLIC	??_C@_0N@BANGKKCL@Fixed?5width?4@		; `string'
PUBLIC	??_C@_08ENBOPPKM@float?$CD?$CD1@		; `string'
PUBLIC	??_C@_0DI@PLEIEGIE@SetNextItemWidth?1PushItemWidth?$CI@ ; `string'
PUBLIC	??_C@_0BG@HBJEDPEN@Half?5of?5window?5width?4@	; `string'
PUBLIC	??_C@_08GGDDKMGP@float?$CD?$CD2@		; `string'
PUBLIC	??_C@_0EB@LHGGMOLL@SetNextItemWidth?1PushItemWidth?$CI@ ; `string'
PUBLIC	??_C@_0EK@LHEEJHHB@Half?5of?5available?5width?4?6?$CI?$HO?5rig@ ; `string'
PUBLIC	??_C@_08HPCIJNCO@float?$CD?$CD3@		; `string'
PUBLIC	??_C@_0CF@FHLMHJP@SetNextItemWidth?1PushItemWidth?$CI@ ; `string'
PUBLIC	??_C@_0BO@IEOHBCBL@Align?5to?5right?5edge?5minus?5100@ ; `string'
PUBLIC	??_C@_08DAGJALOJ@float?$CD?$CD4@		; `string'
PUBLIC	??_C@_0CD@JMHOPAFH@SetNextItemWidth?1PushItemWidth?$CI@ ; `string'
PUBLIC	??_C@_0BE@CLIHJLDF@Align?5to?5right?5edge@	; `string'
PUBLIC	??_C@_09LOBKLHLF@?$CD?$CDfloat5a@		; `string'
PUBLIC	??_C@_09JFDHOEHG@?$CD?$CDfloat5b@		; `string'
PUBLIC	??_C@_09IMCMNFDH@?$CD?$CDfloat5c@		; `string'
PUBLIC	??_C@_0BI@MLGIMKHF@Basic?5Horizontal?5Layout@	; `string'
PUBLIC	??_C@_0FA@GPJJJDFK@?$CIUse?5ImGui?3?3SameLine?$CI?$CJ?5to?5keep?5@ ; `string'
PUBLIC	??_C@_0BB@CPONELNL@Two?5items?3?5Hello@		; `string'
PUBLIC	??_C@_0BE@BBDLDECN@More?5spacing?3?5Hello@	; `string'
PUBLIC	??_C@_0P@PEKJFFJL@Normal?5buttons@		; `string'
PUBLIC	??_C@_0M@IAINFGJF@Corniflower@			; `string'
PUBLIC	??_C@_0O@JIDOKED@Small?5buttons@		; `string'
PUBLIC	??_C@_0O@DOOOCPOJ@Like?5this?5one@		; `string'
PUBLIC	??_C@_0BN@FOPDMCKC@can?5fit?5within?5a?5text?5block?4@ ; `string'
PUBLIC	??_C@_07KDGBBGOD@Aligned@			; `string'
PUBLIC	??_C@_05EFIMCDIL@x?$DN150@			; `string'
PUBLIC	??_C@_05OJEOCJOL@x?$DN300@			; `string'
PUBLIC	??_C@_02IGABPKMB@My@				; `string'
PUBLIC	??_C@_06MNPBPLDE@Tailor@			; `string'
PUBLIC	??_C@_02HLOHLKJH@Is@				; `string'
PUBLIC	??_C@_04NKJFLIBG@Rich@				; `string'
PUBLIC	??_C@_01MMEEDKFM@X@				; `string'
PUBLIC	??_C@_01NFFPALBN@Y@				; `string'
PUBLIC	??_C@_01POHCFINO@Z@				; `string'
PUBLIC	??_C@_06OHPCMELK@Lists?3@			; `string'
PUBLIC	??_C@_01FHEEJDEE@A@				; `string'
PUBLIC	??_C@_01HMGJMAIH@B@				; `string'
PUBLIC	??_C@_0BD@CAEJLMBE@Manually?5wrapping?3@	; `string'
PUBLIC	??_C@_03ELMLMPLG@Box@				; `string'
PUBLIC	??_C@_04DIJFMEPE@Tabs@				; `string'
PUBLIC	??_C@_08BHPFJKBJ@MyTabBar@			; `string'
PUBLIC	??_C@_07PJEDDDBE@Avocado@			; `string'
PUBLIC	??_C@_0DC@GCKNABCK@This?5is?5the?5Avocado?5tab?$CB?6blah?5b@ ; `string'
PUBLIC	??_C@_08LMFMBPKH@Broccoli@			; `string'
PUBLIC	??_C@_0DD@MJGBNDMM@This?5is?5the?5Broccoli?5tab?$CB?6blah?5@ ; `string'
PUBLIC	??_C@_08FIHABPKG@Cucumber@			; `string'
PUBLIC	??_C@_0DD@CJPLEJGJ@This?5is?5the?5Cucumber?5tab?$CB?6blah?5@ ; `string'
PUBLIC	??_C@_0BI@NAEAKGLC@Advanced?5?$CG?5Close?5Button@ ; `string'
PUBLIC	??_C@_0BN@FKNGBAKI@ImGuiTabBarFlags_Reorderable@ ; `string'
PUBLIC	??_C@_0CD@CJJDGNCL@ImGuiTabBarFlags_AutoSelectNewT@ ; `string'
PUBLIC	??_C@_0CE@ODMHCKNA@ImGuiTabBarFlags_TabListPopupBu@ ; `string'
PUBLIC	??_C@_0CO@PEFOKBDP@ImGuiTabBarFlags_NoCloseWithMid@ ; `string'
PUBLIC	??_C@_0CJ@IIIJDEBN@ImGuiTabBarFlags_FittingPolicyR@ ; `string'
PUBLIC	??_C@_0CF@NLLNBILH@ImGuiTabBarFlags_FittingPolicyS@ ; `string'
PUBLIC	??_C@_09JNADJLBG@Artichoke@			; `string'
PUBLIC	??_C@_08NACLCGIP@Beetroot@			; `string'
PUBLIC	??_C@_06LGPLDCHA@Celery@			; `string'
PUBLIC	??_C@_06NBIPACBO@Daikon@			; `string'
PUBLIC	??_C@_0BE@HMOLENGG@This?5is?5the?5?$CFs?5tab?$CB@ ; `string'
PUBLIC	??_C@_0BB@PAPJGNOM@I?5am?5an?5odd?5tab?4@	; `string'
PUBLIC	??_C@_06LCLFDFOL@Groups@			; `string'
PUBLIC	??_C@_0NJ@BBEJCFPH@BeginGroup?$CI?$CJ?5basically?5locks?5th@ ; `string'
PUBLIC	??_C@_03GFCJIGAI@AAA@				; `string'
PUBLIC	??_C@_03FOPHMEHM@BBB@				; `string'
PUBLIC	??_C@_03POJCPIGP@CCC@				; `string'
PUBLIC	??_C@_03CJELEAJE@DDD@				; `string'
PUBLIC	??_C@_03IJCOHMIH@EEE@				; `string'
PUBLIC	??_C@_0BE@GCGPENCF@First?5group?5hovered@	; `string'
PUBLIC	??_C@_08NDEOOAHA@?$CD?$CDvalues@		; `string'
PUBLIC	??_C@_06DHJAPAEE@ACTION@			; `string'
PUBLIC	??_C@_08HBCMJOON@REACTION@			; `string'
PUBLIC	??_C@_0BC@NCAPIIPH@LEVERAGE?6BUZZWORD@		; `string'
PUBLIC	??_C@_04PPBEGPNI@List@				; `string'
PUBLIC	??_C@_08KLEPBNHL@Selected@			; `string'
PUBLIC	??_C@_0N@FODJADJE@Not?5Selected@		; `string'
PUBLIC	??_C@_0BI@DMCNFLHM@Text?5Baseline?5Alignment@	; `string'
PUBLIC	??_C@_0P@FLJDDPLM@Text?5baseline?3@		; `string'
PUBLIC	??_C@_0MN@BCGLJGPG@This?5is?5testing?5the?5vertical?5al@ ; `string'
PUBLIC	??_C@_0M@HEDLMKK@KO?5Blahblah@			; `string'
PUBLIC	??_C@_0BB@GBEAAIAC@Some?5framed?5item@		; `string'
PUBLIC	??_C@_0DE@PMNLFDAO@Baseline?5of?5button?5will?5look?5mi@ ; `string'
PUBLIC	??_C@_0M@LEJMPEFH@OK?5Blahblah@			; `string'
PUBLIC	??_C@_0FL@DLOHNEGO@We?5call?5AlignTextToFramePadding@ ; `string'
PUBLIC	??_C@_07FENKGLPN@TEST?$CD?$CD1@			; `string'
PUBLIC	??_C@_04OIKJMBFP@TEST@				; `string'
PUBLIC	??_C@_07HPPHDIDO@TEST?$CD?$CD2@			; `string'
PUBLIC	??_C@_0BM@CCJJPIAI@Text?5aligned?5to?5framed?5item@ ; `string'
PUBLIC	??_C@_07MDGCNPKG@Item?$CD?$CD1@			; `string'
PUBLIC	??_C@_04BGCMBJDA@Item@				; `string'
PUBLIC	??_C@_07OIEPIMGF@Item?$CD?$CD2@			; `string'
PUBLIC	??_C@_07PBFELNCE@Item?$CD?$CD3@			; `string'
PUBLIC	??_C@_0BB@IKLHLLAO@Multi?9line?5text?3@		; `string'
PUBLIC	??_C@_0O@LPFJLNGJ@One?6Two?6Three@		; `string'
PUBLIC	??_C@_0M@MEHCJFNA@Hello?6World@			; `string'
PUBLIC	??_C@_06JNLLJDDG@HOP?$CD?$CD1@			; `string'
PUBLIC	??_C@_06LGJGMAPF@HOP?$CD?$CD2@			; `string'
PUBLIC	??_C@_0M@OFIEFPON@Misc?5items?3@		; `string'
PUBLIC	??_C@_05FMIAGJLC@80x80@				; `string'
PUBLIC	??_C@_05OIMGOJDP@50x50@				; `string'
PUBLIC	??_C@_08DHDFAMNE@Button?$CI?$CJ@		; `string'
PUBLIC	??_C@_0O@DANAPFLN@SmallButton?$CI?$CJ@		; `string'
PUBLIC	??_C@_09JNECCGKE@Button?$CD?$CD1@		; `string'
PUBLIC	??_C@_07FHFCIGOP@Node?$CD?$CD1@			; `string'
PUBLIC	??_C@_09CCOCANBA@Item?5?$CFd?4?4@		; `string'
PUBLIC	??_C@_07HMHPNFCM@Node?$CD?$CD2@			; `string'
PUBLIC	??_C@_09LGGPHFGH@Button?$CD?$CD2@		; `string'
PUBLIC	??_C@_09KPHEEECG@Button?$CD?$CD3@		; `string'
PUBLIC	??_C@_0M@DABAODPF@Bullet?5text@			; `string'
PUBLIC	??_C@_04OKAPPFIB@Node@				; `string'
PUBLIC	??_C@_09OADFNCOB@Button?$CD?$CD4@		; `string'
PUBLIC	??_C@_09LFBMELOM@Scrolling@			; `string'
PUBLIC	??_C@_0FE@KFLONGJI@Use?5SetScrollHereY?$CI?$CJ?5or?5SetScro@ ; `string'
PUBLIC	??_C@_0L@ODNEMNHD@Decoration@			; `string'
PUBLIC	??_C@_0GM@GBNFBEFB@We?5expose?5this?5for?5testing?5beca@ ; `string'
PUBLIC	??_C@_05BFDCPAGB@Track@				; `string'
PUBLIC	??_C@_09GAMHFGFH@Item?5?$DN?5?$CFd@		; `string'
PUBLIC	??_C@_06PDMOEKMO@?$CD?$CDitem@			; `string'
PUBLIC	??_C@_0O@EDOJIGBC@Scroll?5Offset@		; `string'
PUBLIC	??_C@_08DGGLGIAM@?$CL?$CF?40f?5px@		; `string'
PUBLIC	??_C@_05FFNMOAPG@?$CD?$CDoff@			; `string'
PUBLIC	??_C@_0O@CGNNKBMG@Scroll?5To?5Pos@		; `string'
PUBLIC	??_C@_0O@LJJDDGBB@X?1Y?5?$DN?5?$CF?40f?5px@	; `string'
PUBLIC	??_C@_05GFMCHKKE@?$CD?$CDpos@			; `string'
PUBLIC	??_C@_0BE@NILALFMA@?$CD?$CDVerticalScrolling@	; `string'
PUBLIC	??_C@_03PGGAENPN@Top@				; `string'
PUBLIC	??_C@_03EOMKOHFF@25?$CF@			; `string'
PUBLIC	??_C@_06NOADDNNE@Center@			; `string'
PUBLIC	??_C@_03HJBEBHGH@75?$CF@			; `string'
PUBLIC	??_C@_06DDHCBBGN@Bottom@			; `string'
PUBLIC	??_C@_03FIKCJHKP@abc@				; `string'
PUBLIC	??_C@_09DKGDMKKF@?$CF?40f?1?$CF?40f@		; `string'
PUBLIC	??_C@_0CAK@JJECNJPI@Use?5SetScrollHereX?$CI?$CJ?5or?5SetScro@ ; `string'
PUBLIC	??_C@_0BG@BEAADLOE@?$CD?$CDHorizontalScrolling@	; `string'
PUBLIC	??_C@_04KPCPLBPL@Left@				; `string'
PUBLIC	??_C@_05DADPALEM@Right@				; `string'
PUBLIC	??_C@_0N@MJLHBHDH@?$CFs?6?$CF?40f?1?$CF?40f@	; `string'
PUBLIC	??_C@_0NL@PPAIPOMM@Horizontal?5scrolling?5for?5a?5wind@ ; `string'
PUBLIC	??_C@_09PKEBEIDM@scrolling@			; `string'
PUBLIC	??_C@_08GLBPKMPD@FizzBuzz@			; `string'
PUBLIC	??_C@_04CEPGGBHI@Fizz@				; `string'
PUBLIC	??_C@_04MLLJCPJP@Buzz@				; `string'
PUBLIC	??_C@_02FODMEDOG@?$DM?$DM@			; `string'
PUBLIC	??_C@_0BB@HICDBOJF@Scroll?5from?5code@		; `string'
PUBLIC	??_C@_02GPIOPFAK@?$DO?$DO@			; `string'
PUBLIC	??_C@_0CK@KHHLOHPL@Show?5Horizontal?5contents?5size?5d@ ; `string'
PUBLIC	??_C@_0CF@OHGKBEFE@Horizontal?5contents?5size?5demo?5w@ ; `string'
PUBLIC	??_C@_0LE@BCMFBNBD@Test?5of?5different?5widgets?5react@ ; `string'
PUBLIC	??_C@_0M@PCJBMDND@H?9scrollbar@			; `string'
PUBLIC	??_C@_0L@DIDHCLKE@Tree?5nodes@			; `string'
PUBLIC	??_C@_0N@HDFBIJDK@Text?5wrapped@		; `string'
PUBLIC	??_C@_07IBCCJKML@Columns@			; `string'
PUBLIC	??_C@_07CHLOJOEF@Tab?5bar@			; `string'
PUBLIC	??_C@_05GIMBDOHM@Child@				; `string'
PUBLIC	??_C@_0BG@GEDBKKBK@Explicit?5content?5size@	; `string'
PUBLIC	??_C@_0BL@EDCBBBDH@Scroll?5?$CF?41f?1?$CF?41f?5?$CF?41f?1?$CF?41f@ ; `string'
PUBLIC	??_C@_05NBKGABAK@?$CD?$CDcsx@			; `string'
PUBLIC	??_C@_0BK@GGAJDBIL@this?5is?5a?5300?9wide?5button@ ; `string'
PUBLIC	??_C@_0BE@HNGLJJLH@this?5is?5a?5tree?5node@	; `string'
PUBLIC	??_C@_0CC@FFNCLEGA@another?5one?5of?5those?5tree?5node?4@ ; `string'
PUBLIC	??_C@_0BD@GOEDKDLO@Some?5tree?5contents@	; `string'
PUBLIC	??_C@_0BB@LBMIMLJO@CollapsingHeader@		; `string'
PUBLIC	??_C@_0EH@ECONPGGJ@This?5text?5should?5automatically?5@ ; `string'
PUBLIC	??_C@_0L@CDOLGENO@Width?5?$CF?42f@		; `string'
PUBLIC	??_C@_05COLMCDPH@Hello@				; `string'
PUBLIC	??_C@_09DHLFJNGJ@OneOneOne@			; `string'
PUBLIC	??_C@_09BMOICMLJ@TwoTwoTwo@			; `string'
PUBLIC	??_C@_0BA@BGMNPICP@ThreeThreeThree@		; `string'
PUBLIC	??_C@_0N@GNNAMPMJ@FourFourFour@			; `string'
PUBLIC	??_C@_08LLKICGJM@Clipping@			; `string'
PUBLIC	??_C@_0BAK@JJMCOOGK@On?5a?5per?9widget?5basis?5we?5are?5oc@ ; `string'
PUBLIC	??_C@_04IAGNFIBA@size@				; `string'
PUBLIC	??_C@_0BB@BLJLNCGP@?$CIClick?5and?5drag?$CJ@	; `string'
PUBLIC	??_C@_07MGJIPBMD@?$CD?$CDdummy@			; `string'
PUBLIC	??_C@_0BN@MKAJBHJO@Line?51?5hello?6Line?52?5clip?5me?$CB@ ; `string'
PUBLIC	??_C@_0BH@JODLIHDO@Popups?5?$CG?5Modal?5windows@ ; `string'
PUBLIC	??_C@_06ENDEIGLN@Popups@			; `string'
PUBLIC	??_C@_0HO@LGMOGOO@When?5a?5popup?5is?5active?0?5it?5inhi@ ; `string'
PUBLIC	??_C@_05BKABPFFI@Bream@				; `string'
PUBLIC	??_C@_07BNGOACBO@Haddock@			; `string'
PUBLIC	??_C@_08OFLHLLIP@Mackerel@			; `string'
PUBLIC	??_C@_07DOCMJKHB@Pollock@			; `string'
PUBLIC	??_C@_08EGAMPFAB@Tilefish@			; `string'
PUBLIC	??_C@_08NNBGNINF@Select?4?4@			; `string'
PUBLIC	??_C@_0BA@GGCCCMJM@my_select_popup@		; `string'
PUBLIC	??_C@_06PHEAPGKB@?$DMNone?$DO@			; `string'
PUBLIC	??_C@_08IKEIPKBP@Aquarium@			; `string'
PUBLIC	??_C@_08NINPLAO@Toggle?4?4@			; `string'
PUBLIC	??_C@_0BA@LJBKGLLI@my_toggle_popup@		; `string'
PUBLIC	??_C@_08GMNJJNGG@Sub?9menu@			; `string'
PUBLIC	??_C@_08PPLGDLFG@Click?5me@			; `string'
PUBLIC	??_C@_0N@IODHFNG@Tooltip?5here@			; `string'
PUBLIC	??_C@_0BM@HJLGLIOD@I?5am?5a?5tooltip?5over?5a?5popup@ ; `string'
PUBLIC	??_C@_0O@NAJLJJDJ@Stacked?5Popup@		; `string'
PUBLIC	??_C@_0O@CMMIFNBD@another?5popup@		; `string'
PUBLIC	??_C@_0BI@DMMONLJF@I?5am?5the?5last?5one?5here?4@ ; `string'
PUBLIC	??_C@_0M@GKGGLAGK@File?5Menu?4?4@		; `string'
PUBLIC	??_C@_0O@CMFGCCH@my_file_popup@			; `string'
PUBLIC	??_C@_0O@EGPMCJBG@Context?5menus@		; `string'
PUBLIC	??_C@_0CE@FFAOKKJB@Value?5?$DN?5?$CF?43f?5?$CI?$DM?9?9?5right?9click?5h@ ; `string'
PUBLIC	??_C@_0BC@LPLCKLLE@item?5context?5menu@		; `string'
PUBLIC	??_C@_0M@MLNNLOAO@Set?5to?5zero@		; `string'
PUBLIC	??_C@_09NJOBBCFG@Set?5to?5PI@			; `string'
PUBLIC	??_C@_07FGLEKONH@?$CD?$CDValue@			; `string'
PUBLIC	??_C@_0DP@BJIBGGDI@?$CIYou?5can?5also?5right?9click?5me?5to@ ; `string'
PUBLIC	??_C@_0BE@BJGBOOKP@Button?3?5?$CFs?$CD?$CD?$CDButton@ ; `string'
PUBLIC	??_C@_0L@MIFJAGAG@Edit?5name?3@			; `string'
PUBLIC	??_C@_06PEDNKACM@?$CD?$CDedit@			; `string'
PUBLIC	??_C@_0BH@BPPDJDHF@?$CI?$DM?9?9?5right?9click?5here?$CJ@ ; `string'
PUBLIC	??_C@_06BEBKNACN@Modals@			; `string'
PUBLIC	??_C@_0FN@LBGEHGKO@Modal?5windows?5are?5like?5popups?5b@ ; `string'
PUBLIC	??_C@_08CPNCIMAF@Delete?4?4@			; `string'
PUBLIC	??_C@_07DCPPKMOD@Delete?$DP@			; `string'
PUBLIC	??_C@_0EO@GEGEJAML@All?5those?5beautiful?5files?5will?5@ ; `string'
PUBLIC	??_C@_0BH@BGNANACB@Don?8t?5ask?5me?5next?5time@	; `string'
PUBLIC	??_C@_02GIPFHKNO@OK@				; `string'
PUBLIC	??_C@_06FMBNCPDL@Cancel@			; `string'
PUBLIC	??_C@_0BB@NNACGNLC@Stacked?5modals?4?4@		; `string'
PUBLIC	??_C@_09DMLDOIOE@Stacked?51@			; `string'
PUBLIC	??_C@_04PBAHLACE@File@				; `string'
PUBLIC	??_C@_0BA@DBBHCGNO@Dummy?5menu?5item@		; `string'
PUBLIC	??_C@_0FG@FEJJJKAO@Hello?5from?5Stacked?5The?5First?6Us@ ; `string'
PUBLIC	??_C@_05PEENBMOG@color@				; `string'
PUBLIC	??_C@_0BE@EOGCGODN@Add?5another?5modal?4?4@	; `string'
PUBLIC	??_C@_09BHJOLLCH@Stacked?52@			; `string'
PUBLIC	??_C@_0BP@CPFMAIJ@Hello?5from?5Stacked?5The?5Second?$CB@ ; `string'
PUBLIC	??_C@_0BO@EEOFHCMN@Menus?5inside?5a?5regular?5window@ ; `string'
PUBLIC	??_C@_0GB@PMDHHLNB@Below?5we?5are?5testing?5adding?5men@ ; `string'
PUBLIC	??_C@_03GBBIHDEJ@foo@				; `string'
PUBLIC	??_C@_06GCLBOGOD@CTRL?$CLM@			; `string'
PUBLIC	??_C@_09PDGIKJJH@Menu?5item@			; `string'
PUBLIC	??_C@_0BN@MFBALFLF@Menu?5inside?5a?5regular?5window@ ; `string'
PUBLIC	??_C@_0BJ@JLFJACII@Disable?5tree?5indentation@	; `string'
PUBLIC	??_C@_0FD@EHJEKNDN@Disable?5the?5indenting?5of?5tree?5n@ ; `string'
PUBLIC	??_C@_0BA@KGDHMKCI@Without?5border?3@		; `string'
PUBLIC	??_C@_0L@GGDPAOBO@mycolumns3@			; `string'
PUBLIC	??_C@_0N@IEPPLKGA@With?5border?3@		; `string'
PUBLIC	??_C@_09IGOFLFMM@mycolumns@			; `string'
PUBLIC	??_C@_02OLOABKKD@ID@				; `string'
PUBLIC	??_C@_04FABLJDN@Name@				; `string'
PUBLIC	??_C@_04HMIIHGGM@Path@				; `string'
PUBLIC	??_C@_07BPEJBMFM@Hovered@			; `string'
PUBLIC	??_C@_03EHAPBBEA@One@				; `string'
PUBLIC	??_C@_03CJAPLBKL@Two@				; `string'
PUBLIC	??_C@_05OHMANGAP@Three@				; `string'
PUBLIC	??_C@_09MIFGPDGD@?1path?1one@			; `string'
PUBLIC	??_C@_09KGFGFDII@?1path?1two@			; `string'
PUBLIC	??_C@_0M@BHGNKNGD@?1path?1three@		; `string'
PUBLIC	??_C@_04OCCELDNI@?$CF04d@			; `string'
PUBLIC	??_C@_07PJFMDFHH@Borders@			; `string'
PUBLIC	??_C@_0L@NLMHJDCE@?$CFd?5columns@		; `string'
PUBLIC	??_C@_0BA@EIBKBIKG@?$CD?$CDcolumns_count@	; `string'
PUBLIC	??_C@_0L@LMMKHPOB@horizontal@			; `string'
PUBLIC	??_C@_08NEOMLJGJ@vertical@			; `string'
PUBLIC	??_C@_06CBJCAPLI@?$CFc?$CFc?$CFc@		; `string'
PUBLIC	??_C@_0L@OKGLPFJF@Avail?5?$CF?42f@		; `string'
PUBLIC	??_C@_0M@LBGPBMDK@Offset?5?$CF?42f@		; `string'
PUBLIC	??_C@_0CB@CDDJNDCG@Long?5text?5that?5is?5likely?5to?5cli@ ; `string'
PUBLIC	??_C@_0M@CEFNMID@Mixed?5items@			; `string'
PUBLIC	??_C@_05IPHDHIPP@mixed@				; `string'
PUBLIC	??_C@_05OHAOKMNF@ImGui@				; `string'
PUBLIC	??_C@_03FAAAOPJM@red@				; `string'
PUBLIC	??_C@_0BE@OADKLHKC@An?5extra?5line?5here?4@	; `string'
PUBLIC	??_C@_04OBGPFBCN@blue@				; `string'
PUBLIC	??_C@_0L@CDAKMJEM@Category?5A@			; `string'
PUBLIC	??_C@_0P@CNBMJDEI@Blah?5blah?5blah@		; `string'
PUBLIC	??_C@_0L@ICHJKIP@Category?5B@			; `string'
PUBLIC	??_C@_0L@BBDMKLMO@Category?5C@			; `string'
PUBLIC	??_C@_0O@FMIDKLNC@Word?9wrapping@		; `string'
PUBLIC	??_C@_0O@JBOHNDAK@word?9wrapping@		; `string'
PUBLIC	??_C@_0CN@PEHKNKIL@The?5quick?5brown?5fox?5jumps?5over?5@ ; `string'
PUBLIC	??_C@_0L@BOIODOOK@Hello?5Left@			; `string'
PUBLIC	??_C@_0M@FKDOIKDB@Hello?5Right@			; `string'
PUBLIC	??_C@_0BF@EDLEGCAK@Horizontal?5Scrolling@	; `string'
PUBLIC	??_C@_0BC@OPBMFBNO@?$CD?$CDScrollingRegion@	; `string'
PUBLIC	??_C@_0BF@OFLPNIGP@Line?5?$CFd?5Column?5?$CFd?4?4?4@ ; `string'
PUBLIC	??_C@_04GDOOJPNH@Tree@				; `string'
PUBLIC	??_C@_04KCCPLAND@tree@				; `string'
PUBLIC	??_C@_06NAFIGPDO@Node?$CFd@			; `string'
PUBLIC	??_C@_0O@DCLBKAFC@Node?5contents@		; `string'
PUBLIC	??_C@_09NGNKJEEB@Node?$CFd?4?$CFd@		; `string'
PUBLIC	??_C@_0BD@MJPJLCIK@Even?5more?5contents@	; `string'
PUBLIC	??_C@_0P@LKPCNPLG@Tree?5in?5column@		; `string'
PUBLIC	??_C@_0CM@HCLJNHNJ@The?5quick?5brown?5fox?5jumps?5over?5@ ; `string'
PUBLIC	??_C@_09BFICBINI@Filtering@			; `string'
PUBLIC	??_C@_0LH@KANOFBLE@Filter?5usage?3?6?5?5?$CC?$CC?5?5?5?5?5?5?5?5?5disp@ ; `string'
PUBLIC	??_C@_0BC@HPCLFOON@Filter?5?$CIinc?0?9exc?$CJ@	; `string'
PUBLIC	??_C@_06BMDMCJJI@aaa1?4c@			; `string'
PUBLIC	??_C@_06OMOADLHL@bbb1?4c@			; `string'
PUBLIC	??_C@_06LMKLMKNK@ccc1?4c@			; `string'
PUBLIC	??_C@_08GHAOHEK@aaa2?4cpp@			; `string'
PUBLIC	??_C@_08IAJKMGPB@bbb2?4cpp@			; `string'
PUBLIC	??_C@_08PNDMNJJI@ccc2?4cpp@			; `string'
PUBLIC	??_C@_05NIADHECG@abc?4h@			; `string'
PUBLIC	??_C@_0N@OLAOGCLC@hello?0?5world@		; `string'
PUBLIC	??_C@_02DKCKIIND@?$CFs@				; `string'
PUBLIC	??_C@_0BL@IKGEMPPN@Inputs?0?5Navigation?5?$CG?5Focus@ ; `string'
PUBLIC	??_C@_0BF@MACLOFOD@WantCaptureMouse?3?5?$CFd@	; `string'
PUBLIC	??_C@_0BI@FJJPGPBI@WantCaptureKeyboard?3?5?$CFd@ ; `string'
PUBLIC	??_C@_0BC@MNILMHJG@WantTextInput?3?5?$CFd@	; `string'
PUBLIC	??_C@_0BE@HMNMIAK@WantSetMousePos?3?5?$CFd@	; `string'
PUBLIC	??_C@_0BO@PADIALFI@NavActive?3?5?$CFd?0?5NavVisible?3?5?$CFd@ ; `string'
PUBLIC	??_C@_0CD@IMLPMLDN@Keyboard?0?5Mouse?5?$CG?5Navigation?5St@ ; `string'
PUBLIC	??_C@_0BE@HGGCPGOH@Mouse?5pos?3?5?$CI?$CFg?0?5?$CFg?$CJ@ ; `string'
PUBLIC	??_C@_0BF@BCIGOCNH@Mouse?5pos?3?5?$DMINVALID?$DO@ ; `string'
PUBLIC	??_C@_0BG@MNNMKHFC@Mouse?5delta?3?5?$CI?$CFg?0?5?$CFg?$CJ@ ; `string'
PUBLIC	??_C@_0M@HODNMGFJ@Mouse?5down?3@		; `string'
PUBLIC	??_C@_0BB@BCIHMLII@b?$CFd?5?$CI?$CF?402f?5secs?$CJ@ ; `string'
PUBLIC	??_C@_0P@KEMIOLDA@Mouse?5clicked?3@		; `string'
PUBLIC	??_C@_03HAIDDFMD@b?$CFd@			; `string'
PUBLIC	??_C@_0BD@IEMOMOGE@Mouse?5dbl?9clicked?3@	; `string'
PUBLIC	??_C@_0BA@NMIOGEHG@Mouse?5released?3@		; `string'
PUBLIC	??_C@_0BC@CFHNPKHB@Mouse?5wheel?3?5?$CF?41f@	; `string'
PUBLIC	??_C@_0L@POLCMIEL@Keys?5down?3@			; `string'
PUBLIC	??_C@_0BH@EIGPEOBP@?$CFd?5?$CI0x?$CFX?$CJ?5?$CI?$CF?402f?5secs?$CJ@ ; `string'
PUBLIC	??_C@_0O@DAHEMGJA@Keys?5pressed?3@		; `string'
PUBLIC	??_C@_09MNHHIJFE@?$CFd?5?$CI0x?$CFX?$CJ@	; `string'
PUBLIC	??_C@_0O@EGHLNEOH@Keys?5release?3@		; `string'
PUBLIC	??_C@_06ECIIPDFH@SUPER?5@			; `string'
PUBLIC	??_C@_04HDLNDMFA@ALT?5@				; `string'
PUBLIC	??_C@_06IGAIMELN@SHIFT?5@			; `string'
PUBLIC	??_C@_05IHGCNILK@CTRL?5@			; `string'
PUBLIC	??_C@_0BE@HPBGOMPC@Keys?5mods?3?5?$CFs?$CFs?$CFs?$CFs@ ; `string'
PUBLIC	??_C@_0N@PKFKOHDJ@Chars?5queue?3@		; `string'
PUBLIC	??_C@_0O@FLAJMFCG@?8?$CFc?8?5?$CI0x?$CF04X?$CJ@	; `string'
PUBLIC	??_C@_0BA@LIMLNKOJ@NavInputs?5down?3@		; `string'
PUBLIC	??_C@_09NJGMILHM@?$FL?$CFd?$FN?5?$CF?42f@	; `string'
PUBLIC	??_C@_0BD@LLKFPGJD@NavInputs?5pressed?3@	; `string'
PUBLIC	??_C@_04KBDJOJNB@?$FL?$CFd?$FN@			; `string'
PUBLIC	??_C@_0BE@OEEOJMCL@NavInputs?5duration?3@	; `string'
PUBLIC	??_C@_0CL@NJDOKPGI@Hovering?5me?5sets?5the?6keyboard?5c@ ; `string'
PUBLIC	??_C@_0DA@JDENAPEM@Holding?5me?5clears?5the?6the?5keybo@ ; `string'
PUBLIC	??_C@_07OOGFLDEE@Tabbing@			; `string'
PUBLIC	??_C@_0DN@DBMIKJE@Use?5TAB?1SHIFT?$CLTAB?5to?5cycle?5thro@ ; `string'
PUBLIC	??_C@_01HIHLOKLC@1@				; `string'
PUBLIC	??_C@_01FDFGLJHB@2@				; `string'
PUBLIC	??_C@_01EKENIIDA@3@				; `string'
PUBLIC	??_C@_0N@MPCBNDPA@4?5?$CItab?5skip?$CJ@		; `string'
PUBLIC	??_C@_01BMBHCPLG@5@				; `string'
PUBLIC	??_C@_0BA@PGBLAHMK@Focus?5from?5code@		; `string'
PUBLIC	??_C@_0L@OPJAAOKJ@Focus?5on?51@			; `string'
PUBLIC	??_C@_0L@MELNFNGK@Focus?5on?52@			; `string'
PUBLIC	??_C@_0L@NNKGGMCL@Focus?5on?53@			; `string'
PUBLIC	??_C@_0N@LCFCNFKI@3?5?$CItab?5skip?$CJ@		; `string'
PUBLIC	??_C@_0BE@PCNBLNDG@Item?5with?5focus?3?5?$CFd@	; `string'
PUBLIC	??_C@_0BI@EPMJCFDB@Item?5with?5focus?3?5?$DMnone?$DO@ ; `string'
PUBLIC	??_C@_0L@FLKPNOEH@Focus?5on?5X@			; `string'
PUBLIC	??_C@_0L@ECLEOPAG@Focus?5on?5Y@			; `string'
PUBLIC	??_C@_0L@GJJJLMMF@Focus?5on?5Z@			; `string'
PUBLIC	??_C@_06FBFHKKF@Float3@				; `string'
PUBLIC	??_C@_0EN@KGJCPIPJ@NB?3?5Cursor?5?$CG?5selection?5are?5pres@ ; `string'
PUBLIC	??_C@_08EJAEFPJK@Dragging@			; `string'
PUBLIC	??_C@_0FH@PFEFFOMN@You?5can?5use?5ImGui?3?3GetMouseDrag@ ; `string'
PUBLIC	??_C@_0GC@PPDGANOJ@IsMouseDragging?$CI?$CFd?$CJ?3?6?5?5w?1?5defau@ ; `string'
PUBLIC	??_C@_07GELNHEGO@Drag?5Me@			; `string'
PUBLIC	??_C@_0HH@LIOOGCHA@GetMouseDragDelta?$CI0?$CJ?3?6?5?5w?1?5defa@ ; `string'
PUBLIC	??_C@_0O@LHBMJOCH@Mouse?5cursors@		; `string'
PUBLIC	??_C@_05OLOIDPAB@Arrow@				; `string'
PUBLIC	??_C@_09KBOPCPBA@TextInput@			; `string'
PUBLIC	??_C@_09NLNHGFHP@ResizeAll@			; `string'
PUBLIC	??_C@_08HLCKOJFI@ResizeNS@			; `string'
PUBLIC	??_C@_08BDBDMDLN@ResizeEW@			; `string'
PUBLIC	??_C@_0L@EFMGKFJD@ResizeNESW@			; `string'
PUBLIC	??_C@_0L@MHCCEKFE@ResizeNWSE@			; `string'
PUBLIC	??_C@_04JBBMMDIF@Hand@				; `string'
PUBLIC	??_C@_0L@OJPFEFMM@NotAllowed@			; `string'
PUBLIC	??_C@_0BO@CHGMKDBB@Current?5mouse?5cursor?5?$DN?5?$CFd?3?5?$CFs@ ; `string'
PUBLIC	??_C@_0BM@MCMILHH@Hover?5to?5see?5mouse?5cursors?3@ ; `string'
PUBLIC	??_C@_0PC@CDIOEKMA@Your?5application?5can?5render?5a?5d@ ; `string'
PUBLIC	??_C@_0BE@KDPKCDI@Mouse?5cursor?5?$CFd?3?5?$CFs@ ; `string'
PUBLIC	??_C@_0O@NCHBJMJF@Dear?5ImGui?5?$CFs@		; `string'
PUBLIC	??_C@_0DA@LADNBCJ@By?5Omar?5Cornut?5and?5all?5Dear?5ImG@ ; `string'
PUBLIC	??_C@_0FA@NMHKMBMB@Dear?5ImGui?5is?5licensed?5under?5th@ ; `string'
PUBLIC	??_C@_0BJ@CEAKAMCE@Config?1Build?5Information@	; `string'
PUBLIC	??_C@_0BC@JBNIPPJL@Copy?5to?5clipboard@		; `string'
PUBLIC	??_C@_08HEKABECO@cfginfos@			; `string'
PUBLIC	??_C@_04CJPBKLAG@?$GA?$GA?$GA?6@		; `string'
PUBLIC	??_C@_0BD@GCCEJBGO@Dear?5ImGui?5?$CFs?5?$CI?$CFd?$CJ@ ; `string'
PUBLIC	??_C@_0EC@BJAMNCHD@sizeof?$CIsize_t?$CJ?3?5?$CFd?0?5sizeof?$CIImDr@ ; `string'
PUBLIC	??_C@_0BH@KGAJBCNH@define?3?5__cplusplus?$DN?$CFd@ ; `string'
PUBLIC	??_C@_0P@KFJLIPEJ@define?3?5_WIN32@		; `string'
PUBLIC	??_C@_0BE@JHNIDJHD@define?3?5_MSC_VER?$DN?$CFd@	; `string'
PUBLIC	??_C@_04HIBGFPH@NULL@				; `string'
PUBLIC	??_C@_0BL@DHJKNAPN@io?4BackendPlatformName?3?5?$CFs@ ; `string'
PUBLIC	??_C@_0BL@HCPCDKOE@io?4BackendRendererName?3?5?$CFs@ ; `string'
PUBLIC	??_C@_0BH@DILJIOHM@io?4ConfigFlags?3?50x?$CF08X@ ; `string'
PUBLIC	??_C@_0BD@CKENCLMO@?5NavEnableKeyboard@		; `string'
PUBLIC	??_C@_0BC@PFLKKAGF@?5NavEnableGamepad@		; `string'
PUBLIC	??_C@_0BG@KOLHMNKG@?5NavEnableSetMousePos@	; `string'
PUBLIC	??_C@_0BG@DGPFDLKM@?5NavNoCaptureKeyboard@	; `string'
PUBLIC	??_C@_08GAJGGFEK@?5NoMouse@			; `string'
PUBLIC	??_C@_0BF@LKMNGEAI@?5NoMouseCursorChange@	; `string'
PUBLIC	??_C@_0BJ@PEAELIMN@io?4ConfigMacOSXBehaviors@	; `string'
PUBLIC	??_C@_0CL@DGNIKDMB@io?4ConfigWindowsMemoryCompactTi@ ; `string'
PUBLIC	??_C@_0BI@GNGLPDFI@io?4BackendFlags?3?50x?$CF08X@ ; `string'
PUBLIC	??_C@_0M@MPABENKI@?5HasGamepad@			; `string'
PUBLIC	??_C@_0BB@NNHFCGPM@?5HasMouseCursors@		; `string'
PUBLIC	??_C@_0BA@EKJHBGEP@?5HasSetMousePos@		; `string'
PUBLIC	??_C@_0BG@GFLBPJOL@?5RendererHasVtxOffset@	; `string'
PUBLIC	??_C@_0DC@CPKPHKKN@io?4Fonts?3?5?$CFd?5fonts?0?5Flags?3?50x?$CF0@ ; `string'
PUBLIC	??_C@_0BK@EIINOCEN@io?4DisplaySize?3?5?$CF?42f?0?$CF?42f@ ; `string'
PUBLIC	??_C@_0CG@MDJEGDDF@io?4DisplayFramebufferScale?3?5?$CF?42@ ; `string'
PUBLIC	??_C@_0BP@CFKGJLOD@style?4WindowPadding?3?5?$CF?42f?0?$CF?42f@ ; `string'
PUBLIC	??_C@_0BN@NGAGEFMI@style?4WindowBorderSize?3?5?$CF?42f@ ; `string'
PUBLIC	??_C@_0BO@GOMLHPA@style?4FramePadding?3?5?$CF?42f?0?$CF?42f@ ; `string'
PUBLIC	??_C@_0BK@INLCDPGI@style?4FrameRounding?3?5?$CF?42f@ ; `string'
PUBLIC	??_C@_0BM@JEFFCPEF@style?4FrameBorderSize?3?5?$CF?42f@ ; `string'
PUBLIC	??_C@_0BN@DHGOAPDN@style?4ItemSpacing?3?5?$CF?42f?0?$CF?42f@ ; `string'
PUBLIC	??_C@_0CC@ECALHKFF@style?4ItemInnerSpacing?3?5?$CF?42f?0?$CF?4@ ; `string'
PUBLIC	??_C@_05PPIKNONO@?6?$GA?$GA?$GA?6@		; `string'
PUBLIC	??_C@_0BE@EIEKGNCP@Classic?$AADark?$AALight?$AA@ ; `string'
PUBLIC	??_C@_0BCM@MBDECECM@?9?5Load?5additional?5fonts?5with?5io@ ; `string'
PUBLIC	??_C@_0BB@MDDLAALC@Colors?$CD?$CDSelector@	; `string'
PUBLIC	??_C@_0BA@OGAKFFL@Fonts?$CD?$CDSelector@	; `string'
PUBLIC	??_C@_0O@MJEGPPND@FrameRounding@		; `string'
PUBLIC	??_C@_0N@IABNAJJO@WindowBorder@			; `string'
PUBLIC	??_C@_0M@LIENHPEL@FrameBorder@			; `string'
PUBLIC	??_C@_0M@NFCFILGL@PopupBorder@			; `string'
PUBLIC	??_C@_08EEJHGAPI@Save?5Ref@			; `string'
PUBLIC	??_C@_0L@KOOMFCFA@Revert?5Ref@			; `string'
PUBLIC	??_C@_0IE@DBDEKJDM@Save?1Revert?5in?5local?5non?9persis@ ; `string'
PUBLIC	??_C@_06NNHHJHAK@?$CD?$CDtabs@			; `string'
PUBLIC	??_C@_05BOIJFCDP@Sizes@				; `string'
PUBLIC	??_C@_04KGFMLCPK@Main@				; `string'
PUBLIC	??_C@_0O@NJEPBHAL@WindowPadding@		; `string'
PUBLIC	??_C@_0N@CPMOGBCG@FramePadding@			; `string'
PUBLIC	??_C@_0M@PJNJGKOI@ItemSpacing@			; `string'
PUBLIC	??_C@_0BB@FPELPPEM@ItemInnerSpacing@		; `string'
PUBLIC	??_C@_0BC@CHKNMAIJ@TouchExtraPadding@		; `string'
PUBLIC	??_C@_0O@FJCIMFNP@IndentSpacing@		; `string'
PUBLIC	??_C@_0O@DNFCAGJO@ScrollbarSize@		; `string'
PUBLIC	??_C@_0M@MMBGIFGH@GrabMinSize@			; `string'
PUBLIC	??_C@_0BB@DIOLDNNC@WindowBorderSize@		; `string'
PUBLIC	??_C@_0BA@MHPKDBMC@ChildBorderSize@		; `string'
PUBLIC	??_C@_0BA@GHHMANCJ@PopupBorderSize@		; `string'
PUBLIC	??_C@_0BA@OLKEIFFB@FrameBorderSize@		; `string'
PUBLIC	??_C@_0O@MEMGDJEN@TabBorderSize@		; `string'
PUBLIC	??_C@_08ICFONDFO@Rounding@			; `string'
PUBLIC	??_C@_0P@IMGPCCNA@WindowRounding@		; `string'
PUBLIC	??_C@_0O@OLPNJDEC@ChildRounding@		; `string'
PUBLIC	??_C@_0O@OGBCIABM@PopupRounding@		; `string'
PUBLIC	??_C@_0BC@IGAFHGEC@ScrollbarRounding@		; `string'
PUBLIC	??_C@_0N@CHOEJEFP@GrabRounding@			; `string'
PUBLIC	??_C@_0M@GELHPNFJ@TabRounding@			; `string'
PUBLIC	??_C@_04GEFJINEE@?$CF?42f@			; `string'
PUBLIC	??_C@_0BB@IFNMJCJO@WindowTitleAlign@		; `string'
PUBLIC	??_C@_0BB@ECHPPBJL@None?$AALeft?$AARight?$AA@	; `string'
PUBLIC	??_C@_0BJ@INNLFKOF@WindowMenuButtonPosition@	; `string'
PUBLIC	??_C@_0M@PMLPANEE@Left?$AARight?$AA@		; `string'
PUBLIC	??_C@_0BE@HCCCHIDA@ColorButtonPosition@		; `string'
PUBLIC	??_C@_0BA@PHDMJLFL@ButtonTextAlign@		; `string'
PUBLIC	??_C@_0EB@KHCCNPEP@Alignment?5applies?5when?5a?5button@ ; `string'
PUBLIC	??_C@_0BE@OFFKFPJC@SelectableTextAlign@		; `string'
PUBLIC	??_C@_0EF@EIJADJPM@Alignment?5applies?5when?5a?5select@ ; `string'
PUBLIC	??_C@_0BC@FINEDBHB@Safe?5Area?5Padding@		; `string'
PUBLIC	??_C@_0GI@OFDAJLLA@Adjust?5if?5you?5cannot?5see?5the?5ed@ ; `string'
PUBLIC	??_C@_0BH@NLJOADCC@DisplaySafeAreaPadding@	; `string'
PUBLIC	??_C@_06ICDCBJPI@Colors@			; `string'
PUBLIC	??_C@_06BFGAPCKF@Export@			; `string'
PUBLIC	??_C@_0CN@IIGPHJOL@ImVec4?$CK?5colors?5?$DN?5ImGui?3?3GetStyl@ ; `string'
PUBLIC	??_C@_0DO@CEAFKMHA@colors?$FLImGuiCol_?$CFs?$FN?$CF?$CKs?$DN?5ImVec4?$CI@ ; `string'
PUBLIC	??_C@_0BF@PKKCFHCF@To?5Clipboard?$AATo?5TTY?$AA@ ; `string'
PUBLIC	??_C@_0O@BMBGJILK@?$CD?$CDoutput_type@		; `string'
PUBLIC	??_C@_0BF@EKILLAGK@Only?5Modified?5Colors@	; `string'
PUBLIC	??_C@_0O@ECALKMOF@Filter?5colors@		; `string'
PUBLIC	??_C@_06OGJDIEIN@Opaque@			; `string'
PUBLIC	??_C@_05IHOGHNDL@Alpha@				; `string'
PUBLIC	??_C@_04IGHHMFLN@Both@				; `string'
PUBLIC	??_C@_0GN@IMCHBEFC@In?5the?5color?5list?3?6Left?9click?5o@ ; `string'
PUBLIC	??_C@_08PKGPDAGH@?$CD?$CDcolors@		; `string'
PUBLIC	??_C@_07KJABCEJI@?$CD?$CDcolor@			; `string'
PUBLIC	??_C@_04INACKGJP@Save@				; `string'
PUBLIC	??_C@_06OIKMFEGE@Revert@			; `string'
PUBLIC	??_C@_05ENDNDI@Fonts@				; `string'
PUBLIC	??_C@_0DJ@EDBFAJMO@Read?5FAQ?5and?5docs?1FONTS?4txt?5for@ ; `string'
PUBLIC	??_C@_0CN@DILJDNLP@Font?5?$CFd?3?5?$CC?$CFs?$CC?6?$CF?42f?5px?0?5?$CFd?5glyph@ ; `string'
PUBLIC	??_C@_0P@HCLAAKJM@Set?5as?5default@		; `string'
PUBLIC	??_C@_04GGBPDDBN@?$CF?41f@			; `string'
PUBLIC	??_C@_0L@HAJGHBLA@Font?5scale@			; `string'
PUBLIC	??_C@_0BKF@KOCFAEGF@Note?5than?5the?5default?5embedded?5@ ; `string'
PUBLIC	??_C@_0M@MKKLGFNP@Font?5offset@			; `string'
PUBLIC	??_C@_0CE@FJCMKHHK@Ascent?3?5?$CFf?0?5Descent?3?5?$CFf?0?5Height@ ; `string'
PUBLIC	??_C@_0CC@FPHDKLMA@Fallback?5character?3?5?8?$CFc?8?5?$CIU?$CL?$CF04@ ; `string'
PUBLIC	??_C@_0CC@FMIIOLLL@Ellipsis?5character?3?5?8?$CFc?8?5?$CIU?$CL?$CF04@ ; `string'
PUBLIC	??_C@_0CE@LLADJGCM@Texture?5Area?3?5about?5?$CFd?5px?5?$HO?$CFdx?$CF@ ; `string'
PUBLIC	??_C@_0DE@KFKIBEOD@Input?5?$CFd?3?5?8?$CFs?8?0?5Oversample?3?5?$CI?$CFd@ ; `string'
PUBLIC	??_C@_0M@NEAHLNMH@Glyphs?5?$CI?$CFd?$CJ@	; `string'
PUBLIC	??_C@_06EBCCDGNI@Glyphs@			; `string'
PUBLIC	??_C@_06IOJPAPEE@glyphs@			; `string'
PUBLIC	??_C@_05OIOMJNBL@glyph@				; `string'
PUBLIC	??_C@_0BH@KIECHKHD@U?$CL?$CF04X?4?4U?$CL?$CF04X?5?$CI?$CFd?5?$CFs?$CJ@ ; `string'
PUBLIC	??_C@_0BC@JMLDGIFC@Codepoint?3?5U?$CL?$CF04X@	; `string'
PUBLIC	??_C@_0P@JLIDDFIB@AdvanceX?3?5?$CF?41f@		; `string'
PUBLIC	??_C@_0BO@BCFBHCGJ@Pos?3?5?$CI?$CF?42f?0?$CF?42f?$CJ?9?$DO?$CI?$CF?42f?0?$CF?42f?$CJ@ ; `string'
PUBLIC	??_C@_0BN@EHEDNDHJ@UV?3?5?$CI?$CF?43f?0?$CF?43f?$CJ?9?$DO?$CI?$CF?43f?0?$CF?43f?$CJ@ ; `string'
PUBLIC	??_C@_0BN@JPEJHLJM@Atlas?5texture?5?$CI?$CFdx?$CFd?5pixels?$CJ@ ; `string'
PUBLIC	??_C@_0O@KCJLBEBN@Atlas?5texture@		; `string'
PUBLIC	??_C@_0PC@PJPPOHAC@Those?5are?5old?5settings?5provided@ ; `string'
PUBLIC	??_C@_0N@DLFCCMFO@window?5scale@		; `string'
PUBLIC	??_C@_0N@DCHFKEPM@global?5scale@		; `string'
PUBLIC	??_C@_09PIAIFBON@Rendering@			; `string'
PUBLIC	??_C@_0BD@INPJKAKL@Anti?9aliased?5lines@	; `string'
PUBLIC	??_C@_0GD@HJLOEILL@When?5disabling?5anti?9aliasing?5li@ ; `string'
PUBLIC	??_C@_0BC@KAFHAJBP@Anti?9aliased?5fill@		; `string'
PUBLIC	??_C@_0BN@KPCPFGKJ@Curve?5Tessellation?5Tolerance@ ; `string'
PUBLIC	??_C@_0N@MBCJIDFM@Global?5Alpha@		; `string'
PUBLIC	??_C@_04BBNPPDNC@Edit@				; `string'
PUBLIC	??_C@_06GHDCGCHF@CTRL?$CLZ@			; `string'
PUBLIC	??_C@_04LPGMNMPN@Undo@				; `string'
PUBLIC	??_C@_06EMBPDBLG@CTRL?$CLY@			; `string'
PUBLIC	??_C@_04NKENIHOM@Redo@				; `string'
PUBLIC	??_C@_06FFAEAAPH@CTRL?$CLX@			; `string'
PUBLIC	??_C@_03EOHDMBHJ@Cut@				; `string'
PUBLIC	??_C@_06PMDCMLGN@CTRL?$CLC@			; `string'
PUBLIC	??_C@_06MLIHCNHJ@CTRL?$CLV@			; `string'
PUBLIC	??_C@_05NEBJFIEK@Paste@				; `string'
PUBLIC	?__LINE__Var@?0??ShowExampleMenuFile@@YAXXZ@4JA	; `ShowExampleMenuFile'::`1'::__LINE__Var
PUBLIC	??_C@_0N@GAHNIDOO@?$CIdummy?5menu?$CJ@		; `string'
PUBLIC	??_C@_03ILBCOJBH@New@				; `string'
PUBLIC	??_C@_06DGNIABGN@Ctrl?$CLO@			; `string'
PUBLIC	??_C@_04DNCDCIAE@Open@				; `string'
PUBLIC	??_C@_0M@FFOFICLF@Open?5Recent@			; `string'
PUBLIC	??_C@_0L@MGPNFHBN@fish_hat?4c@			; `string'
PUBLIC	??_C@_0N@OONPEMFD@fish_hat?4inl@		; `string'
PUBLIC	??_C@_0L@CFAJIONG@fish_hat?4h@			; `string'
PUBLIC	??_C@_06INDFPOP@More?4?4@			; `string'
PUBLIC	??_C@_09JKOAAOOB@Recurse?4?4@			; `string'
PUBLIC	??_C@_06NAKPFMDA@Ctrl?$CLS@			; `string'
PUBLIC	??_C@_09JEJONNAL@Save?5As?4?4@			; `string'
PUBLIC	??_C@_07KHIHFBFN@Options@			; `string'
PUBLIC	??_C@_07DOAOMMKG@Enabled@			; `string'
PUBLIC	??_C@_0BC@MAFFAEMB@Scrolling?5Text?5?$CFd@	; `string'
PUBLIC	??_C@_05DCDOHKAB@Input@				; `string'
PUBLIC	??_C@_0P@CHCLHMCH@Yes?$AANo?$AAMaybe?$AA?$AA@	; `string'
PUBLIC	??_C@_05KONDNKDG@Check@				; `string'
PUBLIC	??_C@_07KAJHKDAE@Checked@			; `string'
PUBLIC	??_C@_06ELIFPNNI@Alt?$CLF4@			; `string'
PUBLIC	??_C@_04GMBKPCGK@Quit@				; `string'
PUBLIC	??_C@_04DOKPJKJF@HELP@				; `string'
PUBLIC	??_C@_07DBIJIOJO@HISTORY@			; `string'
PUBLIC	??_C@_05PONODPI@CLEAR@				; `string'
PUBLIC	??_C@_08GOHMLCGG@CLASSIFY@			; `string'
PUBLIC	??_C@_0BH@HICLALOG@Welcome?5to?5Dear?5ImGui?$CB@ ; `string'
PUBLIC	??_C@_17ENLBLDPN@?$AAb?$AAu?$AAf@		; `string'
PUBLIC	??_C@_0O@GDIOPKGP@Close?5Console@		; `string'
PUBLIC	??_C@_0MA@ICGIOBFG@This?5example?5implements?5a?5conso@ ; `string'
PUBLIC	??_C@_0DJ@NBHLDCP@Enter?5?8HELP?8?5for?5help?0?5press?5TA@ ; `string'
PUBLIC	??_C@_0P@CGJDLLEJ@Add?5Dummy?5Text@		; `string'
PUBLIC	??_C@_0N@OJGBPOOP@?$CFd?5some?5text@		; `string'
PUBLIC	??_C@_0P@BMHJKMPF@some?5more?5text@		; `string'
PUBLIC	??_C@_0CF@PEIDNPCH@display?5very?5important?5message?5@ ; `string'
PUBLIC	??_C@_0BA@HHKLEHKC@Add?5Dummy?5Error@		; `string'
PUBLIC	??_C@_0BN@KNPJMMPE@?$FLerror?$FN?5something?5went?5wrong@ ; `string'
PUBLIC	??_C@_05MDNHABIA@Clear@				; `string'
PUBLIC	??_C@_0M@IFKANFPJ@Auto?9scroll@			; `string'
PUBLIC	??_C@_0CA@HIABFBKB@Filter?5?$CI?$CCincl?0?9excl?$CC?$CJ?5?$CI?$CCerror?$CC?$CJ@ ; `string'
PUBLIC	??_C@_0BA@KOEFNJOK@ScrollingRegion@		; `string'
PUBLIC	??_C@_07LFMCMLFD@?$FLerror?$FN@			; `string'
PUBLIC	??_C@_02KPDBPKPG@?$CD?5@			; `string'
PUBLIC	??_C@_05DFHAGHEP@?$CD?5?$CFs?6@			; `string'
PUBLIC	??_C@_09GJFNIAOH@Commands?3@			; `string'
PUBLIC	??_C@_04JKCKOCFH@?9?5?$CFs@			; `string'
PUBLIC	??_C@_08PKLPHKJF@?$CF3d?3?5?$CFs?6@		; `string'
PUBLIC	??_C@_0BH@OKLFOGKH@Unknown?5command?3?5?8?$CFs?8?6@ ; `string'
PUBLIC	??_C@_0BG@DOPMHGPK@No?5match?5for?5?$CC?$CF?4?$CKs?$CC?$CB?6@ ; `string'
PUBLIC	??_C@_01CLKCMJKC@?5@				; `string'
PUBLIC	??_C@_0BD@LCPLNAHF@Possible?5matches?3?6@	; `string'
PUBLIC	??_C@_05PHKAGDP@?9?5?$CFs?6@			; `string'
PUBLIC	??_C@_0BB@NEACHKPE@Example?3?5Console@		; `string'
PUBLIC	??_C@_06IBDJIBGI@Filter@			; `string'
PUBLIC	??_C@_0N@LFJACCKD@Example?3?5Log@		; `string'
PUBLIC	??_C@_0BG@JBNFHIEN@?$FLDebug?$FN?5Add?55?5entries@ ; `string'
PUBLIC	??_C@_04NIDJFNBE@info@				; `string'
PUBLIC	??_C@_04FNLOFOEM@warn@				; `string'
PUBLIC	??_C@_05KKCIMGE@error@				; `string'
PUBLIC	??_C@_0L@CIGCKJLI@Bumfuzzled@			; `string'
PUBLIC	??_C@_0M@FKNIJFM@Cattywampus@			; `string'
PUBLIC	??_C@_0M@KEIJGBOK@Snickersnee@			; `string'
PUBLIC	??_C@_0O@KKKMMPJN@Abibliophobia@		; `string'
PUBLIC	??_C@_0N@FLCFMCCB@Absquatulate@			; `string'
PUBLIC	??_C@_0L@MIMGHMNH@Nincompoop@			; `string'
PUBLIC	??_C@_0N@BIHLNJM@Pauciloquent@			; `string'
PUBLIC	??_C@_0DO@NHFCPAIM@?$FL?$CF05d?$FN?5?$FL?$CFs?$FN?5Hello?0?5current?5time@ ; `string'
PUBLIC	??_C@_0BH@BCHKOJFL@Example?3?5Simple?5layout@	; `string'
PUBLIC	??_C@_09OINOOGMP@left?5pane@			; `string'
PUBLIC	??_C@_0M@DHBPHHKL@MyObject?5?$CFd@		; `string'
PUBLIC	??_C@_09PHNAOHDK@item?5view@			; `string'
PUBLIC	??_C@_0N@CMHEFDFC@MyObject?3?5?$CFd@		; `string'
PUBLIC	??_C@_06BMLGLIAO@?$CD?$CDTabs@			; `string'
PUBLIC	??_C@_0M@OHKMKKDH@Description@			; `string'
PUBLIC	??_C@_0HN@OJKIHMDC@Lorem?5ipsum?5dolor?5sit?5amet?0?5con@ ; `string'
PUBLIC	??_C@_07NJJEDOBB@Details@			; `string'
PUBLIC	??_C@_0P@CCIDAFDC@ID?3?50123456789@		; `string'
PUBLIC	?dummy_members@?4??ShowDummyObject@funcs@?1??ShowExampleAppPropertyEditor@@YAXPA_N@Z@SAXPBDH@Z@4PAMA ; ``ShowExampleAppPropertyEditor'::`2'::funcs::ShowDummyObject'::`5'::dummy_members
PUBLIC	??_C@_05FIIOEGIK@?$CFs_?$CFu@			; `string'
PUBLIC	??_C@_06ELFECKBG@Object@			; `string'
PUBLIC	??_C@_0BC@LIBEHHHH@my?5sailor?5is?5rich@	; `string'
PUBLIC	??_C@_08BNKJGCPO@Field_?$CFd@			; `string'
PUBLIC	??_C@_05EPLKDJMH@Field@				; `string'
PUBLIC	??_C@_07FBBIKLOB@?$CD?$CDvalue@			; `string'
PUBLIC	??_C@_0BJ@EKHJGGOC@Example?3?5Property?5editor@	; `string'
PUBLIC	??_C@_0BAG@IGIKGKDA@This?5example?5shows?5how?5you?5may?5@ ; `string'
PUBLIC	??_C@_0BL@GBIKCKEE@Example?3?5Long?5text?5display@ ; `string'
PUBLIC	??_C@_0CI@JCGLFKAA@Printing?5unusually?5long?5amount?5@ ; `string'
PUBLIC	??_C@_0HB@DAOOCDLA@Single?5call?5to?5TextUnformatted?$CI@ ; `string'
PUBLIC	??_C@_09NBDEEMIG@Test?5type@			; `string'
PUBLIC	??_C@_0CE@MABLKLGB@Buffer?5contents?3?5?$CFd?5lines?0?5?$CFd?5b@ ; `string'
PUBLIC	??_C@_0P@IHJDPCIL@Add?51000?5lines@		; `string'
PUBLIC	??_C@_0DA@IKFBCOKM@?$CFi?5The?5quick?5brown?5fox?5jumps?5ov@ ; `string'
PUBLIC	??_C@_0CP@NEDCKJAF@?$CFi?5The?5quick?5brown?5fox?5jumps?5ov@ ; `string'
PUBLIC	??_C@_0BO@BJFILJPF@Example?3?5Auto?9resizing?5window@ ; `string'
PUBLIC	??_C@_0LI@CEDCIBKO@Window?5will?5resize?5every?9frame?5@ ; `string'
PUBLIC	??_C@_0BA@EAJBEEH@Number?5of?5lines@		; `string'
PUBLIC	??_C@_0BD@DIDKCIOM@?$CF?$CKsThis?5is?5line?5?$CFd@ ; `string'
PUBLIC	??_C@_0BM@KOHLMLPM@Example?3?5Constrained?5Resize@ ; `string'
PUBLIC	??_C@_0BF@FPBGOCLL@Resize?5vertical?5only@	; `string'
PUBLIC	??_C@_0BH@FIOIJIGG@Resize?5horizontal?5only@	; `string'
PUBLIC	??_C@_0BK@CNAJDBBL@Width?5?$DO?5100?0?5Height?5?$DO?5100@ ; `string'
PUBLIC	??_C@_0O@GIJNEIMP@Width?5400?9500@		; `string'
PUBLIC	??_C@_0P@MPNPOAJG@Height?5400?9500@		; `string'
PUBLIC	??_C@_0BG@JBCFEINF@Custom?3?5Always?5Square@	; `string'
PUBLIC	??_C@_0BK@NJBCHMME@Custom?3?5Fixed?5Steps?5?$CI100?$CJ@ ; `string'
PUBLIC	??_C@_07JJIBJOCO@200x200@			; `string'
PUBLIC	??_C@_07OJDKPIO@500x500@			; `string'
PUBLIC	??_C@_07IEBICOG@800x200@			; `string'
PUBLIC	??_C@_0L@PIOLEGBL@Constraint@			; `string'
PUBLIC	??_C@_0M@CEOMCPLH@Auto?9resize@			; `string'
PUBLIC	??_C@_0EA@CCNBDEKJ@?$CF?$CKsHello?0?5sailor?$CB?5Making?5this?5l@ ; `string'
PUBLIC	??_C@_0BI@PFDIHNNE@Example?3?5Simple?5overlay@	; `string'
PUBLIC	??_C@_0EN@GGFBFCLD@Simple?5overlay?6in?5the?5corner?5of@ ; `string'
PUBLIC	??_C@_0BM@DKAAEOG@Mouse?5Position?3?5?$CI?$CF?41f?0?$CF?41f?$CJ@ ; `string'
PUBLIC	??_C@_0BK@POIHMAKN@Mouse?5Position?3?5?$DMinvalid?$DO@ ; `string'
PUBLIC	??_C@_06IFGIOHDE@Custom@			; `string'
PUBLIC	??_C@_08DPOKBJOC@Top?9left@			; `string'
PUBLIC	??_C@_09FEMEGGCE@Top?9right@			; `string'
PUBLIC	??_C@_0M@MGBINKPN@Bottom?9left@			; `string'
PUBLIC	??_C@_0N@NJDFJJBC@Bottom?9right@		; `string'
PUBLIC	??_C@_0CA@BDOLKHNF@Same?5title?5as?5another?5window?$CD?$CD1@ ; `string'
PUBLIC	??_C@_0FB@NGKGAEMM@This?5is?5window?51?4?6My?5title?5is?5t@ ; `string'
PUBLIC	??_C@_0CA@DIMGPEBG@Same?5title?5as?5another?5window?$CD?$CD2@ ; `string'
PUBLIC	??_C@_0FB@MFIDPLFC@This?5is?5window?52?4?6My?5title?5is?5t@ ; `string'
PUBLIC	??_C@_04NLDFHNKP@?$HM?1?9?2@			; `string'
PUBLIC	??_C@_0CF@MMFFJKJN@Animated?5title?5?$CFc?5?$CFd?$CD?$CD?$CDAnimated@ ; `string'
PUBLIC	??_C@_0CC@JFOMGEPF@This?5window?5has?5a?5changing?5titl@ ; `string'
PUBLIC	??_C@_0BK@LABFKPJJ@Example?3?5Custom?5rendering@ ; `string'
PUBLIC	??_C@_08EHLCCPCB@?$CD?$CDTabBar@		; `string'
PUBLIC	??_C@_0L@LLLBMLGE@Primitives@			; `string'
PUBLIC	??_C@_04EBKMHHBE@Size@				; `string'
PUBLIC	??_C@_05IDMOFOMC@?$CF?402f@			; `string'
PUBLIC	??_C@_09CEKHLCFH@Thickness@			; `string'
PUBLIC	??_C@_0M@FFKCLHMG@n?9gon?5sides@		; `string'
PUBLIC	??_C@_05PDOBBJNA@Color@				; `string'
PUBLIC	??_C@_06PBIJCONE@Canvas@			; `string'
PUBLIC	??_C@_0DG@KLKDBFIL@Left?9click?5and?5drag?5to?5add?5line@ ; `string'
PUBLIC	??_C@_06DODEBHEI@canvas@			; `string'
PUBLIC	??_C@_0BB@CEOBEDIK@BG?1FG?5draw?5lists@		; `string'
PUBLIC	??_C@_0BN@BHPCJJNA@Draw?5in?5Background?5draw?5list@ ; `string'
PUBLIC	??_C@_0EK@HADEKICD@The?5Background?5draw?5list?5will?5b@ ; `string'
PUBLIC	??_C@_0BN@MBHOHPNH@Draw?5in?5Foreground?5draw?5list@ ; `string'
PUBLIC	??_C@_0EJ@MJHHHC@The?5Foreground?5draw?5list?5will?5b@ ; `string'
PUBLIC	??_C@_0O@LKIEAKBN@Document?5?$CC?$CFs?$CC@	; `string'
PUBLIC	??_C@_0HM@PALHCHMO@Lorem?5ipsum?5dolor?5sit?5amet?0?5con@ ; `string'
PUBLIC	??_C@_06CGNGJFJO@Modify@			; `string'
PUBLIC	??_C@_07HKLKIEAD@Save?5?$CFs@			; `string'
PUBLIC	??_C@_06LGPANJDM@CTRL?$CLS@			; `string'
PUBLIC	??_C@_06NCJMBMDI@CTRL?$CLW@			; `string'
PUBLIC	??_C@_07KPHKCHJL@Lettuce@			; `string'
PUBLIC	??_C@_08MEKMCLOD@Eggplant@			; `string'
PUBLIC	??_C@_06JOCEHIMN@Carrot@			; `string'
PUBLIC	??_C@_06BPAOMENE@Tomato@			; `string'
PUBLIC	??_C@_0BE@GMCEAMGE@A?5Rather?5Long?5Title@	; `string'
PUBLIC	??_C@_0O@ILMKPHFK@Some?5Document@		; `string'
PUBLIC	??_C@_0BD@BKDKPNMJ@Example?3?5Documents@	; `string'
PUBLIC	??_C@_0BE@HCFGHAAC@Close?5All?5Documents@	; `string'
PUBLIC	??_C@_04LBABLPF@Exit@				; `string'
PUBLIC	??_C@_05DIODKGEP@Save?$DP@			; `string'
PUBLIC	??_C@_0CE@FLCNDGLJ@Save?5change?5to?5the?5following?5it@ ; `string'
PUBLIC	??_C@_02IEBMKJDF@?$CD?$CD@			; `string'
PUBLIC	??_C@_03CCLAEDDF@Yes@				; `string'
PUBLIC	??_C@_02JINPPBEP@No@				; `string'
PUBLIC	??_C@_1BC@DCMHDKFO@?$AAi?$AA?5?$AA?$DM?$AA?5?$AAS?$AAi?$AAz?$AAe@ ; `string'
PUBLIC	??_C@_1DK@JJGEFOJO@?$AAi?$AAt?$AA?5?$AA?$DO?$AA?$DN?$AA?5?$AAD?$AAa?$AAt?$AAa?$AA?5?$AA?$CG?$AA?$CG?$AA?5?$AAi@ ; `string'
PUBLIC	??_C@_1BC@KCECIPDP@?$AAS?$AAi?$AAz?$AAe?$AA?5?$AA?$DO?$AA?5?$AA0@ ; `string'
PUBLIC	__real@00000000
PUBLIC	__real@0000000000000000
PUBLIC	__real@38d1b717
PUBLIC	__real@3a03126f
PUBLIC	__real@3ba3d70a
PUBLIC	__real@3c23d70a
PUBLIC	__real@3ca3d70a
PUBLIC	__real@3d4ccccd
PUBLIC	__real@3dcccccd
PUBLIC	__real@3e4ccccd
PUBLIC	__real@3e6b851f
PUBLIC	__real@3e800000
PUBLIC	__real@3e99999a
PUBLIC	__real@3eb33333
PUBLIC	__real@3ecccccd
PUBLIC	__real@3ee4e4e5
PUBLIC	__real@3f000000
PUBLIC	__real@3f109091
PUBLIC	__real@3f19999a
PUBLIC	__real@3f1a9a9b
PUBLIC	__real@3f333333
PUBLIC	__real@3f48c8c9
PUBLIC	__real@3f4ccccd
PUBLIC	__real@3f666666
PUBLIC	__real@3f800000
PUBLIC	__real@3f847ae140000000
PUBLIC	__real@3f8ccccd
PUBLIC	__real@3f91111120000000
PUBLIC	__real@3fa66666
PUBLIC	__real@3fd0000000000000
PUBLIC	__real@3ff0000000000000
PUBLIC	__real@40000000
PUBLIC	__real@40400000
PUBLIC	__real@40490e56
PUBLIC	__real@40800000
PUBLIC	__real@40a00000
PUBLIC	__real@40e00000
PUBLIC	__real@41000000
PUBLIC	__real@411ccccd
PUBLIC	__real@41200000
PUBLIC	__real@41400000
PUBLIC	__real@41600000
PUBLIC	__real@41800000
PUBLIC	__real@41900000
PUBLIC	__real@41a00000
PUBLIC	__real@41f00000
PUBLIC	__real@41f80000
PUBLIC	__real@42000000
PUBLIC	__real@420c0000
PUBLIC	__real@42200000
PUBLIC	__real@42480000
PUBLIC	__real@42700000
PUBLIC	__real@42900000
PUBLIC	__real@42a00000
PUBLIC	__real@42b40000
PUBLIC	__real@42c80000
PUBLIC	__real@42f00000
PUBLIC	__real@430c0000
PUBLIC	__real@430c6bf526340000
PUBLIC	__real@43160000
PUBLIC	__real@43200000
PUBLIC	__real@43340000
PUBLIC	__real@43480000
PUBLIC	__real@43820000
PUBLIC	__real@43960000
PUBLIC	__real@43b40000
PUBLIC	__real@43c80000
PUBLIC	__real@43d70000
PUBLIC	__real@43dc0000
PUBLIC	__real@43e10000
PUBLIC	__real@43fa0000
PUBLIC	__real@44020000
PUBLIC	__real@44098000
PUBLIC	__real@44160000
PUBLIC	__real@44228000
PUBLIC	__real@442a0000
PUBLIC	__real@44480000
PUBLIC	__real@447a0000
PUBLIC	__real@44bb8000
PUBLIC	__real@44db2000
PUBLIC	__real@501502f9
PUBLIC	__real@7f7fffff
PUBLIC	__real@80800000
PUBLIC	__real@bdcccccd
PUBLIC	__real@bf800000
PUBLIC	__real@c1200000
PUBLIC	__real@c1400000
PUBLIC	__real@c1a00000
PUBLIC	__real@c2c80000
PUBLIC	__real@c30c6bf526340000
PUBLIC	__real@c3200000
PUBLIC	__real@c3b40000
PUBLIC	__real@d01502f9
PUBLIC	__xmm@41f00000000000000000000000000000
PUBLIC	__xmm@80000000800000008000000080000000
EXTRN	_atexit:PROC
EXTRN	___report_rangecheckfailure:PROC
EXTRN	__Init_thread_header:PROC
EXTRN	__Init_thread_abort:PROC
EXTRN	__Init_thread_footer:PROC
EXTRN	_memcmp:PROC
EXTRN	_memcpy:PROC
EXTRN	_memmove:PROC
EXTRN	_memset:PROC
EXTRN	_strchr:PROC
EXTRN	_strstr:PROC
EXTRN	_strcpy:PROC
EXTRN	_strlen:PROC
EXTRN	__imp__strncmp:PROC
EXTRN	__imp___wassert:PROC
EXTRN	?GetCurrentContext@ImGui@@YAPAUImGuiContext@@XZ:PROC ; ImGui::GetCurrentContext
EXTRN	?GetIO@ImGui@@YAAAUImGuiIO@@XZ:PROC		; ImGui::GetIO
EXTRN	?GetStyle@ImGui@@YAAAUImGuiStyle@@XZ:PROC	; ImGui::GetStyle
EXTRN	?ShowMetricsWindow@ImGui@@YAXPA_N@Z:PROC	; ImGui::ShowMetricsWindow
EXTRN	?GetVersion@ImGui@@YAPBDXZ:PROC			; ImGui::GetVersion
EXTRN	?StyleColorsDark@ImGui@@YAXPAUImGuiStyle@@@Z:PROC ; ImGui::StyleColorsDark
EXTRN	?StyleColorsClassic@ImGui@@YAXPAUImGuiStyle@@@Z:PROC ; ImGui::StyleColorsClassic
EXTRN	?StyleColorsLight@ImGui@@YAXPAUImGuiStyle@@@Z:PROC ; ImGui::StyleColorsLight
EXTRN	?Begin@ImGui@@YA_NPBDPA_NH@Z:PROC		; ImGui::Begin
EXTRN	?End@ImGui@@YAXXZ:PROC				; ImGui::End
EXTRN	?BeginChild@ImGui@@YA_NPBDABUImVec2@@_NH@Z:PROC	; ImGui::BeginChild
EXTRN	?BeginChild@ImGui@@YA_NIABUImVec2@@_NH@Z:PROC	; ImGui::BeginChild
EXTRN	?EndChild@ImGui@@YAXXZ:PROC			; ImGui::EndChild
EXTRN	?IsWindowFocused@ImGui@@YA_NH@Z:PROC		; ImGui::IsWindowFocused
EXTRN	?IsWindowHovered@ImGui@@YA_NH@Z:PROC		; ImGui::IsWindowHovered
EXTRN	?GetWindowDrawList@ImGui@@YAPAUImDrawList@@XZ:PROC ; ImGui::GetWindowDrawList
EXTRN	?GetWindowPos@ImGui@@YA?AUImVec2@@XZ:PROC	; ImGui::GetWindowPos
EXTRN	?GetWindowSize@ImGui@@YA?AUImVec2@@XZ:PROC	; ImGui::GetWindowSize
EXTRN	?GetWindowWidth@ImGui@@YAMXZ:PROC		; ImGui::GetWindowWidth
EXTRN	?SetNextWindowPos@ImGui@@YAXABUImVec2@@H0@Z:PROC ; ImGui::SetNextWindowPos
EXTRN	?SetNextWindowSize@ImGui@@YAXABUImVec2@@H@Z:PROC ; ImGui::SetNextWindowSize
EXTRN	?SetNextWindowSizeConstraints@ImGui@@YAXABUImVec2@@0P6AXPAUImGuiSizeCallbackData@@@ZPAX@Z:PROC ; ImGui::SetNextWindowSizeConstraints
EXTRN	?SetNextWindowContentSize@ImGui@@YAXABUImVec2@@@Z:PROC ; ImGui::SetNextWindowContentSize
EXTRN	?SetNextWindowBgAlpha@ImGui@@YAXM@Z:PROC	; ImGui::SetNextWindowBgAlpha
EXTRN	?SetWindowSize@ImGui@@YAXABUImVec2@@H@Z:PROC	; ImGui::SetWindowSize
EXTRN	?SetWindowFontScale@ImGui@@YAXM@Z:PROC		; ImGui::SetWindowFontScale
EXTRN	?GetContentRegionAvail@ImGui@@YA?AUImVec2@@XZ:PROC ; ImGui::GetContentRegionAvail
EXTRN	?GetWindowContentRegionMax@ImGui@@YA?AUImVec2@@XZ:PROC ; ImGui::GetWindowContentRegionMax
EXTRN	?GetWindowContentRegionWidth@ImGui@@YAMXZ:PROC	; ImGui::GetWindowContentRegionWidth
EXTRN	?GetScrollX@ImGui@@YAMXZ:PROC			; ImGui::GetScrollX
EXTRN	?GetScrollY@ImGui@@YAMXZ:PROC			; ImGui::GetScrollY
EXTRN	?GetScrollMaxX@ImGui@@YAMXZ:PROC		; ImGui::GetScrollMaxX
EXTRN	?GetScrollMaxY@ImGui@@YAMXZ:PROC		; ImGui::GetScrollMaxY
EXTRN	?SetScrollX@ImGui@@YAXM@Z:PROC			; ImGui::SetScrollX
EXTRN	?SetScrollY@ImGui@@YAXM@Z:PROC			; ImGui::SetScrollY
EXTRN	?SetScrollHereX@ImGui@@YAXM@Z:PROC		; ImGui::SetScrollHereX
EXTRN	?SetScrollHereY@ImGui@@YAXM@Z:PROC		; ImGui::SetScrollHereY
EXTRN	?SetScrollFromPosX@ImGui@@YAXMM@Z:PROC		; ImGui::SetScrollFromPosX
EXTRN	?SetScrollFromPosY@ImGui@@YAXMM@Z:PROC		; ImGui::SetScrollFromPosY
EXTRN	?PushFont@ImGui@@YAXPAUImFont@@@Z:PROC		; ImGui::PushFont
EXTRN	?PopFont@ImGui@@YAXXZ:PROC			; ImGui::PopFont
EXTRN	?PushStyleColor@ImGui@@YAXHI@Z:PROC		; ImGui::PushStyleColor
EXTRN	?PushStyleColor@ImGui@@YAXHABUImVec4@@@Z:PROC	; ImGui::PushStyleColor
EXTRN	?PopStyleColor@ImGui@@YAXH@Z:PROC		; ImGui::PopStyleColor
EXTRN	?PushStyleVar@ImGui@@YAXHM@Z:PROC		; ImGui::PushStyleVar
EXTRN	?PushStyleVar@ImGui@@YAXHABUImVec2@@@Z:PROC	; ImGui::PushStyleVar
EXTRN	?PopStyleVar@ImGui@@YAXH@Z:PROC			; ImGui::PopStyleVar
EXTRN	?GetFont@ImGui@@YAPAUImFont@@XZ:PROC		; ImGui::GetFont
EXTRN	?GetFontSize@ImGui@@YAMXZ:PROC			; ImGui::GetFontSize
EXTRN	?GetColorU32@ImGui@@YAIHM@Z:PROC		; ImGui::GetColorU32
EXTRN	?PushItemWidth@ImGui@@YAXM@Z:PROC		; ImGui::PushItemWidth
EXTRN	?PopItemWidth@ImGui@@YAXXZ:PROC			; ImGui::PopItemWidth
EXTRN	?SetNextItemWidth@ImGui@@YAXM@Z:PROC		; ImGui::SetNextItemWidth
EXTRN	?PushTextWrapPos@ImGui@@YAXM@Z:PROC		; ImGui::PushTextWrapPos
EXTRN	?PopTextWrapPos@ImGui@@YAXXZ:PROC		; ImGui::PopTextWrapPos
EXTRN	?PushAllowKeyboardFocus@ImGui@@YAX_N@Z:PROC	; ImGui::PushAllowKeyboardFocus
EXTRN	?PopAllowKeyboardFocus@ImGui@@YAXXZ:PROC	; ImGui::PopAllowKeyboardFocus
EXTRN	?PushButtonRepeat@ImGui@@YAX_N@Z:PROC		; ImGui::PushButtonRepeat
EXTRN	?PopButtonRepeat@ImGui@@YAXXZ:PROC		; ImGui::PopButtonRepeat
EXTRN	?Separator@ImGui@@YAXXZ:PROC			; ImGui::Separator
EXTRN	?SameLine@ImGui@@YAXMM@Z:PROC			; ImGui::SameLine
EXTRN	?NewLine@ImGui@@YAXXZ:PROC			; ImGui::NewLine
EXTRN	?Spacing@ImGui@@YAXXZ:PROC			; ImGui::Spacing
EXTRN	?Dummy@ImGui@@YAXABUImVec2@@@Z:PROC		; ImGui::Dummy
EXTRN	?Indent@ImGui@@YAXM@Z:PROC			; ImGui::Indent
EXTRN	?Unindent@ImGui@@YAXM@Z:PROC			; ImGui::Unindent
EXTRN	?BeginGroup@ImGui@@YAXXZ:PROC			; ImGui::BeginGroup
EXTRN	?EndGroup@ImGui@@YAXXZ:PROC			; ImGui::EndGroup
EXTRN	?GetCursorPos@ImGui@@YA?AUImVec2@@XZ:PROC	; ImGui::GetCursorPos
EXTRN	?GetCursorPosX@ImGui@@YAMXZ:PROC		; ImGui::GetCursorPosX
EXTRN	?SetCursorPosX@ImGui@@YAXM@Z:PROC		; ImGui::SetCursorPosX
EXTRN	?GetCursorStartPos@ImGui@@YA?AUImVec2@@XZ:PROC	; ImGui::GetCursorStartPos
EXTRN	?GetCursorScreenPos@ImGui@@YA?AUImVec2@@XZ:PROC	; ImGui::GetCursorScreenPos
EXTRN	?AlignTextToFramePadding@ImGui@@YAXXZ:PROC	; ImGui::AlignTextToFramePadding
EXTRN	?GetTextLineHeight@ImGui@@YAMXZ:PROC		; ImGui::GetTextLineHeight
EXTRN	?GetTextLineHeightWithSpacing@ImGui@@YAMXZ:PROC	; ImGui::GetTextLineHeightWithSpacing
EXTRN	?GetFrameHeightWithSpacing@ImGui@@YAMXZ:PROC	; ImGui::GetFrameHeightWithSpacing
EXTRN	?PushID@ImGui@@YAXPBD@Z:PROC			; ImGui::PushID
EXTRN	?PushID@ImGui@@YAXPBX@Z:PROC			; ImGui::PushID
EXTRN	?PushID@ImGui@@YAXH@Z:PROC			; ImGui::PushID
EXTRN	?PopID@ImGui@@YAXXZ:PROC			; ImGui::PopID
EXTRN	?GetID@ImGui@@YAIPBD@Z:PROC			; ImGui::GetID
EXTRN	?GetID@ImGui@@YAIPBX@Z:PROC			; ImGui::GetID
EXTRN	?TextUnformatted@ImGui@@YAXPBD0@Z:PROC		; ImGui::TextUnformatted
EXTRN	?Text@ImGui@@YAXPBDZZ:PROC			; ImGui::Text
EXTRN	?TextColored@ImGui@@YAXABUImVec4@@PBDZZ:PROC	; ImGui::TextColored
EXTRN	?TextDisabled@ImGui@@YAXPBDZZ:PROC		; ImGui::TextDisabled
EXTRN	?TextWrapped@ImGui@@YAXPBDZZ:PROC		; ImGui::TextWrapped
EXTRN	?LabelText@ImGui@@YAXPBD0ZZ:PROC		; ImGui::LabelText
EXTRN	?BulletText@ImGui@@YAXPBDZZ:PROC		; ImGui::BulletText
EXTRN	?Button@ImGui@@YA_NPBDABUImVec2@@@Z:PROC	; ImGui::Button
EXTRN	?SmallButton@ImGui@@YA_NPBD@Z:PROC		; ImGui::SmallButton
EXTRN	?InvisibleButton@ImGui@@YA_NPBDABUImVec2@@@Z:PROC ; ImGui::InvisibleButton
EXTRN	?ArrowButton@ImGui@@YA_NPBDH@Z:PROC		; ImGui::ArrowButton
EXTRN	?Image@ImGui@@YAXPAXABUImVec2@@11ABUImVec4@@2@Z:PROC ; ImGui::Image
EXTRN	?ImageButton@ImGui@@YA_NPAXABUImVec2@@11HABUImVec4@@2@Z:PROC ; ImGui::ImageButton
EXTRN	?Checkbox@ImGui@@YA_NPBDPA_N@Z:PROC		; ImGui::Checkbox
EXTRN	?CheckboxFlags@ImGui@@YA_NPBDPAII@Z:PROC	; ImGui::CheckboxFlags
EXTRN	?RadioButton@ImGui@@YA_NPBD_N@Z:PROC		; ImGui::RadioButton
EXTRN	?RadioButton@ImGui@@YA_NPBDPAHH@Z:PROC		; ImGui::RadioButton
EXTRN	?ProgressBar@ImGui@@YAXMABUImVec2@@PBD@Z:PROC	; ImGui::ProgressBar
EXTRN	?Bullet@ImGui@@YAXXZ:PROC			; ImGui::Bullet
EXTRN	?BeginCombo@ImGui@@YA_NPBD0H@Z:PROC		; ImGui::BeginCombo
EXTRN	?EndCombo@ImGui@@YAXXZ:PROC			; ImGui::EndCombo
EXTRN	?Combo@ImGui@@YA_NPBDPAHQBQBDHH@Z:PROC		; ImGui::Combo
EXTRN	?Combo@ImGui@@YA_NPBDPAH0H@Z:PROC		; ImGui::Combo
EXTRN	?Combo@ImGui@@YA_NPBDPAHP6A_NPAXHPAPBD@Z2HH@Z:PROC ; ImGui::Combo
EXTRN	?DragFloat@ImGui@@YA_NPBDPAMMMM0M@Z:PROC	; ImGui::DragFloat
EXTRN	?DragFloat2@ImGui@@YA_NPBDQAMMMM0M@Z:PROC	; ImGui::DragFloat2
EXTRN	?DragFloat3@ImGui@@YA_NPBDQAMMMM0M@Z:PROC	; ImGui::DragFloat3
EXTRN	?DragFloat4@ImGui@@YA_NPBDQAMMMM0M@Z:PROC	; ImGui::DragFloat4
EXTRN	?DragFloatRange2@ImGui@@YA_NPBDPAM1MMM00M@Z:PROC ; ImGui::DragFloatRange2
EXTRN	?DragInt@ImGui@@YA_NPBDPAHMHH0@Z:PROC		; ImGui::DragInt
EXTRN	?DragInt2@ImGui@@YA_NPBDQAHMHH0@Z:PROC		; ImGui::DragInt2
EXTRN	?DragInt3@ImGui@@YA_NPBDQAHMHH0@Z:PROC		; ImGui::DragInt3
EXTRN	?DragInt4@ImGui@@YA_NPBDQAHMHH0@Z:PROC		; ImGui::DragInt4
EXTRN	?DragIntRange2@ImGui@@YA_NPBDPAH1MHH00@Z:PROC	; ImGui::DragIntRange2
EXTRN	?DragScalar@ImGui@@YA_NPBDHPAXMPBX20M@Z:PROC	; ImGui::DragScalar
EXTRN	?SliderFloat@ImGui@@YA_NPBDPAMMM0M@Z:PROC	; ImGui::SliderFloat
EXTRN	?SliderFloat2@ImGui@@YA_NPBDQAMMM0M@Z:PROC	; ImGui::SliderFloat2
EXTRN	?SliderFloat3@ImGui@@YA_NPBDQAMMM0M@Z:PROC	; ImGui::SliderFloat3
EXTRN	?SliderFloat4@ImGui@@YA_NPBDQAMMM0M@Z:PROC	; ImGui::SliderFloat4
EXTRN	?SliderAngle@ImGui@@YA_NPBDPAMMM0@Z:PROC	; ImGui::SliderAngle
EXTRN	?SliderInt@ImGui@@YA_NPBDPAHHH0@Z:PROC		; ImGui::SliderInt
EXTRN	?SliderInt2@ImGui@@YA_NPBDQAHHH0@Z:PROC		; ImGui::SliderInt2
EXTRN	?SliderInt3@ImGui@@YA_NPBDQAHHH0@Z:PROC		; ImGui::SliderInt3
EXTRN	?SliderInt4@ImGui@@YA_NPBDQAHHH0@Z:PROC		; ImGui::SliderInt4
EXTRN	?SliderScalar@ImGui@@YA_NPBDHPAXPBX20M@Z:PROC	; ImGui::SliderScalar
EXTRN	?VSliderFloat@ImGui@@YA_NPBDABUImVec2@@PAMMM0M@Z:PROC ; ImGui::VSliderFloat
EXTRN	?VSliderInt@ImGui@@YA_NPBDABUImVec2@@PAHHH0@Z:PROC ; ImGui::VSliderInt
EXTRN	?InputText@ImGui@@YA_NPBDPADIHP6AHPAUImGuiInputTextCallbackData@@@ZPAX@Z:PROC ; ImGui::InputText
EXTRN	?InputTextMultiline@ImGui@@YA_NPBDPADIABUImVec2@@HP6AHPAUImGuiInputTextCallbackData@@@ZPAX@Z:PROC ; ImGui::InputTextMultiline
EXTRN	?InputTextWithHint@ImGui@@YA_NPBD0PADIHP6AHPAUImGuiInputTextCallbackData@@@ZPAX@Z:PROC ; ImGui::InputTextWithHint
EXTRN	?InputFloat@ImGui@@YA_NPBDPAMMM0H@Z:PROC	; ImGui::InputFloat
EXTRN	?InputFloat2@ImGui@@YA_NPBDQAM0H@Z:PROC		; ImGui::InputFloat2
EXTRN	?InputFloat3@ImGui@@YA_NPBDQAM0H@Z:PROC		; ImGui::InputFloat3
EXTRN	?InputFloat4@ImGui@@YA_NPBDQAM0H@Z:PROC		; ImGui::InputFloat4
EXTRN	?InputInt@ImGui@@YA_NPBDPAHHHH@Z:PROC		; ImGui::InputInt
EXTRN	?InputInt2@ImGui@@YA_NPBDQAHH@Z:PROC		; ImGui::InputInt2
EXTRN	?InputInt3@ImGui@@YA_NPBDQAHH@Z:PROC		; ImGui::InputInt3
EXTRN	?InputInt4@ImGui@@YA_NPBDQAHH@Z:PROC		; ImGui::InputInt4
EXTRN	?InputDouble@ImGui@@YA_NPBDPANNN0H@Z:PROC	; ImGui::InputDouble
EXTRN	?InputScalar@ImGui@@YA_NPBDHPAXPBX20H@Z:PROC	; ImGui::InputScalar
EXTRN	?ColorEdit3@ImGui@@YA_NPBDQAMH@Z:PROC		; ImGui::ColorEdit3
EXTRN	?ColorEdit4@ImGui@@YA_NPBDQAMH@Z:PROC		; ImGui::ColorEdit4
EXTRN	?ColorPicker4@ImGui@@YA_NPBDQAMHPBM@Z:PROC	; ImGui::ColorPicker4
EXTRN	?ColorButton@ImGui@@YA_NPBDABUImVec4@@HUImVec2@@@Z:PROC ; ImGui::ColorButton
EXTRN	?SetColorEditOptions@ImGui@@YAXH@Z:PROC		; ImGui::SetColorEditOptions
EXTRN	?TreeNode@ImGui@@YA_NPBD@Z:PROC			; ImGui::TreeNode
EXTRN	?TreeNode@ImGui@@YA_NPBD0ZZ:PROC		; ImGui::TreeNode
EXTRN	?TreeNode@ImGui@@YA_NPBXPBDZZ:PROC		; ImGui::TreeNode
EXTRN	?TreeNodeEx@ImGui@@YA_NPBDH@Z:PROC		; ImGui::TreeNodeEx
EXTRN	?TreeNodeEx@ImGui@@YA_NPBDH0ZZ:PROC		; ImGui::TreeNodeEx
EXTRN	?TreeNodeEx@ImGui@@YA_NPBXHPBDZZ:PROC		; ImGui::TreeNodeEx
EXTRN	?TreePop@ImGui@@YAXXZ:PROC			; ImGui::TreePop
EXTRN	?GetTreeNodeToLabelSpacing@ImGui@@YAMXZ:PROC	; ImGui::GetTreeNodeToLabelSpacing
EXTRN	?CollapsingHeader@ImGui@@YA_NPBDH@Z:PROC	; ImGui::CollapsingHeader
EXTRN	?CollapsingHeader@ImGui@@YA_NPBDPA_NH@Z:PROC	; ImGui::CollapsingHeader
EXTRN	?SetNextItemOpen@ImGui@@YAX_NH@Z:PROC		; ImGui::SetNextItemOpen
EXTRN	?Selectable@ImGui@@YA_NPBD_NHABUImVec2@@@Z:PROC	; ImGui::Selectable
EXTRN	?Selectable@ImGui@@YA_NPBDPA_NHABUImVec2@@@Z:PROC ; ImGui::Selectable
EXTRN	?ListBox@ImGui@@YA_NPBDPAHQBQBDHH@Z:PROC	; ImGui::ListBox
EXTRN	?ListBoxHeader@ImGui@@YA_NPBDABUImVec2@@@Z:PROC	; ImGui::ListBoxHeader
EXTRN	?ListBoxHeader@ImGui@@YA_NPBDHH@Z:PROC		; ImGui::ListBoxHeader
EXTRN	?ListBoxFooter@ImGui@@YAXXZ:PROC		; ImGui::ListBoxFooter
EXTRN	?PlotLines@ImGui@@YAXPBDPBMHH0MMUImVec2@@H@Z:PROC ; ImGui::PlotLines
EXTRN	?PlotLines@ImGui@@YAXPBDP6AMPAXH@Z1HH0MMUImVec2@@@Z:PROC ; ImGui::PlotLines
EXTRN	?PlotHistogram@ImGui@@YAXPBDPBMHH0MMUImVec2@@H@Z:PROC ; ImGui::PlotHistogram
EXTRN	?PlotHistogram@ImGui@@YAXPBDP6AMPAXH@Z1HH0MMUImVec2@@@Z:PROC ; ImGui::PlotHistogram
EXTRN	?BeginMenuBar@ImGui@@YA_NXZ:PROC		; ImGui::BeginMenuBar
EXTRN	?EndMenuBar@ImGui@@YAXXZ:PROC			; ImGui::EndMenuBar
EXTRN	?BeginMainMenuBar@ImGui@@YA_NXZ:PROC		; ImGui::BeginMainMenuBar
EXTRN	?EndMainMenuBar@ImGui@@YAXXZ:PROC		; ImGui::EndMainMenuBar
EXTRN	?BeginMenu@ImGui@@YA_NPBD_N@Z:PROC		; ImGui::BeginMenu
EXTRN	?EndMenu@ImGui@@YAXXZ:PROC			; ImGui::EndMenu
EXTRN	?MenuItem@ImGui@@YA_NPBD0_N1@Z:PROC		; ImGui::MenuItem
EXTRN	?MenuItem@ImGui@@YA_NPBD0PA_N_N@Z:PROC		; ImGui::MenuItem
EXTRN	?BeginTooltip@ImGui@@YAXXZ:PROC			; ImGui::BeginTooltip
EXTRN	?EndTooltip@ImGui@@YAXXZ:PROC			; ImGui::EndTooltip
EXTRN	?SetTooltip@ImGui@@YAXPBDZZ:PROC		; ImGui::SetTooltip
EXTRN	?OpenPopup@ImGui@@YAXPBD@Z:PROC			; ImGui::OpenPopup
EXTRN	?BeginPopup@ImGui@@YA_NPBDH@Z:PROC		; ImGui::BeginPopup
EXTRN	?BeginPopupContextItem@ImGui@@YA_NPBDH@Z:PROC	; ImGui::BeginPopupContextItem
EXTRN	?BeginPopupContextWindow@ImGui@@YA_NPBDH_N@Z:PROC ; ImGui::BeginPopupContextWindow
EXTRN	?BeginPopupModal@ImGui@@YA_NPBDPA_NH@Z:PROC	; ImGui::BeginPopupModal
EXTRN	?EndPopup@ImGui@@YAXXZ:PROC			; ImGui::EndPopup
EXTRN	?OpenPopupOnItemClick@ImGui@@YA_NPBDH@Z:PROC	; ImGui::OpenPopupOnItemClick
EXTRN	?IsPopupOpen@ImGui@@YA_NPBD@Z:PROC		; ImGui::IsPopupOpen
EXTRN	?CloseCurrentPopup@ImGui@@YAXXZ:PROC		; ImGui::CloseCurrentPopup
EXTRN	?Columns@ImGui@@YAXHPBD_N@Z:PROC		; ImGui::Columns
EXTRN	?NextColumn@ImGui@@YAXXZ:PROC			; ImGui::NextColumn
EXTRN	?GetColumnIndex@ImGui@@YAHXZ:PROC		; ImGui::GetColumnIndex
EXTRN	?GetColumnWidth@ImGui@@YAMH@Z:PROC		; ImGui::GetColumnWidth
EXTRN	?GetColumnOffset@ImGui@@YAMH@Z:PROC		; ImGui::GetColumnOffset
EXTRN	?BeginTabBar@ImGui@@YA_NPBDH@Z:PROC		; ImGui::BeginTabBar
EXTRN	?EndTabBar@ImGui@@YAXXZ:PROC			; ImGui::EndTabBar
EXTRN	?BeginTabItem@ImGui@@YA_NPBDPA_NH@Z:PROC	; ImGui::BeginTabItem
EXTRN	?EndTabItem@ImGui@@YAXXZ:PROC			; ImGui::EndTabItem
EXTRN	?SetTabItemClosed@ImGui@@YAXPBD@Z:PROC		; ImGui::SetTabItemClosed
EXTRN	?LogToTTY@ImGui@@YAXH@Z:PROC			; ImGui::LogToTTY
EXTRN	?LogToClipboard@ImGui@@YAXH@Z:PROC		; ImGui::LogToClipboard
EXTRN	?LogFinish@ImGui@@YAXXZ:PROC			; ImGui::LogFinish
EXTRN	?LogButtons@ImGui@@YAXXZ:PROC			; ImGui::LogButtons
EXTRN	?LogText@ImGui@@YAXPBDZZ:PROC			; ImGui::LogText
EXTRN	?BeginDragDropSource@ImGui@@YA_NH@Z:PROC	; ImGui::BeginDragDropSource
EXTRN	?SetDragDropPayload@ImGui@@YA_NPBDPBXIH@Z:PROC	; ImGui::SetDragDropPayload
EXTRN	?EndDragDropSource@ImGui@@YAXXZ:PROC		; ImGui::EndDragDropSource
EXTRN	?BeginDragDropTarget@ImGui@@YA_NXZ:PROC		; ImGui::BeginDragDropTarget
EXTRN	?AcceptDragDropPayload@ImGui@@YAPBUImGuiPayload@@PBDH@Z:PROC ; ImGui::AcceptDragDropPayload
EXTRN	?EndDragDropTarget@ImGui@@YAXXZ:PROC		; ImGui::EndDragDropTarget
EXTRN	?SetItemDefaultFocus@ImGui@@YAXXZ:PROC		; ImGui::SetItemDefaultFocus
EXTRN	?SetKeyboardFocusHere@ImGui@@YAXH@Z:PROC	; ImGui::SetKeyboardFocusHere
EXTRN	?IsItemHovered@ImGui@@YA_NH@Z:PROC		; ImGui::IsItemHovered
EXTRN	?IsItemActive@ImGui@@YA_NXZ:PROC		; ImGui::IsItemActive
EXTRN	?IsItemFocused@ImGui@@YA_NXZ:PROC		; ImGui::IsItemFocused
EXTRN	?IsItemClicked@ImGui@@YA_NH@Z:PROC		; ImGui::IsItemClicked
EXTRN	?IsItemVisible@ImGui@@YA_NXZ:PROC		; ImGui::IsItemVisible
EXTRN	?IsItemEdited@ImGui@@YA_NXZ:PROC		; ImGui::IsItemEdited
EXTRN	?IsItemActivated@ImGui@@YA_NXZ:PROC		; ImGui::IsItemActivated
EXTRN	?IsItemDeactivated@ImGui@@YA_NXZ:PROC		; ImGui::IsItemDeactivated
EXTRN	?IsItemDeactivatedAfterEdit@ImGui@@YA_NXZ:PROC	; ImGui::IsItemDeactivatedAfterEdit
EXTRN	?IsItemToggledOpen@ImGui@@YA_NXZ:PROC		; ImGui::IsItemToggledOpen
EXTRN	?GetItemRectMin@ImGui@@YA?AUImVec2@@XZ:PROC	; ImGui::GetItemRectMin
EXTRN	?GetItemRectMax@ImGui@@YA?AUImVec2@@XZ:PROC	; ImGui::GetItemRectMax
EXTRN	?GetItemRectSize@ImGui@@YA?AUImVec2@@XZ:PROC	; ImGui::GetItemRectSize
EXTRN	?GetTime@ImGui@@YANXZ:PROC			; ImGui::GetTime
EXTRN	?GetFrameCount@ImGui@@YAHXZ:PROC		; ImGui::GetFrameCount
EXTRN	?GetBackgroundDrawList@ImGui@@YAPAUImDrawList@@XZ:PROC ; ImGui::GetBackgroundDrawList
EXTRN	?GetForegroundDrawList@ImGui@@YAPAUImDrawList@@XZ:PROC ; ImGui::GetForegroundDrawList
EXTRN	?GetStyleColorName@ImGui@@YAPBDH@Z:PROC		; ImGui::GetStyleColorName
EXTRN	?BeginChildFrame@ImGui@@YA_NIABUImVec2@@H@Z:PROC ; ImGui::BeginChildFrame
EXTRN	?EndChildFrame@ImGui@@YAXXZ:PROC		; ImGui::EndChildFrame
EXTRN	?ColorConvertFloat4ToU32@ImGui@@YAIABUImVec4@@@Z:PROC ; ImGui::ColorConvertFloat4ToU32
EXTRN	?ColorConvertHSVtoRGB@ImGui@@YAXMMMAAM00@Z:PROC	; ImGui::ColorConvertHSVtoRGB
EXTRN	?GetKeyIndex@ImGui@@YAHH@Z:PROC			; ImGui::GetKeyIndex
EXTRN	?IsKeyPressed@ImGui@@YA_NH_N@Z:PROC		; ImGui::IsKeyPressed
EXTRN	?IsKeyReleased@ImGui@@YA_NH@Z:PROC		; ImGui::IsKeyReleased
EXTRN	?CaptureKeyboardFromApp@ImGui@@YAX_N@Z:PROC	; ImGui::CaptureKeyboardFromApp
EXTRN	?IsMouseDown@ImGui@@YA_NH@Z:PROC		; ImGui::IsMouseDown
EXTRN	?IsMouseClicked@ImGui@@YA_NH_N@Z:PROC		; ImGui::IsMouseClicked
EXTRN	?IsMouseReleased@ImGui@@YA_NH@Z:PROC		; ImGui::IsMouseReleased
EXTRN	?IsMouseDoubleClicked@ImGui@@YA_NH@Z:PROC	; ImGui::IsMouseDoubleClicked
EXTRN	?IsMouseHoveringRect@ImGui@@YA_NABUImVec2@@0_N@Z:PROC ; ImGui::IsMouseHoveringRect
EXTRN	?IsMousePosValid@ImGui@@YA_NPBUImVec2@@@Z:PROC	; ImGui::IsMousePosValid
EXTRN	?IsMouseDragging@ImGui@@YA_NHM@Z:PROC		; ImGui::IsMouseDragging
EXTRN	?GetMouseDragDelta@ImGui@@YA?AUImVec2@@HM@Z:PROC ; ImGui::GetMouseDragDelta
EXTRN	?ResetMouseDragDelta@ImGui@@YAXH@Z:PROC		; ImGui::ResetMouseDragDelta
EXTRN	?GetMouseCursor@ImGui@@YAHXZ:PROC		; ImGui::GetMouseCursor
EXTRN	?SetMouseCursor@ImGui@@YAXH@Z:PROC		; ImGui::SetMouseCursor
EXTRN	?MemAlloc@ImGui@@YAPAXI@Z:PROC			; ImGui::MemAlloc
EXTRN	?MemFree@ImGui@@YAXPAX@Z:PROC			; ImGui::MemFree
EXTRN	??0ImGuiStyle@@QAE@XZ:PROC			; ImGuiStyle::ImGuiStyle
EXTRN	?DeleteChars@ImGuiInputTextCallbackData@@QAEXHH@Z:PROC ; ImGuiInputTextCallbackData::DeleteChars
EXTRN	?InsertChars@ImGuiInputTextCallbackData@@QAEXHPBD0@Z:PROC ; ImGuiInputTextCallbackData::InsertChars
EXTRN	??0ImGuiTextFilter@@QAE@PBD@Z:PROC		; ImGuiTextFilter::ImGuiTextFilter
EXTRN	?Draw@ImGuiTextFilter@@QAE_NPBDM@Z:PROC		; ImGuiTextFilter::Draw
EXTRN	?PassFilter@ImGuiTextFilter@@QBE_NPBD0@Z:PROC	; ImGuiTextFilter::PassFilter
EXTRN	?appendf@ImGuiTextBuffer@@QAAXPBDZZ:PROC	; ImGuiTextBuffer::appendf
EXTRN	?appendfv@ImGuiTextBuffer@@QAEXPBDPAD@Z:PROC	; ImGuiTextBuffer::appendfv
EXTRN	?Step@ImGuiListClipper@@QAE_NXZ:PROC		; ImGuiListClipper::Step
EXTRN	?Begin@ImGuiListClipper@@QAEXHM@Z:PROC		; ImGuiListClipper::Begin
EXTRN	?End@ImGuiListClipper@@QAEXXZ:PROC		; ImGuiListClipper::End
EXTRN	?PushClipRect@ImDrawList@@QAEXUImVec2@@0_N@Z:PROC ; ImDrawList::PushClipRect
EXTRN	?PopClipRect@ImDrawList@@QAEXXZ:PROC		; ImDrawList::PopClipRect
EXTRN	?AddLine@ImDrawList@@QAEXABUImVec2@@0IM@Z:PROC	; ImDrawList::AddLine
EXTRN	?AddRect@ImDrawList@@QAEXABUImVec2@@0IMHM@Z:PROC ; ImDrawList::AddRect
EXTRN	?AddRectFilled@ImDrawList@@QAEXABUImVec2@@0IMH@Z:PROC ; ImDrawList::AddRectFilled
EXTRN	?AddRectFilledMultiColor@ImDrawList@@QAEXABUImVec2@@0IIII@Z:PROC ; ImDrawList::AddRectFilledMultiColor
EXTRN	?AddTriangle@ImDrawList@@QAEXABUImVec2@@00IM@Z:PROC ; ImDrawList::AddTriangle
EXTRN	?AddTriangleFilled@ImDrawList@@QAEXABUImVec2@@00I@Z:PROC ; ImDrawList::AddTriangleFilled
EXTRN	?AddCircle@ImDrawList@@QAEXABUImVec2@@MIHM@Z:PROC ; ImDrawList::AddCircle
EXTRN	?AddCircleFilled@ImDrawList@@QAEXABUImVec2@@MIH@Z:PROC ; ImDrawList::AddCircleFilled
EXTRN	?AddNgon@ImDrawList@@QAEXABUImVec2@@MIHM@Z:PROC	; ImDrawList::AddNgon
EXTRN	?AddNgonFilled@ImDrawList@@QAEXABUImVec2@@MIH@Z:PROC ; ImDrawList::AddNgonFilled
EXTRN	?AddText@ImDrawList@@QAEXPBUImFont@@MABUImVec2@@IPBD2MPBUImVec4@@@Z:PROC ; ImDrawList::AddText
EXTRN	?AddBezierCurve@ImDrawList@@QAEXABUImVec2@@000IMH@Z:PROC ; ImDrawList::AddBezierCurve
EXTRN	?FindGlyphNoFallback@ImFont@@QBEPBUImFontGlyph@@G@Z:PROC ; ImFont::FindGlyphNoFallback
EXTRN	?RenderChar@ImFont@@QBEXPAUImDrawList@@MUImVec2@@IG@Z:PROC ; ImFont::RenderChar
EXTRN	__imp__toupper:PROC
EXTRN	_cos:PROC
EXTRN	_fmod:PROC
EXTRN	_sin:PROC
EXTRN	_sqrt:PROC
EXTRN	__imp____stdio_common_vsprintf:PROC
EXTRN	__imp__free:PROC
EXTRN	__imp__malloc:PROC
EXTRN	@_RTC_CheckStackVars@8:PROC
EXTRN	@__CheckForDebuggerJustMyCode@4:PROC
EXTRN	@__security_check_cookie@4:PROC
EXTRN	__RTC_CheckEsp:PROC
EXTRN	__RTC_InitBase:PROC
EXTRN	__RTC_Shutdown:PROC
EXTRN	___CxxFrameHandler3:PROC
EXTRN	__chkstk:PROC
EXTRN	__Init_thread_epoch:DWORD
EXTRN	?EmptyString@ImGuiTextBuffer@@2PADA:BYTE	; ImGuiTextBuffer::EmptyString
EXTRN	___security_cookie:DWORD
EXTRN	__fltused:DWORD
EXTRN	__tls_array:DWORD
EXTRN	__tls_index:DWORD
;	COMDAT ?_OptionsStorage@?1??__local_stdio_printf_options@@9@4_KA
_BSS	SEGMENT
?_OptionsStorage@?1??__local_stdio_printf_options@@9@4_KA DQ 01H DUP (?) ; `__local_stdio_printf_options'::`2'::_OptionsStorage
_BSS	ENDS
_BSS	SEGMENT
?show_app_documents@?1??ShowDemoWindow@ImGui@@YAXPA_N@Z@4_NA DB 01H DUP (?) ; `ImGui::ShowDemoWindow'::`2'::show_app_documents
	ALIGN	4

?show_app_main_menu_bar@?1??ShowDemoWindow@ImGui@@YAXPA_N@Z@4_NA DB 01H DUP (?) ; `ImGui::ShowDemoWindow'::`2'::show_app_main_menu_bar
	ALIGN	4

?show_app_console@?1??ShowDemoWindow@ImGui@@YAXPA_N@Z@4_NA DB 01H DUP (?) ; `ImGui::ShowDemoWindow'::`2'::show_app_console
	ALIGN	4

?show_app_log@?1??ShowDemoWindow@ImGui@@YAXPA_N@Z@4_NA DB 01H DUP (?) ; `ImGui::ShowDemoWindow'::`2'::show_app_log
	ALIGN	4

?show_app_layout@?1??ShowDemoWindow@ImGui@@YAXPA_N@Z@4_NA DB 01H DUP (?) ; `ImGui::ShowDemoWindow'::`2'::show_app_layout
	ALIGN	4

?show_app_property_editor@?1??ShowDemoWindow@ImGui@@YAXPA_N@Z@4_NA DB 01H DUP (?) ; `ImGui::ShowDemoWindow'::`2'::show_app_property_editor
	ALIGN	4

?show_app_long_text@?1??ShowDemoWindow@ImGui@@YAXPA_N@Z@4_NA DB 01H DUP (?) ; `ImGui::ShowDemoWindow'::`2'::show_app_long_text
	ALIGN	4

?show_app_auto_resize@?1??ShowDemoWindow@ImGui@@YAXPA_N@Z@4_NA DB 01H DUP (?) ; `ImGui::ShowDemoWindow'::`2'::show_app_auto_resize
	ALIGN	4

?show_app_constrained_resize@?1??ShowDemoWindow@ImGui@@YAXPA_N@Z@4_NA DB 01H DUP (?) ; `ImGui::ShowDemoWindow'::`2'::show_app_constrained_resize
	ALIGN	4

?show_app_simple_overlay@?1??ShowDemoWindow@ImGui@@YAXPA_N@Z@4_NA DB 01H DUP (?) ; `ImGui::ShowDemoWindow'::`2'::show_app_simple_overlay
	ALIGN	4

?show_app_window_titles@?1??ShowDemoWindow@ImGui@@YAXPA_N@Z@4_NA DB 01H DUP (?) ; `ImGui::ShowDemoWindow'::`2'::show_app_window_titles
	ALIGN	4

?show_app_custom_rendering@?1??ShowDemoWindow@ImGui@@YAXPA_N@Z@4_NA DB 01H DUP (?) ; `ImGui::ShowDemoWindow'::`2'::show_app_custom_rendering
	ALIGN	4

?show_app_metrics@?1??ShowDemoWindow@ImGui@@YAXPA_N@Z@4_NA DB 01H DUP (?) ; `ImGui::ShowDemoWindow'::`2'::show_app_metrics
	ALIGN	4

?show_app_style_editor@?1??ShowDemoWindow@ImGui@@YAXPA_N@Z@4_NA DB 01H DUP (?) ; `ImGui::ShowDemoWindow'::`2'::show_app_style_editor
	ALIGN	4

?show_app_about@?1??ShowDemoWindow@ImGui@@YAXPA_N@Z@4_NA DB 01H DUP (?) ; `ImGui::ShowDemoWindow'::`2'::show_app_about
	ALIGN	4

?no_titlebar@?1??ShowDemoWindow@ImGui@@YAXPA_N@Z@4_NA DB 01H DUP (?) ; `ImGui::ShowDemoWindow'::`2'::no_titlebar
	ALIGN	4

?no_scrollbar@?1??ShowDemoWindow@ImGui@@YAXPA_N@Z@4_NA DB 01H DUP (?) ; `ImGui::ShowDemoWindow'::`2'::no_scrollbar
	ALIGN	4

?no_menu@?1??ShowDemoWindow@ImGui@@YAXPA_N@Z@4_NA DB 01H DUP (?) ; `ImGui::ShowDemoWindow'::`2'::no_menu
	ALIGN	4

?no_move@?1??ShowDemoWindow@ImGui@@YAXPA_N@Z@4_NA DB 01H DUP (?) ; `ImGui::ShowDemoWindow'::`2'::no_move
	ALIGN	4

?no_resize@?1??ShowDemoWindow@ImGui@@YAXPA_N@Z@4_NA DB 01H DUP (?) ; `ImGui::ShowDemoWindow'::`2'::no_resize
	ALIGN	4

?no_collapse@?1??ShowDemoWindow@ImGui@@YAXPA_N@Z@4_NA DB 01H DUP (?) ; `ImGui::ShowDemoWindow'::`2'::no_collapse
	ALIGN	4

?no_close@?1??ShowDemoWindow@ImGui@@YAXPA_N@Z@4_NA DB 01H DUP (?) ; `ImGui::ShowDemoWindow'::`2'::no_close
	ALIGN	4

?no_nav@?1??ShowDemoWindow@ImGui@@YAXPA_N@Z@4_NA DB 01H DUP (?) ; `ImGui::ShowDemoWindow'::`2'::no_nav
	ALIGN	4

?no_background@?1??ShowDemoWindow@ImGui@@YAXPA_N@Z@4_NA DB 01H DUP (?) ; `ImGui::ShowDemoWindow'::`2'::no_background
	ALIGN	4

?no_bring_to_front@?1??ShowDemoWindow@ImGui@@YAXPA_N@Z@4_NA DB 01H DUP (?) ; `ImGui::ShowDemoWindow'::`2'::no_bring_to_front
	ALIGN	4

?clicked@?6??ShowDemoWindowWidgets@@YAXXZ@4HA DD 01H DUP (?) ; `ShowDemoWindowWidgets'::`7'::clicked
?e@?6??ShowDemoWindowWidgets@@YAXXZ@4HA DD 01H DUP (?)	; `ShowDemoWindowWidgets'::`7'::e
?counter@?6??ShowDemoWindowWidgets@@YAXXZ@4HA DD 01H DUP (?) ; `ShowDemoWindowWidgets'::`7'::counter
?item_current@?BM@??ShowDemoWindowWidgets@@YAXXZ@4HA DD 01H DUP (?) ; `ShowDemoWindowWidgets'::`28'::item_current
?str1@?BN@??ShowDemoWindowWidgets@@YAXXZ@4PADA DB 080H DUP (?) ; `ShowDemoWindowWidgets'::`29'::str1
?i1@?BP@??ShowDemoWindowWidgets@@YAXXZ@4HA DD 01H DUP (?) ; `ShowDemoWindowWidgets'::`31'::i1
?f2@?BP@??ShowDemoWindowWidgets@@YAXXZ@4MA DD 01H DUP (?) ; `ShowDemoWindowWidgets'::`31'::f2
?angle@?BP@??ShowDemoWindowWidgets@@YAXXZ@4MA DD 01H DUP (?) ; `ShowDemoWindowWidgets'::`31'::angle
?current_element@?BP@??ShowDemoWindowWidgets@@YAXXZ@4HA DD 01H DUP (?) ; `ShowDemoWindowWidgets'::`31'::current_element
?align_label_with_current_x_position@?DE@??ShowDemoWindowWidgets@@YAXXZ@4_NA DB 01H DUP (?) ; `ShowDemoWindowWidgets'::`52'::align_label_with_current_x_position
	ALIGN	4

?pressed_count@?GO@??ShowDemoWindowWidgets@@YAXXZ@4HA DD 01H DUP (?) ; `ShowDemoWindowWidgets'::`110'::pressed_count
?flags@?IC@??ShowDemoWindowWidgets@@YAXXZ@4HA DD 01H DUP (?) ; `ShowDemoWindowWidgets'[::C]::flags
?item_current@?IC@??ShowDemoWindowWidgets@@YAXXZ@4PBDB DD 01H DUP (?) ; `ShowDemoWindowWidgets'[::C]::item_current
?$TSS0@?IC@??ShowDemoWindowWidgets@@YAXXZ@4HA DD 01H DUP (?) ; `ShowDemoWindowWidgets'[::C]::$TSS0
?item_current_2@?IC@??ShowDemoWindowWidgets@@YAXXZ@4HA DD 01H DUP (?) ; `ShowDemoWindowWidgets'[::C]::item_current_2
?item_current_4@?IC@??ShowDemoWindowWidgets@@YAXXZ@4HA DD 01H DUP (?) ; `ShowDemoWindowWidgets'[::C]::item_current_4
?selection@?KD@??ShowDemoWindowWidgets@@YAXXZ@4PA_NA DB 05H DUP (?) ; `ShowDemoWindowWidgets'::`163'::selection
	ALIGN	4

?selected@?KN@??ShowDemoWindowWidgets@@YAXXZ@4PA_NA DB 03H DUP (?) ; `ShowDemoWindowWidgets'::`173'::selected
	ALIGN	4

?selected@?LA@??ShowDemoWindowWidgets@@YAXXZ@4PA_NA DB 010H DUP (?) ; `ShowDemoWindowWidgets'::`176'::selected
?buf1@?NN@??ShowDemoWindowWidgets@@YAXXZ@4PADA DB 040H DUP (?) ; `ShowDemoWindowWidgets'::`221'::buf1
?buf2@?NN@??ShowDemoWindowWidgets@@YAXXZ@4PADA DB 040H DUP (?) ; `ShowDemoWindowWidgets'::`221'::buf2
?buf3@?NN@??ShowDemoWindowWidgets@@YAXXZ@4PADA DB 040H DUP (?) ; `ShowDemoWindowWidgets'::`221'::buf3
?buf4@?NN@??ShowDemoWindowWidgets@@YAXXZ@4PADA DB 040H DUP (?) ; `ShowDemoWindowWidgets'::`221'::buf4
?buf5@?NN@??ShowDemoWindowWidgets@@YAXXZ@4PADA DB 040H DUP (?) ; `ShowDemoWindowWidgets'::`221'::buf5
?buf6@?NN@??ShowDemoWindowWidgets@@YAXXZ@4PADA DB 040H DUP (?) ; `ShowDemoWindowWidgets'::`221'::buf6
?my_str@?OA@??ShowDemoWindowWidgets@@YAXXZ@4U?$ImVector@D@@A DB 0cH DUP (?) ; `ShowDemoWindowWidgets'::`224'::my_str
?$TSS1@?OA@??ShowDemoWindowWidgets@@YAXXZ@4HA DD 01H DUP (?) ; `ShowDemoWindowWidgets'::`224'::$TSS1
?values@?OF@??ShowDemoWindowWidgets@@YAXXZ@4PAMA DD 05aH DUP (?) ; `ShowDemoWindowWidgets'::`229'::values
?values_offset@?OF@??ShowDemoWindowWidgets@@YAXXZ@4HA DD 01H DUP (?) ; `ShowDemoWindowWidgets'::`229'::values_offset
?refresh_time@?OF@??ShowDemoWindowWidgets@@YAXXZ@4NA DQ 01H DUP (?) ; `ShowDemoWindowWidgets'::`229'::refresh_time
?phase@?OJ@??ShowDemoWindowWidgets@@YAXXZ@4MA DD 01H DUP (?) ; `ShowDemoWindowWidgets'::`233'::phase
?func_type@?OF@??ShowDemoWindowWidgets@@YAXXZ@4HA DD 01H DUP (?) ; `ShowDemoWindowWidgets'::`229'::func_type
?progress@?OF@??ShowDemoWindowWidgets@@YAXXZ@4MA DD 01H DUP (?) ; `ShowDemoWindowWidgets'::`229'::progress
?color@?PH@??ShowDemoWindowWidgets@@YAXXZ@4UImVec4@@A DB 010H DUP (?) ; `ShowDemoWindowWidgets'::`247'::color
?$TSS2@?PH@??ShowDemoWindowWidgets@@YAXXZ@4HA DD 01H DUP (?) ; `ShowDemoWindowWidgets'::`247'::$TSS2
?alpha_half_preview@?PH@??ShowDemoWindowWidgets@@YAXXZ@4_NA DB 01H DUP (?) ; `ShowDemoWindowWidgets'::`247'::alpha_half_preview
	ALIGN	4

?hdr@?PH@??ShowDemoWindowWidgets@@YAXXZ@4_NA DB 01H DUP (?) ; `ShowDemoWindowWidgets'::`247'::hdr
	ALIGN	4

?saved_palette@?PH@??ShowDemoWindowWidgets@@YAXXZ@4PAUImVec4@@A DB 0200H DUP (?) ; `ShowDemoWindowWidgets'::`247'::saved_palette
?$TSS3@?PH@??ShowDemoWindowWidgets@@YAXXZ@4HA DD 01H DUP (?) ; `ShowDemoWindowWidgets'::`247'::$TSS3
?backup_color@?PH@??ShowDemoWindowWidgets@@YAXXZ@4UImVec4@@A DB 010H DUP (?) ; `ShowDemoWindowWidgets'::`247'::backup_color
?$TSS4@?PH@??ShowDemoWindowWidgets@@YAXXZ@4HA DD 01H DUP (?) ; `ShowDemoWindowWidgets'::`247'::$TSS4
?ref_color@?PH@??ShowDemoWindowWidgets@@YAXXZ@4_NA DB 01H DUP (?) ; `ShowDemoWindowWidgets'::`247'::ref_color
	ALIGN	4

?ref_color_v@?PH@??ShowDemoWindowWidgets@@YAXXZ@4UImVec4@@A DB 010H DUP (?) ; `ShowDemoWindowWidgets'::`247'::ref_color_v
?$TSS5@?PH@??ShowDemoWindowWidgets@@YAXXZ@4HA DD 01H DUP (?) ; `ShowDemoWindowWidgets'::`247'::$TSS5
?display_mode@?PH@??ShowDemoWindowWidgets@@YAXXZ@4HA DD 01H DUP (?) ; `ShowDemoWindowWidgets'::`247'::display_mode
?picker_mode@?PH@??ShowDemoWindowWidgets@@YAXXZ@4HA DD 01H DUP (?) ; `ShowDemoWindowWidgets'::`247'::picker_mode
?color_stored_as_hsv@?PH@??ShowDemoWindowWidgets@@YAXXZ@4UImVec4@@A DB 010H DUP (?) ; `ShowDemoWindowWidgets'::`247'::color_stored_as_hsv
?$TSS6@?PH@??ShowDemoWindowWidgets@@YAXXZ@4HA DD 01H DUP (?) ; `ShowDemoWindowWidgets'::`247'::$TSS6
?drag_clamp@?BDD@??ShowDemoWindowWidgets@@YAXXZ@4_NA DB 01H DUP (?) ; `ShowDemoWindowWidgets'::`307'::drag_clamp
	ALIGN	4

?int_value@?BDJ@??ShowDemoWindowWidgets@@YAXXZ@4HA DD 01H DUP (?) ; `ShowDemoWindowWidgets'::`313'::int_value
?mode@?BFE@??ShowDemoWindowWidgets@@YAXXZ@4HA DD 01H DUP (?) ; `ShowDemoWindowWidgets'::`340'::mode
?b@?BIK@??ShowDemoWindowWidgets@@YAXXZ@4_NA DB 01H DUP (?) ; `ShowDemoWindowWidgets'::`394'::b
	ALIGN	4

?str@?BIK@??ShowDemoWindowWidgets@@YAXXZ@4PADA DB 010H DUP (?) ; `ShowDemoWindowWidgets'::`394'::str
?embed_all_inside_a_child_window@?BIK@??ShowDemoWindowWidgets@@YAXXZ@4_NA DB 01H DUP (?) ; `ShowDemoWindowWidgets'::`394'::embed_all_inside_a_child_window
	ALIGN	4

?test_window@?BIK@??ShowDemoWindowWidgets@@YAXXZ@4_NA DB 01H DUP (?) ; `ShowDemoWindowWidgets'::`394'::test_window
	ALIGN	4

?disable_mouse_wheel@?6??ShowDemoWindowLayout@@YAXXZ@4_NA DB 01H DUP (?) ; `ShowDemoWindowLayout'::`7'::disable_mouse_wheel
	ALIGN	4

?disable_menu@?6??ShowDemoWindowLayout@@YAXXZ@4_NA DB 01H DUP (?) ; `ShowDemoWindowLayout'::`7'::disable_menu
	ALIGN	4

?f@?BM@??ShowDemoWindowLayout@@YAXXZ@4MA DD 01H DUP (?)	; `ShowDemoWindowLayout'::`28'::f
?c1@?BP@??ShowDemoWindowLayout@@YAXXZ@4_NA DB 01H DUP (?) ; `ShowDemoWindowLayout'::`31'::c1
	ALIGN	4

?c2@?BP@??ShowDemoWindowLayout@@YAXXZ@4_NA DB 01H DUP (?) ; `ShowDemoWindowLayout'::`31'::c2
	ALIGN	4

?c3@?BP@??ShowDemoWindowLayout@@YAXXZ@4_NA DB 01H DUP (?) ; `ShowDemoWindowLayout'::`31'::c3
	ALIGN	4

?c4@?BP@??ShowDemoWindowLayout@@YAXXZ@4_NA DB 01H DUP (?) ; `ShowDemoWindowLayout'::`31'::c4
	ALIGN	4

?enable_extra_decorations@?GK@??ShowDemoWindowLayout@@YAXXZ@4_NA DB 01H DUP (?) ; `ShowDemoWindowLayout'::`106'::enable_extra_decorations
	ALIGN	4

?scroll_to_off_px@?GK@??ShowDemoWindowLayout@@YAXXZ@4MA DD 01H DUP (?) ; `ShowDemoWindowLayout'::`106'::scroll_to_off_px
?show_horizontal_contents_size_demo_window@?GK@??ShowDemoWindowLayout@@YAXXZ@4_NA DB 01H DUP (?) ; `ShowDemoWindowLayout'::`106'::show_horizontal_contents_size_demo_window
	ALIGN	4

?show_text_wrapped@?KF@??ShowDemoWindowLayout@@YAXXZ@4_NA DB 01H DUP (?) ; `ShowDemoWindowLayout'::`165'::show_text_wrapped
	ALIGN	4

?show_child@?KF@??ShowDemoWindowLayout@@YAXXZ@4_NA DB 01H DUP (?) ; `ShowDemoWindowLayout'::`165'::show_child
	ALIGN	4

?explicit_content_size@?KF@??ShowDemoWindowLayout@@YAXXZ@4_NA DB 01H DUP (?) ; `ShowDemoWindowLayout'::`165'::explicit_content_size
	ALIGN	8

?size@?ND@??ShowDemoWindowLayout@@YAXXZ@4UImVec2@@A DQ 01H DUP (?) ; `ShowDemoWindowLayout'::`211'::size
?$TSS0@?ND@??ShowDemoWindowLayout@@YAXXZ@4HA DD 01H DUP (?) ; `ShowDemoWindowLayout'::`211'::$TSS0
	ALIGN	8

?offset@?ND@??ShowDemoWindowLayout@@YAXXZ@4UImVec2@@A DQ 01H DUP (?) ; `ShowDemoWindowLayout'::`211'::offset
?$TSS1@?ND@??ShowDemoWindowLayout@@YAXXZ@4HA DD 01H DUP (?) ; `ShowDemoWindowLayout'::`211'::$TSS1
?dont_ask_me_next_time@?EE@??ShowDemoWindowPopups@@YAXXZ@4_NA DB 01H DUP (?) ; `ShowDemoWindowPopups'::`68'::dont_ask_me_next_time
	ALIGN	4

?disable_indent@?1??ShowDemoWindowColumns@@YAXXZ@4_NA DB 01H DUP (?) ; `ShowDemoWindowColumns'::`2'::disable_indent
	ALIGN	4

?filter@?4??ShowDemoWindowMisc@@YAXXZ@4UImGuiTextFilter@@A DB 0110H DUP (?) ; `ShowDemoWindowMisc'::`5'::filter
?$TSS0@?4??ShowDemoWindowMisc@@YAXXZ@4HA DD 01H DUP (?)	; `ShowDemoWindowMisc'::`5'::$TSS0
?f3@?EF@??ShowDemoWindowMisc@@YAXXZ@4PAMA DD 03H DUP (?) ; `ShowDemoWindowMisc'::`69'::f3
?show_config_info@?1??ShowAboutWindow@ImGui@@YAXPA_N@Z@4_NA DB 01H DUP (?) ; `ImGui::ShowAboutWindow'::`2'::show_config_info
	ALIGN	4

?ref_saved_style@?1??ShowStyleEditor@ImGui@@YAXPAUImGuiStyle@@@Z@4U3@A DB 03b0H DUP (?) ; `ImGui::ShowStyleEditor'::`2'::ref_saved_style
?$TSS0@?1??ShowStyleEditor@ImGui@@YAXPAUImGuiStyle@@@Z@4HA DD 01H DUP (?) ; `ImGui::ShowStyleEditor'::`2'::$TSS0
?output_dest@?CC@??ShowStyleEditor@ImGui@@YAXPAUImGuiStyle@@@Z@4HA DD 01H DUP (?) ; `ImGui::ShowStyleEditor'::`34'::output_dest
?filter@?CC@??ShowStyleEditor@ImGui@@YAXPAUImGuiStyle@@@Z@4UImGuiTextFilter@@A DB 0110H DUP (?) ; `ImGui::ShowStyleEditor'::`34'::filter
?$TSS1@?CC@??ShowStyleEditor@ImGui@@YAXPAUImGuiStyle@@@Z@4HA DD 01H DUP (?) ; `ImGui::ShowStyleEditor'::`34'::$TSS1
?alpha_flags@?CC@??ShowStyleEditor@ImGui@@YAXPAUImGuiStyle@@@Z@4HA DD 01H DUP (?) ; `ImGui::ShowStyleEditor'::`34'::alpha_flags
?n@?BK@??ShowExampleMenuFile@@YAXXZ@4HA DD 01H DUP (?)	; `ShowExampleMenuFile'::`26'::n
?console@?1??ShowExampleAppConsole@@YAXPA_N@Z@4UExampleAppConsole@@A DB 023cH DUP (?) ; `ShowExampleAppConsole'::`2'::console
?$TSS0@?1??ShowExampleAppConsole@@YAXPA_N@Z@4HA DD 01H DUP (?) ; `ShowExampleAppConsole'::`2'::$TSS0
?log@?1??ShowExampleAppLog@@YAXPA_N@Z@4UExampleAppLog@@A DB 012cH DUP (?) ; `ShowExampleAppLog'::`2'::log
?$TSS0@?1??ShowExampleAppLog@@YAXPA_N@Z@4HA DD 01H DUP (?) ; `ShowExampleAppLog'::`2'::$TSS0
?counter@?4??ShowExampleAppLog@@YAXPA_N@Z@4HA DD 01H DUP (?) ; `ShowExampleAppLog'::`5'::counter
?selected@?4??ShowExampleAppLayout@@YAXPA_N@Z@4HA DD 01H DUP (?) ; `ShowExampleAppLayout'::`5'::selected
?test_type@?1??ShowExampleAppLongText@@YAXPA_N@Z@4HA DD 01H DUP (?) ; `ShowExampleAppLongText'::`2'::test_type
?log@?1??ShowExampleAppLongText@@YAXPA_N@Z@4UImGuiTextBuffer@@A DB 0cH DUP (?) ; `ShowExampleAppLongText'::`2'::log
?$TSS0@?1??ShowExampleAppLongText@@YAXPA_N@Z@4HA DD 01H DUP (?) ; `ShowExampleAppLongText'::`2'::$TSS0
?lines@?1??ShowExampleAppLongText@@YAXPA_N@Z@4HA DD 01H DUP (?) ; `ShowExampleAppLongText'::`2'::lines
?auto_resize@?1??ShowExampleAppConstrainedResize@@YAXPA_N@Z@4_NA DB 01H DUP (?) ; `ShowExampleAppConstrainedResize'::`2'::auto_resize
	ALIGN	4

?type@?1??ShowExampleAppConstrainedResize@@YAXPA_N@Z@4HA DD 01H DUP (?) ; `ShowExampleAppConstrainedResize'::`2'::type
?corner@?1??ShowExampleAppSimpleOverlay@@YAXPA_N@Z@4HA DD 01H DUP (?) ; `ShowExampleAppSimpleOverlay'::`2'::corner
?colf@?L@??ShowExampleAppCustomRendering@@YAXPA_N@Z@4UImVec4@@A DB 010H DUP (?) ; `ShowExampleAppCustomRendering'::`11'::colf
?$TSS0@?L@??ShowExampleAppCustomRendering@@YAXPA_N@Z@4HA DD 01H DUP (?) ; `ShowExampleAppCustomRendering'::`11'::$TSS0
?points@?BA@??ShowExampleAppCustomRendering@@YAXPA_N@Z@4U?$ImVector@UImVec2@@@@A DB 0cH DUP (?) ; `ShowExampleAppCustomRendering'::`16'::points
?$TSS1@?BA@??ShowExampleAppCustomRendering@@YAXPA_N@Z@4HA DD 01H DUP (?) ; `ShowExampleAppCustomRendering'::`16'::$TSS1
?adding_line@?BA@??ShowExampleAppCustomRendering@@YAXPA_N@Z@4_NA DB 01H DUP (?) ; `ShowExampleAppCustomRendering'::`16'::adding_line
	ALIGN	4

?app@?1??ShowExampleAppDocuments@@YAXPA_N@Z@4UExampleAppDocuments@@A DB 0cH DUP (?) ; `ShowExampleAppDocuments'::`2'::app
?$TSS0@?1??ShowExampleAppDocuments@@YAXPA_N@Z@4HA DD 01H DUP (?) ; `ShowExampleAppDocuments'::`2'::$TSS0
?close_queue@?1??ShowExampleAppDocuments@@YAXPA_N@Z@4U?$ImVector@PAUMyDocument@@@@A DB 0cH DUP (?) ; `ShowExampleAppDocuments'::`2'::close_queue
?$TSS1@?1??ShowExampleAppDocuments@@YAXPA_N@Z@4HA DD 01H DUP (?) ; `ShowExampleAppDocuments'::`2'::$TSS1
_BSS	ENDS
;	COMDAT __xmm@80000000800000008000000080000000
CONST	SEGMENT
__xmm@80000000800000008000000080000000 DB 00H, 00H, 00H, 080H, 00H, 00H, 00H
	DB	080H, 00H, 00H, 00H, 080H, 00H, 00H, 00H, 080H
CONST	ENDS
;	COMDAT __xmm@41f00000000000000000000000000000
CONST	SEGMENT
__xmm@41f00000000000000000000000000000 DB 00H, 00H, 00H, 00H, 00H, 00H, 00H
	DB	00H, 00H, 00H, 00H, 00H, 00H, 00H, 0f0H, 'A'
CONST	ENDS
;	COMDAT __real@d01502f9
CONST	SEGMENT
__real@d01502f9 DD 0d01502f9r			; -1e+10
CONST	ENDS
;	COMDAT __real@c3b40000
CONST	SEGMENT
__real@c3b40000 DD 0c3b40000r			; -360
CONST	ENDS
;	COMDAT __real@c3200000
CONST	SEGMENT
__real@c3200000 DD 0c3200000r			; -160
CONST	ENDS
;	COMDAT __real@c30c6bf526340000
CONST	SEGMENT
__real@c30c6bf526340000 DQ 0c30c6bf526340000r	; -1e+15
CONST	ENDS
;	COMDAT __real@c2c80000
CONST	SEGMENT
__real@c2c80000 DD 0c2c80000r			; -100
CONST	ENDS
;	COMDAT __real@c1a00000
CONST	SEGMENT
__real@c1a00000 DD 0c1a00000r			; -20
CONST	ENDS
;	COMDAT __real@c1400000
CONST	SEGMENT
__real@c1400000 DD 0c1400000r			; -12
CONST	ENDS
;	COMDAT __real@c1200000
CONST	SEGMENT
__real@c1200000 DD 0c1200000r			; -10
CONST	ENDS
;	COMDAT __real@bf800000
CONST	SEGMENT
__real@bf800000 DD 0bf800000r			; -1
CONST	ENDS
;	COMDAT __real@bdcccccd
CONST	SEGMENT
__real@bdcccccd DD 0bdcccccdr			; -0.1
CONST	ENDS
;	COMDAT __real@80800000
CONST	SEGMENT
__real@80800000 DD 080800000r			; -1.17549e-38
CONST	ENDS
;	COMDAT __real@7f7fffff
CONST	SEGMENT
__real@7f7fffff DD 07f7fffffr			; 3.40282e+38
CONST	ENDS
;	COMDAT __real@501502f9
CONST	SEGMENT
__real@501502f9 DD 0501502f9r			; 1e+10
CONST	ENDS
;	COMDAT __real@44db2000
CONST	SEGMENT
__real@44db2000 DD 044db2000r			; 1753
CONST	ENDS
;	COMDAT __real@44bb8000
CONST	SEGMENT
__real@44bb8000 DD 044bb8000r			; 1500
CONST	ENDS
;	COMDAT __real@447a0000
CONST	SEGMENT
__real@447a0000 DD 0447a0000r			; 1000
CONST	ENDS
;	COMDAT __real@44480000
CONST	SEGMENT
__real@44480000 DD 044480000r			; 800
CONST	ENDS
;	COMDAT __real@442a0000
CONST	SEGMENT
__real@442a0000 DD 0442a0000r			; 680
CONST	ENDS
;	COMDAT __real@44228000
CONST	SEGMENT
__real@44228000 DD 044228000r			; 650
CONST	ENDS
;	COMDAT __real@44160000
CONST	SEGMENT
__real@44160000 DD 044160000r			; 600
CONST	ENDS
;	COMDAT __real@44098000
CONST	SEGMENT
__real@44098000 DD 044098000r			; 550
CONST	ENDS
;	COMDAT __real@44020000
CONST	SEGMENT
__real@44020000 DD 044020000r			; 520
CONST	ENDS
;	COMDAT __real@43fa0000
CONST	SEGMENT
__real@43fa0000 DD 043fa0000r			; 500
CONST	ENDS
;	COMDAT __real@43e10000
CONST	SEGMENT
__real@43e10000 DD 043e10000r			; 450
CONST	ENDS
;	COMDAT __real@43dc0000
CONST	SEGMENT
__real@43dc0000 DD 043dc0000r			; 440
CONST	ENDS
;	COMDAT __real@43d70000
CONST	SEGMENT
__real@43d70000 DD 043d70000r			; 430
CONST	ENDS
;	COMDAT __real@43c80000
CONST	SEGMENT
__real@43c80000 DD 043c80000r			; 400
CONST	ENDS
;	COMDAT __real@43b40000
CONST	SEGMENT
__real@43b40000 DD 043b40000r			; 360
CONST	ENDS
;	COMDAT __real@43960000
CONST	SEGMENT
__real@43960000 DD 043960000r			; 300
CONST	ENDS
;	COMDAT __real@43820000
CONST	SEGMENT
__real@43820000 DD 043820000r			; 260
CONST	ENDS
;	COMDAT __real@43480000
CONST	SEGMENT
__real@43480000 DD 043480000r			; 200
CONST	ENDS
;	COMDAT __real@43340000
CONST	SEGMENT
__real@43340000 DD 043340000r			; 180
CONST	ENDS
;	COMDAT __real@43200000
CONST	SEGMENT
__real@43200000 DD 043200000r			; 160
CONST	ENDS
;	COMDAT __real@43160000
CONST	SEGMENT
__real@43160000 DD 043160000r			; 150
CONST	ENDS
;	COMDAT __real@430c6bf526340000
CONST	SEGMENT
__real@430c6bf526340000 DQ 0430c6bf526340000r	; 1e+15
CONST	ENDS
;	COMDAT __real@430c0000
CONST	SEGMENT
__real@430c0000 DD 0430c0000r			; 140
CONST	ENDS
;	COMDAT __real@42f00000
CONST	SEGMENT
__real@42f00000 DD 042f00000r			; 120
CONST	ENDS
;	COMDAT __real@42c80000
CONST	SEGMENT
__real@42c80000 DD 042c80000r			; 100
CONST	ENDS
;	COMDAT __real@42b40000
CONST	SEGMENT
__real@42b40000 DD 042b40000r			; 90
CONST	ENDS
;	COMDAT __real@42a00000
CONST	SEGMENT
__real@42a00000 DD 042a00000r			; 80
CONST	ENDS
;	COMDAT __real@42900000
CONST	SEGMENT
__real@42900000 DD 042900000r			; 72
CONST	ENDS
;	COMDAT __real@42700000
CONST	SEGMENT
__real@42700000 DD 042700000r			; 60
CONST	ENDS
;	COMDAT __real@42480000
CONST	SEGMENT
__real@42480000 DD 042480000r			; 50
CONST	ENDS
;	COMDAT __real@42200000
CONST	SEGMENT
__real@42200000 DD 042200000r			; 40
CONST	ENDS
;	COMDAT __real@420c0000
CONST	SEGMENT
__real@420c0000 DD 0420c0000r			; 35
CONST	ENDS
;	COMDAT __real@42000000
CONST	SEGMENT
__real@42000000 DD 042000000r			; 32
CONST	ENDS
;	COMDAT __real@41f80000
CONST	SEGMENT
__real@41f80000 DD 041f80000r			; 31
CONST	ENDS
;	COMDAT __real@41f00000
CONST	SEGMENT
__real@41f00000 DD 041f00000r			; 30
CONST	ENDS
;	COMDAT __real@41a00000
CONST	SEGMENT
__real@41a00000 DD 041a00000r			; 20
CONST	ENDS
;	COMDAT __real@41900000
CONST	SEGMENT
__real@41900000 DD 041900000r			; 18
CONST	ENDS
;	COMDAT __real@41800000
CONST	SEGMENT
__real@41800000 DD 041800000r			; 16
CONST	ENDS
;	COMDAT __real@41600000
CONST	SEGMENT
__real@41600000 DD 041600000r			; 14
CONST	ENDS
;	COMDAT __real@41400000
CONST	SEGMENT
__real@41400000 DD 041400000r			; 12
CONST	ENDS
;	COMDAT __real@41200000
CONST	SEGMENT
__real@41200000 DD 041200000r			; 10
CONST	ENDS
;	COMDAT __real@411ccccd
CONST	SEGMENT
__real@411ccccd DD 0411ccccdr			; 9.8
CONST	ENDS
;	COMDAT __real@41000000
CONST	SEGMENT
__real@41000000 DD 041000000r			; 8
CONST	ENDS
;	COMDAT __real@40e00000
CONST	SEGMENT
__real@40e00000 DD 040e00000r			; 7
CONST	ENDS
;	COMDAT __real@40a00000
CONST	SEGMENT
__real@40a00000 DD 040a00000r			; 5
CONST	ENDS
;	COMDAT __real@40800000
CONST	SEGMENT
__real@40800000 DD 040800000r			; 4
CONST	ENDS
;	COMDAT __real@40490e56
CONST	SEGMENT
__real@40490e56 DD 040490e56r			; 3.1415
CONST	ENDS
;	COMDAT __real@40400000
CONST	SEGMENT
__real@40400000 DD 040400000r			; 3
CONST	ENDS
;	COMDAT __real@40000000
CONST	SEGMENT
__real@40000000 DD 040000000r			; 2
CONST	ENDS
;	COMDAT __real@3ff0000000000000
CONST	SEGMENT
__real@3ff0000000000000 DQ 03ff0000000000000r	; 1
CONST	ENDS
;	COMDAT __real@3fd0000000000000
CONST	SEGMENT
__real@3fd0000000000000 DQ 03fd0000000000000r	; 0.25
CONST	ENDS
;	COMDAT __real@3fa66666
CONST	SEGMENT
__real@3fa66666 DD 03fa66666r			; 1.3
CONST	ENDS
;	COMDAT __real@3f91111120000000
CONST	SEGMENT
__real@3f91111120000000 DQ 03f91111120000000r	; 0.0166667
CONST	ENDS
;	COMDAT __real@3f8ccccd
CONST	SEGMENT
__real@3f8ccccd DD 03f8ccccdr			; 1.1
CONST	ENDS
;	COMDAT __real@3f847ae140000000
CONST	SEGMENT
__real@3f847ae140000000 DQ 03f847ae140000000r	; 0.01
CONST	ENDS
;	COMDAT __real@3f800000
CONST	SEGMENT
__real@3f800000 DD 03f800000r			; 1
CONST	ENDS
;	COMDAT __real@3f666666
CONST	SEGMENT
__real@3f666666 DD 03f666666r			; 0.9
CONST	ENDS
;	COMDAT __real@3f4ccccd
CONST	SEGMENT
__real@3f4ccccd DD 03f4ccccdr			; 0.8
CONST	ENDS
;	COMDAT __real@3f48c8c9
CONST	SEGMENT
__real@3f48c8c9 DD 03f48c8c9r			; 0.784314
CONST	ENDS
;	COMDAT __real@3f333333
CONST	SEGMENT
__real@3f333333 DD 03f333333r			; 0.7
CONST	ENDS
;	COMDAT __real@3f1a9a9b
CONST	SEGMENT
__real@3f1a9a9b DD 03f1a9a9br			; 0.603922
CONST	ENDS
;	COMDAT __real@3f19999a
CONST	SEGMENT
__real@3f19999a DD 03f19999ar			; 0.6
CONST	ENDS
;	COMDAT __real@3f109091
CONST	SEGMENT
__real@3f109091 DD 03f109091r			; 0.564706
CONST	ENDS
;	COMDAT __real@3f000000
CONST	SEGMENT
__real@3f000000 DD 03f000000r			; 0.5
CONST	ENDS
;	COMDAT __real@3ee4e4e5
CONST	SEGMENT
__real@3ee4e4e5 DD 03ee4e4e5r			; 0.447059
CONST	ENDS
;	COMDAT __real@3ecccccd
CONST	SEGMENT
__real@3ecccccd DD 03ecccccdr			; 0.4
CONST	ENDS
;	COMDAT __real@3eb33333
CONST	SEGMENT
__real@3eb33333 DD 03eb33333r			; 0.35
CONST	ENDS
;	COMDAT __real@3e99999a
CONST	SEGMENT
__real@3e99999a DD 03e99999ar			; 0.3
CONST	ENDS
;	COMDAT __real@3e800000
CONST	SEGMENT
__real@3e800000 DD 03e800000r			; 0.25
CONST	ENDS
;	COMDAT __real@3e6b851f
CONST	SEGMENT
__real@3e6b851f DD 03e6b851fr			; 0.23
CONST	ENDS
;	COMDAT __real@3e4ccccd
CONST	SEGMENT
__real@3e4ccccd DD 03e4ccccdr			; 0.2
CONST	ENDS
;	COMDAT __real@3dcccccd
CONST	SEGMENT
__real@3dcccccd DD 03dcccccdr			; 0.1
CONST	ENDS
;	COMDAT __real@3d4ccccd
CONST	SEGMENT
__real@3d4ccccd DD 03d4ccccdr			; 0.05
CONST	ENDS
;	COMDAT __real@3ca3d70a
CONST	SEGMENT
__real@3ca3d70a DD 03ca3d70ar			; 0.02
CONST	ENDS
;	COMDAT __real@3c23d70a
CONST	SEGMENT
__real@3c23d70a DD 03c23d70ar			; 0.01
CONST	ENDS
;	COMDAT __real@3ba3d70a
CONST	SEGMENT
__real@3ba3d70a DD 03ba3d70ar			; 0.005
CONST	ENDS
;	COMDAT __real@3a03126f
CONST	SEGMENT
__real@3a03126f DD 03a03126fr			; 0.0005
CONST	ENDS
;	COMDAT __real@38d1b717
CONST	SEGMENT
__real@38d1b717 DD 038d1b717r			; 0.0001
CONST	ENDS
;	COMDAT __real@0000000000000000
CONST	SEGMENT
__real@0000000000000000 DQ 00000000000000000r	; 0
CONST	ENDS
;	COMDAT __real@00000000
CONST	SEGMENT
__real@00000000 DD 000000000r			; 0
CONST	ENDS
;	COMDAT rtc$TMZ
rtc$TMZ	SEGMENT
__RTC_Shutdown.rtc$TMZ DD FLAT:__RTC_Shutdown
rtc$TMZ	ENDS
;	COMDAT rtc$IMZ
rtc$IMZ	SEGMENT
__RTC_InitBase.rtc$IMZ DD FLAT:__RTC_InitBase
rtc$IMZ	ENDS
;	COMDAT ??_C@_1BC@KCECIPDP@?$AAS?$AAi?$AAz?$AAe?$AA?5?$AA?$DO?$AA?5?$AA0@
CONST	SEGMENT
??_C@_1BC@KCECIPDP@?$AAS?$AAi?$AAz?$AAe?$AA?5?$AA?$DO?$AA?5?$AA0@ DB 'S', 00H
	DB	'i', 00H, 'z', 00H, 'e', 00H, ' ', 00H, '>', 00H, ' ', 00H, '0'
	DB	00H, 00H, 00H				; `string'
CONST	ENDS
;	COMDAT ??_C@_1DK@JJGEFOJO@?$AAi?$AAt?$AA?5?$AA?$DO?$AA?$DN?$AA?5?$AAD?$AAa?$AAt?$AAa?$AA?5?$AA?$CG?$AA?$CG?$AA?5?$AAi@
CONST	SEGMENT
??_C@_1DK@JJGEFOJO@?$AAi?$AAt?$AA?5?$AA?$DO?$AA?$DN?$AA?5?$AAD?$AAa?$AAt?$AAa?$AA?5?$AA?$CG?$AA?$CG?$AA?5?$AAi@ DB 'i'
	DB	00H, 't', 00H, ' ', 00H, '>', 00H, '=', 00H, ' ', 00H, 'D', 00H
	DB	'a', 00H, 't', 00H, 'a', 00H, ' ', 00H, '&', 00H, '&', 00H, ' '
	DB	00H, 'i', 00H, 't', 00H, ' ', 00H, '<', 00H, ' ', 00H, 'D', 00H
	DB	'a', 00H, 't', 00H, 'a', 00H, '+', 00H, 'S', 00H, 'i', 00H, 'z'
	DB	00H, 'e', 00H, 00H, 00H			; `string'
CONST	ENDS
;	COMDAT ??_C@_1BC@DCMHDKFO@?$AAi?$AA?5?$AA?$DM?$AA?5?$AAS?$AAi?$AAz?$AAe@
CONST	SEGMENT
??_C@_1BC@DCMHDKFO@?$AAi?$AA?5?$AA?$DM?$AA?5?$AAS?$AAi?$AAz?$AAe@ DB 'i', 00H
	DB	' ', 00H, '<', 00H, ' ', 00H, 'S', 00H, 'i', 00H, 'z', 00H, 'e'
	DB	00H, 00H, 00H				; `string'
CONST	ENDS
;	COMDAT ??_C@_02JINPPBEP@No@
CONST	SEGMENT
??_C@_02JINPPBEP@No@ DB 'No', 00H			; `string'
CONST	ENDS
;	COMDAT ??_C@_03CCLAEDDF@Yes@
CONST	SEGMENT
??_C@_03CCLAEDDF@Yes@ DB 'Yes', 00H			; `string'
CONST	ENDS
;	COMDAT ??_C@_02IEBMKJDF@?$CD?$CD@
CONST	SEGMENT
??_C@_02IEBMKJDF@?$CD?$CD@ DB '##', 00H			; `string'
CONST	ENDS
;	COMDAT ??_C@_0CE@FLCNDGLJ@Save?5change?5to?5the?5following?5it@
CONST	SEGMENT
??_C@_0CE@FLCNDGLJ@Save?5change?5to?5the?5following?5it@ DB 'Save change '
	DB	'to the following items?', 00H		; `string'
CONST	ENDS
;	COMDAT ??_C@_05DIODKGEP@Save?$DP@
CONST	SEGMENT
??_C@_05DIODKGEP@Save?$DP@ DB 'Save?', 00H		; `string'
CONST	ENDS
;	COMDAT ??_C@_04LBABLPF@Exit@
CONST	SEGMENT
??_C@_04LBABLPF@Exit@ DB 'Exit', 00H			; `string'
CONST	ENDS
;	COMDAT ??_C@_0BE@HCFGHAAC@Close?5All?5Documents@
CONST	SEGMENT
??_C@_0BE@HCFGHAAC@Close?5All?5Documents@ DB 'Close All Documents', 00H ; `string'
CONST	ENDS
;	COMDAT ??_C@_0BD@BKDKPNMJ@Example?3?5Documents@
CONST	SEGMENT
??_C@_0BD@BKDKPNMJ@Example?3?5Documents@ DB 'Example: Documents', 00H ; `string'
CONST	ENDS
;	COMDAT ??_C@_0O@ILMKPHFK@Some?5Document@
CONST	SEGMENT
??_C@_0O@ILMKPHFK@Some?5Document@ DB 'Some Document', 00H ; `string'
CONST	ENDS
;	COMDAT ??_C@_0BE@GMCEAMGE@A?5Rather?5Long?5Title@
CONST	SEGMENT
??_C@_0BE@GMCEAMGE@A?5Rather?5Long?5Title@ DB 'A Rather Long Title', 00H ; `string'
CONST	ENDS
;	COMDAT ??_C@_06BPAOMENE@Tomato@
CONST	SEGMENT
??_C@_06BPAOMENE@Tomato@ DB 'Tomato', 00H		; `string'
CONST	ENDS
;	COMDAT ??_C@_06JOCEHIMN@Carrot@
CONST	SEGMENT
??_C@_06JOCEHIMN@Carrot@ DB 'Carrot', 00H		; `string'
CONST	ENDS
;	COMDAT ??_C@_08MEKMCLOD@Eggplant@
CONST	SEGMENT
??_C@_08MEKMCLOD@Eggplant@ DB 'Eggplant', 00H		; `string'
CONST	ENDS
;	COMDAT ??_C@_07KPHKCHJL@Lettuce@
CONST	SEGMENT
??_C@_07KPHKCHJL@Lettuce@ DB 'Lettuce', 00H		; `string'
CONST	ENDS
;	COMDAT ??_C@_06NCJMBMDI@CTRL?$CLW@
CONST	SEGMENT
??_C@_06NCJMBMDI@CTRL?$CLW@ DB 'CTRL+W', 00H		; `string'
CONST	ENDS
;	COMDAT ??_C@_06LGPANJDM@CTRL?$CLS@
CONST	SEGMENT
??_C@_06LGPANJDM@CTRL?$CLS@ DB 'CTRL+S', 00H		; `string'
CONST	ENDS
;	COMDAT ??_C@_07HKLKIEAD@Save?5?$CFs@
CONST	SEGMENT
??_C@_07HKLKIEAD@Save?5?$CFs@ DB 'Save %s', 00H		; `string'
CONST	ENDS
;	COMDAT ??_C@_06CGNGJFJO@Modify@
CONST	SEGMENT
??_C@_06CGNGJFJO@Modify@ DB 'Modify', 00H		; `string'
CONST	ENDS
;	COMDAT ??_C@_0HM@PALHCHMO@Lorem?5ipsum?5dolor?5sit?5amet?0?5con@
CONST	SEGMENT
??_C@_0HM@PALHCHMO@Lorem?5ipsum?5dolor?5sit?5amet?0?5con@ DB 'Lorem ipsum'
	DB	' dolor sit amet, consectetur adipiscing elit, sed do eiusmod '
	DB	'tempor incididunt ut labore et dolore magna aliqua.', 00H ; `string'
CONST	ENDS
;	COMDAT ??_C@_0O@LKIEAKBN@Document?5?$CC?$CFs?$CC@
CONST	SEGMENT
??_C@_0O@LKIEAKBN@Document?5?$CC?$CFs?$CC@ DB 'Document "%s"', 00H ; `string'
CONST	ENDS
;	COMDAT ??_C@_0EJ@MJHHHC@The?5Foreground?5draw?5list?5will?5b@
CONST	SEGMENT
??_C@_0EJ@MJHHHC@The?5Foreground?5draw?5list?5will?5b@ DB 'The Foreground'
	DB	' draw list will be rendered over every Dear ImGui windows.', 00H ; `string'
CONST	ENDS
;	COMDAT ??_C@_0BN@MBHOHPNH@Draw?5in?5Foreground?5draw?5list@
CONST	SEGMENT
??_C@_0BN@MBHOHPNH@Draw?5in?5Foreground?5draw?5list@ DB 'Draw in Foregrou'
	DB	'nd draw list', 00H				; `string'
CONST	ENDS
;	COMDAT ??_C@_0EK@HADEKICD@The?5Background?5draw?5list?5will?5b@
CONST	SEGMENT
??_C@_0EK@HADEKICD@The?5Background?5draw?5list?5will?5b@ DB 'The Backgrou'
	DB	'nd draw list will be rendered below every Dear ImGui windows.'
	DB	00H						; `string'
CONST	ENDS
;	COMDAT ??_C@_0BN@BHPCJJNA@Draw?5in?5Background?5draw?5list@
CONST	SEGMENT
??_C@_0BN@BHPCJJNA@Draw?5in?5Background?5draw?5list@ DB 'Draw in Backgrou'
	DB	'nd draw list', 00H				; `string'
CONST	ENDS
;	COMDAT ??_C@_0BB@CEOBEDIK@BG?1FG?5draw?5lists@
CONST	SEGMENT
??_C@_0BB@CEOBEDIK@BG?1FG?5draw?5lists@ DB 'BG/FG draw lists', 00H ; `string'
CONST	ENDS
;	COMDAT ??_C@_06DODEBHEI@canvas@
CONST	SEGMENT
??_C@_06DODEBHEI@canvas@ DB 'canvas', 00H		; `string'
CONST	ENDS
;	COMDAT ??_C@_0DG@KLKDBFIL@Left?9click?5and?5drag?5to?5add?5line@
CONST	SEGMENT
??_C@_0DG@KLKDBFIL@Left?9click?5and?5drag?5to?5add?5line@ DB 'Left-click '
	DB	'and drag to add lines,', 0aH, 'Right-click to undo', 00H ; `string'
CONST	ENDS
;	COMDAT ??_C@_06PBIJCONE@Canvas@
CONST	SEGMENT
??_C@_06PBIJCONE@Canvas@ DB 'Canvas', 00H		; `string'
CONST	ENDS
;	COMDAT ??_C@_05PDOBBJNA@Color@
CONST	SEGMENT
??_C@_05PDOBBJNA@Color@ DB 'Color', 00H			; `string'
CONST	ENDS
;	COMDAT ??_C@_0M@FFKCLHMG@n?9gon?5sides@
CONST	SEGMENT
??_C@_0M@FFKCLHMG@n?9gon?5sides@ DB 'n-gon sides', 00H	; `string'
CONST	ENDS
;	COMDAT ??_C@_09CEKHLCFH@Thickness@
CONST	SEGMENT
??_C@_09CEKHLCFH@Thickness@ DB 'Thickness', 00H		; `string'
CONST	ENDS
;	COMDAT ??_C@_05IDMOFOMC@?$CF?402f@
CONST	SEGMENT
??_C@_05IDMOFOMC@?$CF?402f@ DB '%.02f', 00H		; `string'
CONST	ENDS
;	COMDAT ??_C@_04EBKMHHBE@Size@
CONST	SEGMENT
??_C@_04EBKMHHBE@Size@ DB 'Size', 00H			; `string'
CONST	ENDS
;	COMDAT ??_C@_0L@LLLBMLGE@Primitives@
CONST	SEGMENT
??_C@_0L@LLLBMLGE@Primitives@ DB 'Primitives', 00H	; `string'
CONST	ENDS
;	COMDAT ??_C@_08EHLCCPCB@?$CD?$CDTabBar@
CONST	SEGMENT
??_C@_08EHLCCPCB@?$CD?$CDTabBar@ DB '##TabBar', 00H	; `string'
CONST	ENDS
;	COMDAT ??_C@_0BK@LABFKPJJ@Example?3?5Custom?5rendering@
CONST	SEGMENT
??_C@_0BK@LABFKPJJ@Example?3?5Custom?5rendering@ DB 'Example: Custom rend'
	DB	'ering', 00H					; `string'
CONST	ENDS
;	COMDAT ??_C@_0CC@JFOMGEPF@This?5window?5has?5a?5changing?5titl@
CONST	SEGMENT
??_C@_0CC@JFOMGEPF@This?5window?5has?5a?5changing?5titl@ DB 'This window '
	DB	'has a changing title.', 00H			; `string'
CONST	ENDS
;	COMDAT ??_C@_0CF@MMFFJKJN@Animated?5title?5?$CFc?5?$CFd?$CD?$CD?$CDAnimated@
CONST	SEGMENT
??_C@_0CF@MMFFJKJN@Animated?5title?5?$CFc?5?$CFd?$CD?$CD?$CDAnimated@ DB 'A'
	DB	'nimated title %c %d###AnimatedTitle', 00H	; `string'
CONST	ENDS
;	COMDAT ??_C@_04NLDFHNKP@?$HM?1?9?2@
CONST	SEGMENT
??_C@_04NLDFHNKP@?$HM?1?9?2@ DB '|/-\', 00H		; `string'
CONST	ENDS
;	COMDAT ??_C@_0FB@MFIDPLFC@This?5is?5window?52?4?6My?5title?5is?5t@
CONST	SEGMENT
??_C@_0FB@MFIDPLFC@This?5is?5window?52?4?6My?5title?5is?5t@ DB 'This is w'
	DB	'indow 2.', 0aH, 'My title is the same as window 1, but my ide'
	DB	'ntifier is unique.', 00H			; `string'
CONST	ENDS
;	COMDAT ??_C@_0CA@DIMGPEBG@Same?5title?5as?5another?5window?$CD?$CD2@
CONST	SEGMENT
??_C@_0CA@DIMGPEBG@Same?5title?5as?5another?5window?$CD?$CD2@ DB 'Same ti'
	DB	'tle as another window##2', 00H		; `string'
CONST	ENDS
;	COMDAT ??_C@_0FB@NGKGAEMM@This?5is?5window?51?4?6My?5title?5is?5t@
CONST	SEGMENT
??_C@_0FB@NGKGAEMM@This?5is?5window?51?4?6My?5title?5is?5t@ DB 'This is w'
	DB	'indow 1.', 0aH, 'My title is the same as window 2, but my ide'
	DB	'ntifier is unique.', 00H			; `string'
CONST	ENDS
;	COMDAT ??_C@_0CA@BDOLKHNF@Same?5title?5as?5another?5window?$CD?$CD1@
CONST	SEGMENT
??_C@_0CA@BDOLKHNF@Same?5title?5as?5another?5window?$CD?$CD1@ DB 'Same ti'
	DB	'tle as another window##1', 00H		; `string'
CONST	ENDS
;	COMDAT ??_C@_0N@NJDFJJBC@Bottom?9right@
CONST	SEGMENT
??_C@_0N@NJDFJJBC@Bottom?9right@ DB 'Bottom-right', 00H	; `string'
CONST	ENDS
;	COMDAT ??_C@_0M@MGBINKPN@Bottom?9left@
CONST	SEGMENT
??_C@_0M@MGBINKPN@Bottom?9left@ DB 'Bottom-left', 00H	; `string'
CONST	ENDS
;	COMDAT ??_C@_09FEMEGGCE@Top?9right@
CONST	SEGMENT
??_C@_09FEMEGGCE@Top?9right@ DB 'Top-right', 00H	; `string'
CONST	ENDS
;	COMDAT ??_C@_08DPOKBJOC@Top?9left@
CONST	SEGMENT
??_C@_08DPOKBJOC@Top?9left@ DB 'Top-left', 00H		; `string'
CONST	ENDS
;	COMDAT ??_C@_06IFGIOHDE@Custom@
CONST	SEGMENT
??_C@_06IFGIOHDE@Custom@ DB 'Custom', 00H		; `string'
CONST	ENDS
;	COMDAT ??_C@_0BK@POIHMAKN@Mouse?5Position?3?5?$DMinvalid?$DO@
CONST	SEGMENT
??_C@_0BK@POIHMAKN@Mouse?5Position?3?5?$DMinvalid?$DO@ DB 'Mouse Position'
	DB	': <invalid>', 00H				; `string'
CONST	ENDS
;	COMDAT ??_C@_0BM@DKAAEOG@Mouse?5Position?3?5?$CI?$CF?41f?0?$CF?41f?$CJ@
CONST	SEGMENT
??_C@_0BM@DKAAEOG@Mouse?5Position?3?5?$CI?$CF?41f?0?$CF?41f?$CJ@ DB 'Mous'
	DB	'e Position: (%.1f,%.1f)', 00H		; `string'
CONST	ENDS
;	COMDAT ??_C@_0EN@GGFBFCLD@Simple?5overlay?6in?5the?5corner?5of@
CONST	SEGMENT
??_C@_0EN@GGFBFCLD@Simple?5overlay?6in?5the?5corner?5of@ DB 'Simple overl'
	DB	'ay', 0aH, 'in the corner of the screen.', 0aH, '(right-click '
	DB	'to change position)', 00H			; `string'
CONST	ENDS
;	COMDAT ??_C@_0BI@PFDIHNNE@Example?3?5Simple?5overlay@
CONST	SEGMENT
??_C@_0BI@PFDIHNNE@Example?3?5Simple?5overlay@ DB 'Example: Simple overla'
	DB	'y', 00H					; `string'
CONST	ENDS
;	COMDAT ??_C@_0EA@CCNBDEKJ@?$CF?$CKsHello?0?5sailor?$CB?5Making?5this?5l@
CONST	SEGMENT
??_C@_0EA@CCNBDEKJ@?$CF?$CKsHello?0?5sailor?$CB?5Making?5this?5l@ DB '%*s'
	DB	'Hello, sailor! Making this line long enough for the example.', 00H ; `string'
CONST	ENDS
;	COMDAT ??_C@_0M@CEOMCPLH@Auto?9resize@
CONST	SEGMENT
??_C@_0M@CEOMCPLH@Auto?9resize@ DB 'Auto-resize', 00H	; `string'
CONST	ENDS
;	COMDAT ??_C@_0L@PIOLEGBL@Constraint@
CONST	SEGMENT
??_C@_0L@PIOLEGBL@Constraint@ DB 'Constraint', 00H	; `string'
CONST	ENDS
;	COMDAT ??_C@_07IEBICOG@800x200@
CONST	SEGMENT
??_C@_07IEBICOG@800x200@ DB '800x200', 00H		; `string'
CONST	ENDS
;	COMDAT ??_C@_07OJDKPIO@500x500@
CONST	SEGMENT
??_C@_07OJDKPIO@500x500@ DB '500x500', 00H		; `string'
CONST	ENDS
;	COMDAT ??_C@_07JJIBJOCO@200x200@
CONST	SEGMENT
??_C@_07JJIBJOCO@200x200@ DB '200x200', 00H		; `string'
CONST	ENDS
;	COMDAT ??_C@_0BK@NJBCHMME@Custom?3?5Fixed?5Steps?5?$CI100?$CJ@
CONST	SEGMENT
??_C@_0BK@NJBCHMME@Custom?3?5Fixed?5Steps?5?$CI100?$CJ@ DB 'Custom: Fixed'
	DB	' Steps (100)', 00H				; `string'
CONST	ENDS
;	COMDAT ??_C@_0BG@JBCFEINF@Custom?3?5Always?5Square@
CONST	SEGMENT
??_C@_0BG@JBCFEINF@Custom?3?5Always?5Square@ DB 'Custom: Always Square', 00H ; `string'
CONST	ENDS
;	COMDAT ??_C@_0P@MPNPOAJG@Height?5400?9500@
CONST	SEGMENT
??_C@_0P@MPNPOAJG@Height?5400?9500@ DB 'Height 400-500', 00H ; `string'
CONST	ENDS
;	COMDAT ??_C@_0O@GIJNEIMP@Width?5400?9500@
CONST	SEGMENT
??_C@_0O@GIJNEIMP@Width?5400?9500@ DB 'Width 400-500', 00H ; `string'
CONST	ENDS
;	COMDAT ??_C@_0BK@CNAJDBBL@Width?5?$DO?5100?0?5Height?5?$DO?5100@
CONST	SEGMENT
??_C@_0BK@CNAJDBBL@Width?5?$DO?5100?0?5Height?5?$DO?5100@ DB 'Width > 100'
	DB	', Height > 100', 00H			; `string'
CONST	ENDS
;	COMDAT ??_C@_0BH@FIOIJIGG@Resize?5horizontal?5only@
CONST	SEGMENT
??_C@_0BH@FIOIJIGG@Resize?5horizontal?5only@ DB 'Resize horizontal only', 00H ; `string'
CONST	ENDS
;	COMDAT ??_C@_0BF@FPBGOCLL@Resize?5vertical?5only@
CONST	SEGMENT
??_C@_0BF@FPBGOCLL@Resize?5vertical?5only@ DB 'Resize vertical only', 00H ; `string'
CONST	ENDS
;	COMDAT ??_C@_0BM@KOHLMLPM@Example?3?5Constrained?5Resize@
CONST	SEGMENT
??_C@_0BM@KOHLMLPM@Example?3?5Constrained?5Resize@ DB 'Example: Constrain'
	DB	'ed Resize', 00H				; `string'
CONST	ENDS
;	COMDAT ??_C@_0BD@DIDKCIOM@?$CF?$CKsThis?5is?5line?5?$CFd@
CONST	SEGMENT
??_C@_0BD@DIDKCIOM@?$CF?$CKsThis?5is?5line?5?$CFd@ DB '%*sThis is line %d'
	DB	00H						; `string'
CONST	ENDS
;	COMDAT ??_C@_0BA@EAJBEEH@Number?5of?5lines@
CONST	SEGMENT
??_C@_0BA@EAJBEEH@Number?5of?5lines@ DB 'Number of lines', 00H ; `string'
CONST	ENDS
;	COMDAT ??_C@_0LI@CEDCIBKO@Window?5will?5resize?5every?9frame?5@
CONST	SEGMENT
??_C@_0LI@CEDCIBKO@Window?5will?5resize?5every?9frame?5@ DB 'Window will '
	DB	'resize every-frame to the size of its content.', 0aH, 'Note t'
	DB	'hat you probably don''t want to query the window size to', 0aH
	DB	'output your content because that would create a feedback loop'
	DB	'.', 00H					; `string'
CONST	ENDS
;	COMDAT ??_C@_0BO@BJFILJPF@Example?3?5Auto?9resizing?5window@
CONST	SEGMENT
??_C@_0BO@BJFILJPF@Example?3?5Auto?9resizing?5window@ DB 'Example: Auto-r'
	DB	'esizing window', 00H			; `string'
CONST	ENDS
;	COMDAT ??_C@_0CP@NEDCKJAF@?$CFi?5The?5quick?5brown?5fox?5jumps?5ov@
CONST	SEGMENT
??_C@_0CP@NEDCKJAF@?$CFi?5The?5quick?5brown?5fox?5jumps?5ov@ DB '%i The q'
	DB	'uick brown fox jumps over the lazy dog', 00H ; `string'
CONST	ENDS
;	COMDAT ??_C@_0DA@IKFBCOKM@?$CFi?5The?5quick?5brown?5fox?5jumps?5ov@
CONST	SEGMENT
??_C@_0DA@IKFBCOKM@?$CFi?5The?5quick?5brown?5fox?5jumps?5ov@ DB '%i The q'
	DB	'uick brown fox jumps over the lazy dog', 0aH, 00H ; `string'
CONST	ENDS
;	COMDAT ??_C@_0P@IHJDPCIL@Add?51000?5lines@
CONST	SEGMENT
??_C@_0P@IHJDPCIL@Add?51000?5lines@ DB 'Add 1000 lines', 00H ; `string'
CONST	ENDS
;	COMDAT ??_C@_0CE@MABLKLGB@Buffer?5contents?3?5?$CFd?5lines?0?5?$CFd?5b@
CONST	SEGMENT
??_C@_0CE@MABLKLGB@Buffer?5contents?3?5?$CFd?5lines?0?5?$CFd?5b@ DB 'Buff'
	DB	'er contents: %d lines, %d bytes', 00H	; `string'
CONST	ENDS
;	COMDAT ??_C@_09NBDEEMIG@Test?5type@
CONST	SEGMENT
??_C@_09NBDEEMIG@Test?5type@ DB 'Test type', 00H	; `string'
CONST	ENDS
;	COMDAT ??_C@_0HB@DAOOCDLA@Single?5call?5to?5TextUnformatted?$CI@
CONST	SEGMENT
??_C@_0HB@DAOOCDLA@Single?5call?5to?5TextUnformatted?$CI@ DB 'Single call'
	DB	' to TextUnformatted()', 00H, 'Multiple calls to Text(), clipp'
	DB	'ed', 00H, 'Multiple calls to Text(), not clipped (slow)', 00H
	DB	00H						; `string'
CONST	ENDS
;	COMDAT ??_C@_0CI@JCGLFKAA@Printing?5unusually?5long?5amount?5@
CONST	SEGMENT
??_C@_0CI@JCGLFKAA@Printing?5unusually?5long?5amount?5@ DB 'Printing unus'
	DB	'ually long amount of text.', 00H		; `string'
CONST	ENDS
;	COMDAT ??_C@_0BL@GBIKCKEE@Example?3?5Long?5text?5display@
CONST	SEGMENT
??_C@_0BL@GBIKCKEE@Example?3?5Long?5text?5display@ DB 'Example: Long text'
	DB	' display', 00H				; `string'
CONST	ENDS
;	COMDAT ??_C@_0BAG@IGIKGKDA@This?5example?5shows?5how?5you?5may?5@
CONST	SEGMENT
??_C@_0BAG@IGIKGKDA@This?5example?5shows?5how?5you?5may?5@ DB 'This examp'
	DB	'le shows how you may implement a property editor using two co'
	DB	'lumns.', 0aH, 'All objects/fields data are dummies here.', 0aH
	DB	'Remember that in many simple cases, you can use ImGui::SameLi'
	DB	'ne(xxx) to position', 0aH, 'your cursor horizontally instead '
	DB	'of using the Columns() API.', 00H		; `string'
CONST	ENDS
;	COMDAT ??_C@_0BJ@EKHJGGOC@Example?3?5Property?5editor@
CONST	SEGMENT
??_C@_0BJ@EKHJGGOC@Example?3?5Property?5editor@ DB 'Example: Property edi'
	DB	'tor', 00H					; `string'
CONST	ENDS
;	COMDAT ??_C@_07FBBIKLOB@?$CD?$CDvalue@
CONST	SEGMENT
??_C@_07FBBIKLOB@?$CD?$CDvalue@ DB '##value', 00H	; `string'
CONST	ENDS
;	COMDAT ??_C@_05EPLKDJMH@Field@
CONST	SEGMENT
??_C@_05EPLKDJMH@Field@ DB 'Field', 00H			; `string'
CONST	ENDS
;	COMDAT ??_C@_08BNKJGCPO@Field_?$CFd@
CONST	SEGMENT
??_C@_08BNKJGCPO@Field_?$CFd@ DB 'Field_%d', 00H	; `string'
CONST	ENDS
;	COMDAT ??_C@_0BC@LIBEHHHH@my?5sailor?5is?5rich@
CONST	SEGMENT
??_C@_0BC@LIBEHHHH@my?5sailor?5is?5rich@ DB 'my sailor is rich', 00H ; `string'
CONST	ENDS
;	COMDAT ??_C@_06ELFECKBG@Object@
CONST	SEGMENT
??_C@_06ELFECKBG@Object@ DB 'Object', 00H		; `string'
CONST	ENDS
;	COMDAT ??_C@_05FIIOEGIK@?$CFs_?$CFu@
CONST	SEGMENT
??_C@_05FIIOEGIK@?$CFs_?$CFu@ DB '%s_%u', 00H		; `string'
CONST	ENDS
;	COMDAT ?dummy_members@?4??ShowDummyObject@funcs@?1??ShowExampleAppPropertyEditor@@YAXPA_N@Z@SAXPBDH@Z@4PAMA
_DATA	SEGMENT
?dummy_members@?4??ShowDummyObject@funcs@?1??ShowExampleAppPropertyEditor@@YAXPA_N@Z@SAXPBDH@Z@4PAMA DD 000000000r ; 0 ; ``ShowExampleAppPropertyEditor'::`2'::funcs::ShowDummyObject'::`5'::dummy_members
	DD	000000000r			; 0
	DD	03f800000r			; 1
	DD	040490ff9r			; 3.1416
	DD	042c80000r			; 100
	DD	04479c000r			; 999
	ORG $+8
_DATA	ENDS
;	COMDAT ??_C@_0P@CCIDAFDC@ID?3?50123456789@
CONST	SEGMENT
??_C@_0P@CCIDAFDC@ID?3?50123456789@ DB 'ID: 0123456789', 00H ; `string'
CONST	ENDS
;	COMDAT ??_C@_07NJJEDOBB@Details@
CONST	SEGMENT
??_C@_07NJJEDOBB@Details@ DB 'Details', 00H		; `string'
CONST	ENDS
;	COMDAT ??_C@_0HN@OJKIHMDC@Lorem?5ipsum?5dolor?5sit?5amet?0?5con@
CONST	SEGMENT
??_C@_0HN@OJKIHMDC@Lorem?5ipsum?5dolor?5sit?5amet?0?5con@ DB 'Lorem ipsum'
	DB	' dolor sit amet, consectetur adipiscing elit, sed do eiusmod '
	DB	'tempor incididunt ut labore et dolore magna aliqua. ', 00H ; `string'
CONST	ENDS
;	COMDAT ??_C@_0M@OHKMKKDH@Description@
CONST	SEGMENT
??_C@_0M@OHKMKKDH@Description@ DB 'Description', 00H	; `string'
CONST	ENDS
;	COMDAT ??_C@_06BMLGLIAO@?$CD?$CDTabs@
CONST	SEGMENT
??_C@_06BMLGLIAO@?$CD?$CDTabs@ DB '##Tabs', 00H		; `string'
CONST	ENDS
;	COMDAT ??_C@_0N@CMHEFDFC@MyObject?3?5?$CFd@
CONST	SEGMENT
??_C@_0N@CMHEFDFC@MyObject?3?5?$CFd@ DB 'MyObject: %d', 00H ; `string'
CONST	ENDS
;	COMDAT ??_C@_09PHNAOHDK@item?5view@
CONST	SEGMENT
??_C@_09PHNAOHDK@item?5view@ DB 'item view', 00H	; `string'
CONST	ENDS
;	COMDAT ??_C@_0M@DHBPHHKL@MyObject?5?$CFd@
CONST	SEGMENT
??_C@_0M@DHBPHHKL@MyObject?5?$CFd@ DB 'MyObject %d', 00H ; `string'
CONST	ENDS
;	COMDAT ??_C@_09OINOOGMP@left?5pane@
CONST	SEGMENT
??_C@_09OINOOGMP@left?5pane@ DB 'left pane', 00H	; `string'
CONST	ENDS
;	COMDAT ??_C@_0BH@BCHKOJFL@Example?3?5Simple?5layout@
CONST	SEGMENT
??_C@_0BH@BCHKOJFL@Example?3?5Simple?5layout@ DB 'Example: Simple layout', 00H ; `string'
CONST	ENDS
;	COMDAT ??_C@_0DO@NHFCPAIM@?$FL?$CF05d?$FN?5?$FL?$CFs?$FN?5Hello?0?5current?5time@
CONST	SEGMENT
??_C@_0DO@NHFCPAIM@?$FL?$CF05d?$FN?5?$FL?$CFs?$FN?5Hello?0?5current?5time@ DB '['
	DB	'%05d] [%s] Hello, current time is %.1f, here''s a word: ''%s'''
	DB	0aH, 00H					; `string'
CONST	ENDS
;	COMDAT ??_C@_0N@BIHLNJM@Pauciloquent@
CONST	SEGMENT
??_C@_0N@BIHLNJM@Pauciloquent@ DB 'Pauciloquent', 00H	; `string'
CONST	ENDS
;	COMDAT ??_C@_0L@MIMGHMNH@Nincompoop@
CONST	SEGMENT
??_C@_0L@MIMGHMNH@Nincompoop@ DB 'Nincompoop', 00H	; `string'
CONST	ENDS
;	COMDAT ??_C@_0N@FLCFMCCB@Absquatulate@
CONST	SEGMENT
??_C@_0N@FLCFMCCB@Absquatulate@ DB 'Absquatulate', 00H	; `string'
CONST	ENDS
;	COMDAT ??_C@_0O@KKKMMPJN@Abibliophobia@
CONST	SEGMENT
??_C@_0O@KKKMMPJN@Abibliophobia@ DB 'Abibliophobia', 00H ; `string'
CONST	ENDS
;	COMDAT ??_C@_0M@KEIJGBOK@Snickersnee@
CONST	SEGMENT
??_C@_0M@KEIJGBOK@Snickersnee@ DB 'Snickersnee', 00H	; `string'
CONST	ENDS
;	COMDAT ??_C@_0M@FKNIJFM@Cattywampus@
CONST	SEGMENT
??_C@_0M@FKNIJFM@Cattywampus@ DB 'Cattywampus', 00H	; `string'
CONST	ENDS
;	COMDAT ??_C@_0L@CIGCKJLI@Bumfuzzled@
CONST	SEGMENT
??_C@_0L@CIGCKJLI@Bumfuzzled@ DB 'Bumfuzzled', 00H	; `string'
CONST	ENDS
;	COMDAT ??_C@_05KKCIMGE@error@
CONST	SEGMENT
??_C@_05KKCIMGE@error@ DB 'error', 00H			; `string'
CONST	ENDS
;	COMDAT ??_C@_04FNLOFOEM@warn@
CONST	SEGMENT
??_C@_04FNLOFOEM@warn@ DB 'warn', 00H			; `string'
CONST	ENDS
;	COMDAT ??_C@_04NIDJFNBE@info@
CONST	SEGMENT
??_C@_04NIDJFNBE@info@ DB 'info', 00H			; `string'
CONST	ENDS
;	COMDAT ??_C@_0BG@JBNFHIEN@?$FLDebug?$FN?5Add?55?5entries@
CONST	SEGMENT
??_C@_0BG@JBNFHIEN@?$FLDebug?$FN?5Add?55?5entries@ DB '[Debug] Add 5 entr'
	DB	'ies', 00H					; `string'
CONST	ENDS
;	COMDAT ??_C@_0N@LFJACCKD@Example?3?5Log@
CONST	SEGMENT
??_C@_0N@LFJACCKD@Example?3?5Log@ DB 'Example: Log', 00H ; `string'
CONST	ENDS
;	COMDAT ??_C@_06IBDJIBGI@Filter@
CONST	SEGMENT
??_C@_06IBDJIBGI@Filter@ DB 'Filter', 00H		; `string'
CONST	ENDS
;	COMDAT ??_C@_0BB@NEACHKPE@Example?3?5Console@
CONST	SEGMENT
??_C@_0BB@NEACHKPE@Example?3?5Console@ DB 'Example: Console', 00H ; `string'
CONST	ENDS
;	COMDAT ??_C@_05PHKAGDP@?9?5?$CFs?6@
CONST	SEGMENT
??_C@_05PHKAGDP@?9?5?$CFs?6@ DB '- %s', 0aH, 00H	; `string'
CONST	ENDS
;	COMDAT ??_C@_0BD@LCPLNAHF@Possible?5matches?3?6@
CONST	SEGMENT
??_C@_0BD@LCPLNAHF@Possible?5matches?3?6@ DB 'Possible matches:', 0aH, 00H ; `string'
CONST	ENDS
;	COMDAT ??_C@_01CLKCMJKC@?5@
CONST	SEGMENT
??_C@_01CLKCMJKC@?5@ DB ' ', 00H			; `string'
CONST	ENDS
;	COMDAT ??_C@_0BG@DOPMHGPK@No?5match?5for?5?$CC?$CF?4?$CKs?$CC?$CB?6@
CONST	SEGMENT
??_C@_0BG@DOPMHGPK@No?5match?5for?5?$CC?$CF?4?$CKs?$CC?$CB?6@ DB 'No matc'
	DB	'h for "%.*s"!', 0aH, 00H			; `string'
CONST	ENDS
;	COMDAT ??_C@_0BH@OKLFOGKH@Unknown?5command?3?5?8?$CFs?8?6@
CONST	SEGMENT
??_C@_0BH@OKLFOGKH@Unknown?5command?3?5?8?$CFs?8?6@ DB 'Unknown command: '
	DB	'''%s''', 0aH, 00H				; `string'
CONST	ENDS
;	COMDAT ??_C@_08PKLPHKJF@?$CF3d?3?5?$CFs?6@
CONST	SEGMENT
??_C@_08PKLPHKJF@?$CF3d?3?5?$CFs?6@ DB '%3d: %s', 0aH, 00H ; `string'
CONST	ENDS
;	COMDAT ??_C@_04JKCKOCFH@?9?5?$CFs@
CONST	SEGMENT
??_C@_04JKCKOCFH@?9?5?$CFs@ DB '- %s', 00H		; `string'
CONST	ENDS
;	COMDAT ??_C@_09GJFNIAOH@Commands?3@
CONST	SEGMENT
??_C@_09GJFNIAOH@Commands?3@ DB 'Commands:', 00H	; `string'
CONST	ENDS
;	COMDAT ??_C@_05DFHAGHEP@?$CD?5?$CFs?6@
CONST	SEGMENT
??_C@_05DFHAGHEP@?$CD?5?$CFs?6@ DB '# %s', 0aH, 00H	; `string'
CONST	ENDS
;	COMDAT ??_C@_02KPDBPKPG@?$CD?5@
CONST	SEGMENT
??_C@_02KPDBPKPG@?$CD?5@ DB '# ', 00H			; `string'
CONST	ENDS
;	COMDAT ??_C@_07LFMCMLFD@?$FLerror?$FN@
CONST	SEGMENT
??_C@_07LFMCMLFD@?$FLerror?$FN@ DB '[error]', 00H	; `string'
CONST	ENDS
;	COMDAT ??_C@_0BA@KOEFNJOK@ScrollingRegion@
CONST	SEGMENT
??_C@_0BA@KOEFNJOK@ScrollingRegion@ DB 'ScrollingRegion', 00H ; `string'
CONST	ENDS
;	COMDAT ??_C@_0CA@HIABFBKB@Filter?5?$CI?$CCincl?0?9excl?$CC?$CJ?5?$CI?$CCerror?$CC?$CJ@
CONST	SEGMENT
??_C@_0CA@HIABFBKB@Filter?5?$CI?$CCincl?0?9excl?$CC?$CJ?5?$CI?$CCerror?$CC?$CJ@ DB 'F'
	DB	'ilter ("incl,-excl") ("error")', 00H	; `string'
CONST	ENDS
;	COMDAT ??_C@_0M@IFKANFPJ@Auto?9scroll@
CONST	SEGMENT
??_C@_0M@IFKANFPJ@Auto?9scroll@ DB 'Auto-scroll', 00H	; `string'
CONST	ENDS
;	COMDAT ??_C@_05MDNHABIA@Clear@
CONST	SEGMENT
??_C@_05MDNHABIA@Clear@ DB 'Clear', 00H			; `string'
CONST	ENDS
;	COMDAT ??_C@_0BN@KNPJMMPE@?$FLerror?$FN?5something?5went?5wrong@
CONST	SEGMENT
??_C@_0BN@KNPJMMPE@?$FLerror?$FN?5something?5went?5wrong@ DB '[error] som'
	DB	'ething went wrong', 00H			; `string'
CONST	ENDS
;	COMDAT ??_C@_0BA@HHKLEHKC@Add?5Dummy?5Error@
CONST	SEGMENT
??_C@_0BA@HHKLEHKC@Add?5Dummy?5Error@ DB 'Add Dummy Error', 00H ; `string'
CONST	ENDS
;	COMDAT ??_C@_0CF@PEIDNPCH@display?5very?5important?5message?5@
CONST	SEGMENT
??_C@_0CF@PEIDNPCH@display?5very?5important?5message?5@ DB 'display very '
	DB	'important message here!', 00H		; `string'
CONST	ENDS
;	COMDAT ??_C@_0P@BMHJKMPF@some?5more?5text@
CONST	SEGMENT
??_C@_0P@BMHJKMPF@some?5more?5text@ DB 'some more text', 00H ; `string'
CONST	ENDS
;	COMDAT ??_C@_0N@OJGBPOOP@?$CFd?5some?5text@
CONST	SEGMENT
??_C@_0N@OJGBPOOP@?$CFd?5some?5text@ DB '%d some text', 00H ; `string'
CONST	ENDS
;	COMDAT ??_C@_0P@CGJDLLEJ@Add?5Dummy?5Text@
CONST	SEGMENT
??_C@_0P@CGJDLLEJ@Add?5Dummy?5Text@ DB 'Add Dummy Text', 00H ; `string'
CONST	ENDS
;	COMDAT ??_C@_0DJ@NBHLDCP@Enter?5?8HELP?8?5for?5help?0?5press?5TA@
CONST	SEGMENT
??_C@_0DJ@NBHLDCP@Enter?5?8HELP?8?5for?5help?0?5press?5TA@ DB 'Enter ''HE'
	DB	'LP'' for help, press TAB to use text completion.', 00H ; `string'
CONST	ENDS
;	COMDAT ??_C@_0MA@ICGIOBFG@This?5example?5implements?5a?5conso@
CONST	SEGMENT
??_C@_0MA@ICGIOBFG@This?5example?5implements?5a?5conso@ DB 'This example '
	DB	'implements a console with basic coloring, completion and hist'
	DB	'ory. A more elaborate implementation may want to store entrie'
	DB	's along with extra data such as timestamp, emitter, etc.', 00H ; `string'
CONST	ENDS
;	COMDAT ??_C@_0O@GDIOPKGP@Close?5Console@
CONST	SEGMENT
??_C@_0O@GDIOPKGP@Close?5Console@ DB 'Close Console', 00H ; `string'
CONST	ENDS
;	COMDAT ??_C@_17ENLBLDPN@?$AAb?$AAu?$AAf@
CONST	SEGMENT
??_C@_17ENLBLDPN@?$AAb?$AAu?$AAf@ DB 'b', 00H, 'u', 00H, 'f', 00H, 00H, 00H ; `string'
CONST	ENDS
;	COMDAT ??_C@_0BH@HICLALOG@Welcome?5to?5Dear?5ImGui?$CB@
CONST	SEGMENT
??_C@_0BH@HICLALOG@Welcome?5to?5Dear?5ImGui?$CB@ DB 'Welcome to Dear ImGu'
	DB	'i!', 00H					; `string'
CONST	ENDS
;	COMDAT ??_C@_08GOHMLCGG@CLASSIFY@
CONST	SEGMENT
??_C@_08GOHMLCGG@CLASSIFY@ DB 'CLASSIFY', 00H		; `string'
CONST	ENDS
;	COMDAT ??_C@_05PONODPI@CLEAR@
CONST	SEGMENT
??_C@_05PONODPI@CLEAR@ DB 'CLEAR', 00H			; `string'
CONST	ENDS
;	COMDAT ??_C@_07DBIJIOJO@HISTORY@
CONST	SEGMENT
??_C@_07DBIJIOJO@HISTORY@ DB 'HISTORY', 00H		; `string'
CONST	ENDS
;	COMDAT ??_C@_04DOKPJKJF@HELP@
CONST	SEGMENT
??_C@_04DOKPJKJF@HELP@ DB 'HELP', 00H			; `string'
CONST	ENDS
;	COMDAT ??_C@_04GMBKPCGK@Quit@
CONST	SEGMENT
??_C@_04GMBKPCGK@Quit@ DB 'Quit', 00H			; `string'
CONST	ENDS
;	COMDAT ??_C@_06ELIFPNNI@Alt?$CLF4@
CONST	SEGMENT
??_C@_06ELIFPNNI@Alt?$CLF4@ DB 'Alt+F4', 00H		; `string'
CONST	ENDS
;	COMDAT ??_C@_07KAJHKDAE@Checked@
CONST	SEGMENT
??_C@_07KAJHKDAE@Checked@ DB 'Checked', 00H		; `string'
CONST	ENDS
;	COMDAT ??_C@_05KONDNKDG@Check@
CONST	SEGMENT
??_C@_05KONDNKDG@Check@ DB 'Check', 00H			; `string'
CONST	ENDS
;	COMDAT ??_C@_0P@CHCLHMCH@Yes?$AANo?$AAMaybe?$AA?$AA@
CONST	SEGMENT
??_C@_0P@CHCLHMCH@Yes?$AANo?$AAMaybe?$AA?$AA@ DB 'Yes', 00H, 'No', 00H, 'M'
	DB	'aybe', 00H, 00H, 00H			; `string'
CONST	ENDS
;	COMDAT ??_C@_05DCDOHKAB@Input@
CONST	SEGMENT
??_C@_05DCDOHKAB@Input@ DB 'Input', 00H			; `string'
CONST	ENDS
;	COMDAT ??_C@_0BC@MAFFAEMB@Scrolling?5Text?5?$CFd@
CONST	SEGMENT
??_C@_0BC@MAFFAEMB@Scrolling?5Text?5?$CFd@ DB 'Scrolling Text %d', 00H ; `string'
CONST	ENDS
;	COMDAT ??_C@_07DOAOMMKG@Enabled@
CONST	SEGMENT
??_C@_07DOAOMMKG@Enabled@ DB 'Enabled', 00H		; `string'
CONST	ENDS
;	COMDAT ??_C@_07KHIHFBFN@Options@
CONST	SEGMENT
??_C@_07KHIHFBFN@Options@ DB 'Options', 00H		; `string'
CONST	ENDS
;	COMDAT ??_C@_09JEJONNAL@Save?5As?4?4@
CONST	SEGMENT
??_C@_09JEJONNAL@Save?5As?4?4@ DB 'Save As..', 00H	; `string'
CONST	ENDS
;	COMDAT ??_C@_06NAKPFMDA@Ctrl?$CLS@
CONST	SEGMENT
??_C@_06NAKPFMDA@Ctrl?$CLS@ DB 'Ctrl+S', 00H		; `string'
CONST	ENDS
;	COMDAT ??_C@_09JKOAAOOB@Recurse?4?4@
CONST	SEGMENT
??_C@_09JKOAAOOB@Recurse?4?4@ DB 'Recurse..', 00H	; `string'
CONST	ENDS
;	COMDAT ??_C@_06INDFPOP@More?4?4@
CONST	SEGMENT
??_C@_06INDFPOP@More?4?4@ DB 'More..', 00H		; `string'
CONST	ENDS
;	COMDAT ??_C@_0L@CFAJIONG@fish_hat?4h@
CONST	SEGMENT
??_C@_0L@CFAJIONG@fish_hat?4h@ DB 'fish_hat.h', 00H	; `string'
CONST	ENDS
;	COMDAT ??_C@_0N@OONPEMFD@fish_hat?4inl@
CONST	SEGMENT
??_C@_0N@OONPEMFD@fish_hat?4inl@ DB 'fish_hat.inl', 00H	; `string'
CONST	ENDS
;	COMDAT ??_C@_0L@MGPNFHBN@fish_hat?4c@
CONST	SEGMENT
??_C@_0L@MGPNFHBN@fish_hat?4c@ DB 'fish_hat.c', 00H	; `string'
CONST	ENDS
;	COMDAT ??_C@_0M@FFOFICLF@Open?5Recent@
CONST	SEGMENT
??_C@_0M@FFOFICLF@Open?5Recent@ DB 'Open Recent', 00H	; `string'
CONST	ENDS
;	COMDAT ??_C@_04DNCDCIAE@Open@
CONST	SEGMENT
??_C@_04DNCDCIAE@Open@ DB 'Open', 00H			; `string'
CONST	ENDS
;	COMDAT ??_C@_06DGNIABGN@Ctrl?$CLO@
CONST	SEGMENT
??_C@_06DGNIABGN@Ctrl?$CLO@ DB 'Ctrl+O', 00H		; `string'
CONST	ENDS
;	COMDAT ??_C@_03ILBCOJBH@New@
CONST	SEGMENT
??_C@_03ILBCOJBH@New@ DB 'New', 00H			; `string'
CONST	ENDS
;	COMDAT ??_C@_0N@GAHNIDOO@?$CIdummy?5menu?$CJ@
CONST	SEGMENT
??_C@_0N@GAHNIDOO@?$CIdummy?5menu?$CJ@ DB '(dummy menu)', 00H ; `string'
CONST	ENDS
;	COMDAT ?__LINE__Var@?0??ShowExampleMenuFile@@YAXXZ@4JA
_DATA	SEGMENT
?__LINE__Var@?0??ShowExampleMenuFile@@YAXXZ@4JA DD 0dd4H ; `ShowExampleMenuFile'::`1'::__LINE__Var
_DATA	ENDS
;	COMDAT ??_C@_05NEBJFIEK@Paste@
CONST	SEGMENT
??_C@_05NEBJFIEK@Paste@ DB 'Paste', 00H			; `string'
CONST	ENDS
;	COMDAT ??_C@_06MLIHCNHJ@CTRL?$CLV@
CONST	SEGMENT
??_C@_06MLIHCNHJ@CTRL?$CLV@ DB 'CTRL+V', 00H		; `string'
CONST	ENDS
;	COMDAT ??_C@_06PMDCMLGN@CTRL?$CLC@
CONST	SEGMENT
??_C@_06PMDCMLGN@CTRL?$CLC@ DB 'CTRL+C', 00H		; `string'
CONST	ENDS
;	COMDAT ??_C@_03EOHDMBHJ@Cut@
CONST	SEGMENT
??_C@_03EOHDMBHJ@Cut@ DB 'Cut', 00H			; `string'
CONST	ENDS
;	COMDAT ??_C@_06FFAEAAPH@CTRL?$CLX@
CONST	SEGMENT
??_C@_06FFAEAAPH@CTRL?$CLX@ DB 'CTRL+X', 00H		; `string'
CONST	ENDS
;	COMDAT ??_C@_04NKENIHOM@Redo@
CONST	SEGMENT
??_C@_04NKENIHOM@Redo@ DB 'Redo', 00H			; `string'
CONST	ENDS
;	COMDAT ??_C@_06EMBPDBLG@CTRL?$CLY@
CONST	SEGMENT
??_C@_06EMBPDBLG@CTRL?$CLY@ DB 'CTRL+Y', 00H		; `string'
CONST	ENDS
;	COMDAT ??_C@_04LPGMNMPN@Undo@
CONST	SEGMENT
??_C@_04LPGMNMPN@Undo@ DB 'Undo', 00H			; `string'
CONST	ENDS
;	COMDAT ??_C@_06GHDCGCHF@CTRL?$CLZ@
CONST	SEGMENT
??_C@_06GHDCGCHF@CTRL?$CLZ@ DB 'CTRL+Z', 00H		; `string'
CONST	ENDS
;	COMDAT ??_C@_04BBNPPDNC@Edit@
CONST	SEGMENT
??_C@_04BBNPPDNC@Edit@ DB 'Edit', 00H			; `string'
CONST	ENDS
;	COMDAT ??_C@_0N@MBCJIDFM@Global?5Alpha@
CONST	SEGMENT
??_C@_0N@MBCJIDFM@Global?5Alpha@ DB 'Global Alpha', 00H	; `string'
CONST	ENDS
;	COMDAT ??_C@_0BN@KPCPFGKJ@Curve?5Tessellation?5Tolerance@
CONST	SEGMENT
??_C@_0BN@KPCPFGKJ@Curve?5Tessellation?5Tolerance@ DB 'Curve Tessellation'
	DB	' Tolerance', 00H				; `string'
CONST	ENDS
;	COMDAT ??_C@_0BC@KAFHAJBP@Anti?9aliased?5fill@
CONST	SEGMENT
??_C@_0BC@KAFHAJBP@Anti?9aliased?5fill@ DB 'Anti-aliased fill', 00H ; `string'
CONST	ENDS
;	COMDAT ??_C@_0GD@HJLOEILL@When?5disabling?5anti?9aliasing?5li@
CONST	SEGMENT
??_C@_0GD@HJLOEILL@When?5disabling?5anti?9aliasing?5li@ DB 'When disablin'
	DB	'g anti-aliasing lines, you''ll probably want to disable borde'
	DB	'rs in your style as well.', 00H		; `string'
CONST	ENDS
;	COMDAT ??_C@_0BD@INPJKAKL@Anti?9aliased?5lines@
CONST	SEGMENT
??_C@_0BD@INPJKAKL@Anti?9aliased?5lines@ DB 'Anti-aliased lines', 00H ; `string'
CONST	ENDS
;	COMDAT ??_C@_09PIAIFBON@Rendering@
CONST	SEGMENT
??_C@_09PIAIFBON@Rendering@ DB 'Rendering', 00H		; `string'
CONST	ENDS
;	COMDAT ??_C@_0N@DCHFKEPM@global?5scale@
CONST	SEGMENT
??_C@_0N@DCHFKEPM@global?5scale@ DB 'global scale', 00H	; `string'
CONST	ENDS
;	COMDAT ??_C@_0N@DLFCCMFO@window?5scale@
CONST	SEGMENT
??_C@_0N@DLFCCMFO@window?5scale@ DB 'window scale', 00H	; `string'
CONST	ENDS
;	COMDAT ??_C@_0PC@PJPPOHAC@Those?5are?5old?5settings?5provided@
CONST	SEGMENT
??_C@_0PC@PJPPOHAC@Those?5are?5old?5settings?5provided@ DB 'Those are old'
	DB	' settings provided for convenience.', 0aH, 'However, the _cor'
	DB	'rect_ way of scaling your UI is currently to reload your font'
	DB	' at the designed size, rebuild the font atlas, and call style'
	DB	'.ScaleAllSizes() on a reference ImGuiStyle structure.', 00H ; `string'
CONST	ENDS
;	COMDAT ??_C@_0O@KCJLBEBN@Atlas?5texture@
CONST	SEGMENT
??_C@_0O@KCJLBEBN@Atlas?5texture@ DB 'Atlas texture', 00H ; `string'
CONST	ENDS
;	COMDAT ??_C@_0BN@JPEJHLJM@Atlas?5texture?5?$CI?$CFdx?$CFd?5pixels?$CJ@
CONST	SEGMENT
??_C@_0BN@JPEJHLJM@Atlas?5texture?5?$CI?$CFdx?$CFd?5pixels?$CJ@ DB 'Atlas'
	DB	' texture (%dx%d pixels)', 00H		; `string'
CONST	ENDS
;	COMDAT ??_C@_0BN@EHEDNDHJ@UV?3?5?$CI?$CF?43f?0?$CF?43f?$CJ?9?$DO?$CI?$CF?43f?0?$CF?43f?$CJ@
CONST	SEGMENT
??_C@_0BN@EHEDNDHJ@UV?3?5?$CI?$CF?43f?0?$CF?43f?$CJ?9?$DO?$CI?$CF?43f?0?$CF?43f?$CJ@ DB 'U'
	DB	'V: (%.3f,%.3f)->(%.3f,%.3f)', 00H		; `string'
CONST	ENDS
;	COMDAT ??_C@_0BO@BCFBHCGJ@Pos?3?5?$CI?$CF?42f?0?$CF?42f?$CJ?9?$DO?$CI?$CF?42f?0?$CF?42f?$CJ@
CONST	SEGMENT
??_C@_0BO@BCFBHCGJ@Pos?3?5?$CI?$CF?42f?0?$CF?42f?$CJ?9?$DO?$CI?$CF?42f?0?$CF?42f?$CJ@ DB 'P'
	DB	'os: (%.2f,%.2f)->(%.2f,%.2f)', 00H		; `string'
CONST	ENDS
;	COMDAT ??_C@_0P@JLIDDFIB@AdvanceX?3?5?$CF?41f@
CONST	SEGMENT
??_C@_0P@JLIDDFIB@AdvanceX?3?5?$CF?41f@ DB 'AdvanceX: %.1f', 00H ; `string'
CONST	ENDS
;	COMDAT ??_C@_0BC@JMLDGIFC@Codepoint?3?5U?$CL?$CF04X@
CONST	SEGMENT
??_C@_0BC@JMLDGIFC@Codepoint?3?5U?$CL?$CF04X@ DB 'Codepoint: U+%04X', 00H ; `string'
CONST	ENDS
;	COMDAT ??_C@_0BH@KIECHKHD@U?$CL?$CF04X?4?4U?$CL?$CF04X?5?$CI?$CFd?5?$CFs?$CJ@
CONST	SEGMENT
??_C@_0BH@KIECHKHD@U?$CL?$CF04X?4?4U?$CL?$CF04X?5?$CI?$CFd?5?$CFs?$CJ@ DB 'U'
	DB	'+%04X..U+%04X (%d %s)', 00H			; `string'
CONST	ENDS
;	COMDAT ??_C@_05OIOMJNBL@glyph@
CONST	SEGMENT
??_C@_05OIOMJNBL@glyph@ DB 'glyph', 00H			; `string'
CONST	ENDS
;	COMDAT ??_C@_06IOJPAPEE@glyphs@
CONST	SEGMENT
??_C@_06IOJPAPEE@glyphs@ DB 'glyphs', 00H		; `string'
CONST	ENDS
;	COMDAT ??_C@_06EBCCDGNI@Glyphs@
CONST	SEGMENT
??_C@_06EBCCDGNI@Glyphs@ DB 'Glyphs', 00H		; `string'
CONST	ENDS
;	COMDAT ??_C@_0M@NEAHLNMH@Glyphs?5?$CI?$CFd?$CJ@
CONST	SEGMENT
??_C@_0M@NEAHLNMH@Glyphs?5?$CI?$CFd?$CJ@ DB 'Glyphs (%d)', 00H ; `string'
CONST	ENDS
;	COMDAT ??_C@_0DE@KFKIBEOD@Input?5?$CFd?3?5?8?$CFs?8?0?5Oversample?3?5?$CI?$CFd@
CONST	SEGMENT
??_C@_0DE@KFKIBEOD@Input?5?$CFd?3?5?8?$CFs?8?0?5Oversample?3?5?$CI?$CFd@ DB 'I'
	DB	'nput %d: ''%s'', Oversample: (%d,%d), PixelSnapH: %d', 00H ; `string'
CONST	ENDS
;	COMDAT ??_C@_0CE@LLADJGCM@Texture?5Area?3?5about?5?$CFd?5px?5?$HO?$CFdx?$CF@
CONST	SEGMENT
??_C@_0CE@LLADJGCM@Texture?5Area?3?5about?5?$CFd?5px?5?$HO?$CFdx?$CF@ DB 'T'
	DB	'exture Area: about %d px ~%dx%d px', 00H	; `string'
CONST	ENDS
;	COMDAT ??_C@_0CC@FMIIOLLL@Ellipsis?5character?3?5?8?$CFc?8?5?$CIU?$CL?$CF04@
CONST	SEGMENT
??_C@_0CC@FMIIOLLL@Ellipsis?5character?3?5?8?$CFc?8?5?$CIU?$CL?$CF04@ DB 'E'
	DB	'llipsis character: ''%c'' (U+%04X)', 00H	; `string'
CONST	ENDS
;	COMDAT ??_C@_0CC@FPHDKLMA@Fallback?5character?3?5?8?$CFc?8?5?$CIU?$CL?$CF04@
CONST	SEGMENT
??_C@_0CC@FPHDKLMA@Fallback?5character?3?5?8?$CFc?8?5?$CIU?$CL?$CF04@ DB 'F'
	DB	'allback character: ''%c'' (U+%04X)', 00H	; `string'
CONST	ENDS
;	COMDAT ??_C@_0CE@FJCMKHHK@Ascent?3?5?$CFf?0?5Descent?3?5?$CFf?0?5Height@
CONST	SEGMENT
??_C@_0CE@FJCMKHHK@Ascent?3?5?$CFf?0?5Descent?3?5?$CFf?0?5Height@ DB 'Asc'
	DB	'ent: %f, Descent: %f, Height: %f', 00H	; `string'
CONST	ENDS
;	COMDAT ??_C@_0M@MKKLGFNP@Font?5offset@
CONST	SEGMENT
??_C@_0M@MKKLGFNP@Font?5offset@ DB 'Font offset', 00H	; `string'
CONST	ENDS
;	COMDAT ??_C@_0BKF@KOCFAEGF@Note?5than?5the?5default?5embedded?5@
CONST	SEGMENT
??_C@_0BKF@KOCFAEGF@Note?5than?5the?5default?5embedded?5@ DB 'Note than t'
	DB	'he default embedded font is NOT meant to be scaled.', 0aH, 0aH
	DB	'Font are currently rendered into bitmaps at a given size at t'
	DB	'he time of building the atlas. You may oversample them to get'
	DB	' some flexibility with scaling. You can also render at multip'
	DB	'le sizes and select which one to use at runtime.', 0aH, 0aH, '('
	DB	'Glimmer of hope: the atlas system should hopefully be rewritt'
	DB	'en in the future to make scaling more natural and automatic.)'
	DB	00H						; `string'
CONST	ENDS
;	COMDAT ??_C@_0L@HAJGHBLA@Font?5scale@
CONST	SEGMENT
??_C@_0L@HAJGHBLA@Font?5scale@ DB 'Font scale', 00H	; `string'
CONST	ENDS
;	COMDAT ??_C@_04GGBPDDBN@?$CF?41f@
CONST	SEGMENT
??_C@_04GGBPDDBN@?$CF?41f@ DB '%.1f', 00H		; `string'
CONST	ENDS
;	COMDAT ??_C@_0P@HCLAAKJM@Set?5as?5default@
CONST	SEGMENT
??_C@_0P@HCLAAKJM@Set?5as?5default@ DB 'Set as default', 00H ; `string'
CONST	ENDS
;	COMDAT ??_C@_0CN@DILJDNLP@Font?5?$CFd?3?5?$CC?$CFs?$CC?6?$CF?42f?5px?0?5?$CFd?5glyph@
CONST	SEGMENT
??_C@_0CN@DILJDNLP@Font?5?$CFd?3?5?$CC?$CFs?$CC?6?$CF?42f?5px?0?5?$CFd?5glyph@ DB 'F'
	DB	'ont %d: "%s"', 0aH, '%.2f px, %d glyphs, %d file(s)', 00H ; `string'
CONST	ENDS
;	COMDAT ??_C@_0DJ@EDBFAJMO@Read?5FAQ?5and?5docs?1FONTS?4txt?5for@
CONST	SEGMENT
??_C@_0DJ@EDBFAJMO@Read?5FAQ?5and?5docs?1FONTS?4txt?5for@ DB 'Read FAQ an'
	DB	'd docs/FONTS.txt for details on font loading.', 00H ; `string'
CONST	ENDS
;	COMDAT ??_C@_05ENDNDI@Fonts@
CONST	SEGMENT
??_C@_05ENDNDI@Fonts@ DB 'Fonts', 00H			; `string'
CONST	ENDS
;	COMDAT ??_C@_06OIKMFEGE@Revert@
CONST	SEGMENT
??_C@_06OIKMFEGE@Revert@ DB 'Revert', 00H		; `string'
CONST	ENDS
;	COMDAT ??_C@_04INACKGJP@Save@
CONST	SEGMENT
??_C@_04INACKGJP@Save@ DB 'Save', 00H			; `string'
CONST	ENDS
;	COMDAT ??_C@_07KJABCEJI@?$CD?$CDcolor@
CONST	SEGMENT
??_C@_07KJABCEJI@?$CD?$CDcolor@ DB '##color', 00H	; `string'
CONST	ENDS
;	COMDAT ??_C@_08PKGPDAGH@?$CD?$CDcolors@
CONST	SEGMENT
??_C@_08PKGPDAGH@?$CD?$CDcolors@ DB '##colors', 00H	; `string'
CONST	ENDS
;	COMDAT ??_C@_0GN@IMCHBEFC@In?5the?5color?5list?3?6Left?9click?5o@
CONST	SEGMENT
??_C@_0GN@IMCHBEFC@In?5the?5color?5list?3?6Left?9click?5o@ DB 'In the col'
	DB	'or list:', 0aH, 'Left-click on colored square to open color p'
	DB	'icker,', 0aH, 'Right-click to open edit options menu.', 00H ; `string'
CONST	ENDS
;	COMDAT ??_C@_04IGHHMFLN@Both@
CONST	SEGMENT
??_C@_04IGHHMFLN@Both@ DB 'Both', 00H			; `string'
CONST	ENDS
;	COMDAT ??_C@_05IHOGHNDL@Alpha@
CONST	SEGMENT
??_C@_05IHOGHNDL@Alpha@ DB 'Alpha', 00H			; `string'
CONST	ENDS
;	COMDAT ??_C@_06OGJDIEIN@Opaque@
CONST	SEGMENT
??_C@_06OGJDIEIN@Opaque@ DB 'Opaque', 00H		; `string'
CONST	ENDS
;	COMDAT ??_C@_0O@ECALKMOF@Filter?5colors@
CONST	SEGMENT
??_C@_0O@ECALKMOF@Filter?5colors@ DB 'Filter colors', 00H ; `string'
CONST	ENDS
;	COMDAT ??_C@_0BF@EKILLAGK@Only?5Modified?5Colors@
CONST	SEGMENT
??_C@_0BF@EKILLAGK@Only?5Modified?5Colors@ DB 'Only Modified Colors', 00H ; `string'
CONST	ENDS
;	COMDAT ??_C@_0O@BMBGJILK@?$CD?$CDoutput_type@
CONST	SEGMENT
??_C@_0O@BMBGJILK@?$CD?$CDoutput_type@ DB '##output_type', 00H ; `string'
CONST	ENDS
;	COMDAT ??_C@_0BF@PKKCFHCF@To?5Clipboard?$AATo?5TTY?$AA@
CONST	SEGMENT
??_C@_0BF@PKKCFHCF@To?5Clipboard?$AATo?5TTY?$AA@ DB 'To Clipboard', 00H, 'T'
	DB	'o TTY', 00H, 00H				; `string'
CONST	ENDS
;	COMDAT ??_C@_0DO@CEAFKMHA@colors?$FLImGuiCol_?$CFs?$FN?$CF?$CKs?$DN?5ImVec4?$CI@
CONST	SEGMENT
??_C@_0DO@CEAFKMHA@colors?$FLImGuiCol_?$CFs?$FN?$CF?$CKs?$DN?5ImVec4?$CI@ DB 'c'
	DB	'olors[ImGuiCol_%s]%*s= ImVec4(%.2ff, %.2ff, %.2ff, %.2ff);', 0dH
	DB	0aH, 00H					; `string'
CONST	ENDS
;	COMDAT ??_C@_0CN@IIGPHJOL@ImVec4?$CK?5colors?5?$DN?5ImGui?3?3GetStyl@
CONST	SEGMENT
??_C@_0CN@IIGPHJOL@ImVec4?$CK?5colors?5?$DN?5ImGui?3?3GetStyl@ DB 'ImVec4'
	DB	'* colors = ImGui::GetStyle().Colors;', 0dH, 0aH, 00H ; `string'
CONST	ENDS
;	COMDAT ??_C@_06BFGAPCKF@Export@
CONST	SEGMENT
??_C@_06BFGAPCKF@Export@ DB 'Export', 00H		; `string'
CONST	ENDS
;	COMDAT ??_C@_06ICDCBJPI@Colors@
CONST	SEGMENT
??_C@_06ICDCBJPI@Colors@ DB 'Colors', 00H		; `string'
CONST	ENDS
;	COMDAT ??_C@_0BH@NLJOADCC@DisplaySafeAreaPadding@
CONST	SEGMENT
??_C@_0BH@NLJOADCC@DisplaySafeAreaPadding@ DB 'DisplaySafeAreaPadding', 00H ; `string'
CONST	ENDS
;	COMDAT ??_C@_0GI@OFDAJLLA@Adjust?5if?5you?5cannot?5see?5the?5ed@
CONST	SEGMENT
??_C@_0GI@OFDAJLLA@Adjust?5if?5you?5cannot?5see?5the?5ed@ DB 'Adjust if y'
	DB	'ou cannot see the edges of your screen (e.g. on a TV where sc'
	DB	'aling has not been configured).', 00H	; `string'
CONST	ENDS
;	COMDAT ??_C@_0BC@FINEDBHB@Safe?5Area?5Padding@
CONST	SEGMENT
??_C@_0BC@FINEDBHB@Safe?5Area?5Padding@ DB 'Safe Area Padding', 00H ; `string'
CONST	ENDS
;	COMDAT ??_C@_0EF@EIJADJPM@Alignment?5applies?5when?5a?5select@
CONST	SEGMENT
??_C@_0EF@EIJADJPM@Alignment?5applies?5when?5a?5select@ DB 'Alignment app'
	DB	'lies when a selectable is larger than its text content.', 00H ; `string'
CONST	ENDS
;	COMDAT ??_C@_0BE@OFFKFPJC@SelectableTextAlign@
CONST	SEGMENT
??_C@_0BE@OFFKFPJC@SelectableTextAlign@ DB 'SelectableTextAlign', 00H ; `string'
CONST	ENDS
;	COMDAT ??_C@_0EB@KHCCNPEP@Alignment?5applies?5when?5a?5button@
CONST	SEGMENT
??_C@_0EB@KHCCNPEP@Alignment?5applies?5when?5a?5button@ DB 'Alignment app'
	DB	'lies when a button is larger than its text content.', 00H ; `string'
CONST	ENDS
;	COMDAT ??_C@_0BA@PHDMJLFL@ButtonTextAlign@
CONST	SEGMENT
??_C@_0BA@PHDMJLFL@ButtonTextAlign@ DB 'ButtonTextAlign', 00H ; `string'
CONST	ENDS
;	COMDAT ??_C@_0BE@HCCCHIDA@ColorButtonPosition@
CONST	SEGMENT
??_C@_0BE@HCCCHIDA@ColorButtonPosition@ DB 'ColorButtonPosition', 00H ; `string'
CONST	ENDS
;	COMDAT ??_C@_0M@PMLPANEE@Left?$AARight?$AA@
CONST	SEGMENT
??_C@_0M@PMLPANEE@Left?$AARight?$AA@ DB 'Left', 00H, 'Right', 00H, 00H ; `string'
CONST	ENDS
;	COMDAT ??_C@_0BJ@INNLFKOF@WindowMenuButtonPosition@
CONST	SEGMENT
??_C@_0BJ@INNLFKOF@WindowMenuButtonPosition@ DB 'WindowMenuButtonPosition'
	DB	00H						; `string'
CONST	ENDS
;	COMDAT ??_C@_0BB@ECHPPBJL@None?$AALeft?$AARight?$AA@
CONST	SEGMENT
??_C@_0BB@ECHPPBJL@None?$AALeft?$AARight?$AA@ DB 'None', 00H, 'Left', 00H
	DB	'Right', 00H, 00H				; `string'
CONST	ENDS
;	COMDAT ??_C@_0BB@IFNMJCJO@WindowTitleAlign@
CONST	SEGMENT
??_C@_0BB@IFNMJCJO@WindowTitleAlign@ DB 'WindowTitleAlign', 00H ; `string'
CONST	ENDS
;	COMDAT ??_C@_04GEFJINEE@?$CF?42f@
CONST	SEGMENT
??_C@_04GEFJINEE@?$CF?42f@ DB '%.2f', 00H		; `string'
CONST	ENDS
;	COMDAT ??_C@_0M@GELHPNFJ@TabRounding@
CONST	SEGMENT
??_C@_0M@GELHPNFJ@TabRounding@ DB 'TabRounding', 00H	; `string'
CONST	ENDS
;	COMDAT ??_C@_0N@CHOEJEFP@GrabRounding@
CONST	SEGMENT
??_C@_0N@CHOEJEFP@GrabRounding@ DB 'GrabRounding', 00H	; `string'
CONST	ENDS
;	COMDAT ??_C@_0BC@IGAFHGEC@ScrollbarRounding@
CONST	SEGMENT
??_C@_0BC@IGAFHGEC@ScrollbarRounding@ DB 'ScrollbarRounding', 00H ; `string'
CONST	ENDS
;	COMDAT ??_C@_0O@OGBCIABM@PopupRounding@
CONST	SEGMENT
??_C@_0O@OGBCIABM@PopupRounding@ DB 'PopupRounding', 00H ; `string'
CONST	ENDS
;	COMDAT ??_C@_0O@OLPNJDEC@ChildRounding@
CONST	SEGMENT
??_C@_0O@OLPNJDEC@ChildRounding@ DB 'ChildRounding', 00H ; `string'
CONST	ENDS
;	COMDAT ??_C@_0P@IMGPCCNA@WindowRounding@
CONST	SEGMENT
??_C@_0P@IMGPCCNA@WindowRounding@ DB 'WindowRounding', 00H ; `string'
CONST	ENDS
;	COMDAT ??_C@_08ICFONDFO@Rounding@
CONST	SEGMENT
??_C@_08ICFONDFO@Rounding@ DB 'Rounding', 00H		; `string'
CONST	ENDS
;	COMDAT ??_C@_0O@MEMGDJEN@TabBorderSize@
CONST	SEGMENT
??_C@_0O@MEMGDJEN@TabBorderSize@ DB 'TabBorderSize', 00H ; `string'
CONST	ENDS
;	COMDAT ??_C@_0BA@OLKEIFFB@FrameBorderSize@
CONST	SEGMENT
??_C@_0BA@OLKEIFFB@FrameBorderSize@ DB 'FrameBorderSize', 00H ; `string'
CONST	ENDS
;	COMDAT ??_C@_0BA@GHHMANCJ@PopupBorderSize@
CONST	SEGMENT
??_C@_0BA@GHHMANCJ@PopupBorderSize@ DB 'PopupBorderSize', 00H ; `string'
CONST	ENDS
;	COMDAT ??_C@_0BA@MHPKDBMC@ChildBorderSize@
CONST	SEGMENT
??_C@_0BA@MHPKDBMC@ChildBorderSize@ DB 'ChildBorderSize', 00H ; `string'
CONST	ENDS
;	COMDAT ??_C@_0BB@DIOLDNNC@WindowBorderSize@
CONST	SEGMENT
??_C@_0BB@DIOLDNNC@WindowBorderSize@ DB 'WindowBorderSize', 00H ; `string'
CONST	ENDS
;	COMDAT ??_C@_0M@MMBGIFGH@GrabMinSize@
CONST	SEGMENT
??_C@_0M@MMBGIFGH@GrabMinSize@ DB 'GrabMinSize', 00H	; `string'
CONST	ENDS
;	COMDAT ??_C@_0O@DNFCAGJO@ScrollbarSize@
CONST	SEGMENT
??_C@_0O@DNFCAGJO@ScrollbarSize@ DB 'ScrollbarSize', 00H ; `string'
CONST	ENDS
;	COMDAT ??_C@_0O@FJCIMFNP@IndentSpacing@
CONST	SEGMENT
??_C@_0O@FJCIMFNP@IndentSpacing@ DB 'IndentSpacing', 00H ; `string'
CONST	ENDS
;	COMDAT ??_C@_0BC@CHKNMAIJ@TouchExtraPadding@
CONST	SEGMENT
??_C@_0BC@CHKNMAIJ@TouchExtraPadding@ DB 'TouchExtraPadding', 00H ; `string'
CONST	ENDS
;	COMDAT ??_C@_0BB@FPELPPEM@ItemInnerSpacing@
CONST	SEGMENT
??_C@_0BB@FPELPPEM@ItemInnerSpacing@ DB 'ItemInnerSpacing', 00H ; `string'
CONST	ENDS
;	COMDAT ??_C@_0M@PJNJGKOI@ItemSpacing@
CONST	SEGMENT
??_C@_0M@PJNJGKOI@ItemSpacing@ DB 'ItemSpacing', 00H	; `string'
CONST	ENDS
;	COMDAT ??_C@_0N@CPMOGBCG@FramePadding@
CONST	SEGMENT
??_C@_0N@CPMOGBCG@FramePadding@ DB 'FramePadding', 00H	; `string'
CONST	ENDS
;	COMDAT ??_C@_0O@NJEPBHAL@WindowPadding@
CONST	SEGMENT
??_C@_0O@NJEPBHAL@WindowPadding@ DB 'WindowPadding', 00H ; `string'
CONST	ENDS
;	COMDAT ??_C@_04KGFMLCPK@Main@
CONST	SEGMENT
??_C@_04KGFMLCPK@Main@ DB 'Main', 00H			; `string'
CONST	ENDS
;	COMDAT ??_C@_05BOIJFCDP@Sizes@
CONST	SEGMENT
??_C@_05BOIJFCDP@Sizes@ DB 'Sizes', 00H			; `string'
CONST	ENDS
;	COMDAT ??_C@_06NNHHJHAK@?$CD?$CDtabs@
CONST	SEGMENT
??_C@_06NNHHJHAK@?$CD?$CDtabs@ DB '##tabs', 00H		; `string'
CONST	ENDS
;	COMDAT ??_C@_0IE@DBDEKJDM@Save?1Revert?5in?5local?5non?9persis@
CONST	SEGMENT
??_C@_0IE@DBDEKJDM@Save?1Revert?5in?5local?5non?9persis@ DB 'Save/Revert '
	DB	'in local non-persistent storage. Default Colors definition ar'
	DB	'e not affected. Use "Export" below to save them somewhere.', 00H ; `string'
CONST	ENDS
;	COMDAT ??_C@_0L@KOOMFCFA@Revert?5Ref@
CONST	SEGMENT
??_C@_0L@KOOMFCFA@Revert?5Ref@ DB 'Revert Ref', 00H	; `string'
CONST	ENDS
;	COMDAT ??_C@_08EEJHGAPI@Save?5Ref@
CONST	SEGMENT
??_C@_08EEJHGAPI@Save?5Ref@ DB 'Save Ref', 00H		; `string'
CONST	ENDS
;	COMDAT ??_C@_0M@NFCFILGL@PopupBorder@
CONST	SEGMENT
??_C@_0M@NFCFILGL@PopupBorder@ DB 'PopupBorder', 00H	; `string'
CONST	ENDS
;	COMDAT ??_C@_0M@LIENHPEL@FrameBorder@
CONST	SEGMENT
??_C@_0M@LIENHPEL@FrameBorder@ DB 'FrameBorder', 00H	; `string'
CONST	ENDS
;	COMDAT ??_C@_0N@IABNAJJO@WindowBorder@
CONST	SEGMENT
??_C@_0N@IABNAJJO@WindowBorder@ DB 'WindowBorder', 00H	; `string'
CONST	ENDS
;	COMDAT ??_C@_0O@MJEGPPND@FrameRounding@
CONST	SEGMENT
??_C@_0O@MJEGPPND@FrameRounding@ DB 'FrameRounding', 00H ; `string'
CONST	ENDS
;	COMDAT ??_C@_0BA@OGAKFFL@Fonts?$CD?$CDSelector@
CONST	SEGMENT
??_C@_0BA@OGAKFFL@Fonts?$CD?$CDSelector@ DB 'Fonts##Selector', 00H ; `string'
CONST	ENDS
;	COMDAT ??_C@_0BB@MDDLAALC@Colors?$CD?$CDSelector@
CONST	SEGMENT
??_C@_0BB@MDDLAALC@Colors?$CD?$CDSelector@ DB 'Colors##Selector', 00H ; `string'
CONST	ENDS
;	COMDAT ??_C@_0BCM@MBDECECM@?9?5Load?5additional?5fonts?5with?5io@
CONST	SEGMENT
??_C@_0BCM@MBDECECM@?9?5Load?5additional?5fonts?5with?5io@ DB '- Load add'
	DB	'itional fonts with io.Fonts->AddFontFromFileTTF().', 0aH, '- '
	DB	'The font atlas is built when calling io.Fonts->GetTexDataAsXX'
	DB	'XX() or io.Fonts->Build().', 0aH, '- Read FAQ and docs/FONTS.'
	DB	'txt for more details.', 0aH, '- If you need to add/remove fon'
	DB	'ts at runtime (e.g. for DPI change), do it before calling New'
	DB	'Frame().', 00H				; `string'
CONST	ENDS
;	COMDAT ??_C@_0BE@EIEKGNCP@Classic?$AADark?$AALight?$AA@
CONST	SEGMENT
??_C@_0BE@EIEKGNCP@Classic?$AADark?$AALight?$AA@ DB 'Classic', 00H, 'Dark'
	DB	00H, 'Light', 00H, 00H			; `string'
CONST	ENDS
;	COMDAT ??_C@_05PPIKNONO@?6?$GA?$GA?$GA?6@
CONST	SEGMENT
??_C@_05PPIKNONO@?6?$GA?$GA?$GA?6@ DB 0aH, '```', 0aH, 00H ; `string'
CONST	ENDS
;	COMDAT ??_C@_0CC@ECALHKFF@style?4ItemInnerSpacing?3?5?$CF?42f?0?$CF?4@
CONST	SEGMENT
??_C@_0CC@ECALHKFF@style?4ItemInnerSpacing?3?5?$CF?42f?0?$CF?4@ DB 'style'
	DB	'.ItemInnerSpacing: %.2f,%.2f', 00H		; `string'
CONST	ENDS
;	COMDAT ??_C@_0BN@DHGOAPDN@style?4ItemSpacing?3?5?$CF?42f?0?$CF?42f@
CONST	SEGMENT
??_C@_0BN@DHGOAPDN@style?4ItemSpacing?3?5?$CF?42f?0?$CF?42f@ DB 'style.It'
	DB	'emSpacing: %.2f,%.2f', 00H			; `string'
CONST	ENDS
;	COMDAT ??_C@_0BM@JEFFCPEF@style?4FrameBorderSize?3?5?$CF?42f@
CONST	SEGMENT
??_C@_0BM@JEFFCPEF@style?4FrameBorderSize?3?5?$CF?42f@ DB 'style.FrameBor'
	DB	'derSize: %.2f', 00H				; `string'
CONST	ENDS
;	COMDAT ??_C@_0BK@INLCDPGI@style?4FrameRounding?3?5?$CF?42f@
CONST	SEGMENT
??_C@_0BK@INLCDPGI@style?4FrameRounding?3?5?$CF?42f@ DB 'style.FrameRound'
	DB	'ing: %.2f', 00H				; `string'
CONST	ENDS
;	COMDAT ??_C@_0BO@GOMLHPA@style?4FramePadding?3?5?$CF?42f?0?$CF?42f@
CONST	SEGMENT
??_C@_0BO@GOMLHPA@style?4FramePadding?3?5?$CF?42f?0?$CF?42f@ DB 'style.Fr'
	DB	'amePadding: %.2f,%.2f', 00H			; `string'
CONST	ENDS
;	COMDAT ??_C@_0BN@NGAGEFMI@style?4WindowBorderSize?3?5?$CF?42f@
CONST	SEGMENT
??_C@_0BN@NGAGEFMI@style?4WindowBorderSize?3?5?$CF?42f@ DB 'style.WindowB'
	DB	'orderSize: %.2f', 00H			; `string'
CONST	ENDS
;	COMDAT ??_C@_0BP@CFKGJLOD@style?4WindowPadding?3?5?$CF?42f?0?$CF?42f@
CONST	SEGMENT
??_C@_0BP@CFKGJLOD@style?4WindowPadding?3?5?$CF?42f?0?$CF?42f@ DB 'style.'
	DB	'WindowPadding: %.2f,%.2f', 00H		; `string'
CONST	ENDS
;	COMDAT ??_C@_0CG@MDJEGDDF@io?4DisplayFramebufferScale?3?5?$CF?42@
CONST	SEGMENT
??_C@_0CG@MDJEGDDF@io?4DisplayFramebufferScale?3?5?$CF?42@ DB 'io.Display'
	DB	'FramebufferScale: %.2f,%.2f', 00H		; `string'
CONST	ENDS
;	COMDAT ??_C@_0BK@EIINOCEN@io?4DisplaySize?3?5?$CF?42f?0?$CF?42f@
CONST	SEGMENT
??_C@_0BK@EIINOCEN@io?4DisplaySize?3?5?$CF?42f?0?$CF?42f@ DB 'io.DisplayS'
	DB	'ize: %.2f,%.2f', 00H			; `string'
CONST	ENDS
;	COMDAT ??_C@_0DC@CPKPHKKN@io?4Fonts?3?5?$CFd?5fonts?0?5Flags?3?50x?$CF0@
CONST	SEGMENT
??_C@_0DC@CPKPHKKN@io?4Fonts?3?5?$CFd?5fonts?0?5Flags?3?50x?$CF0@ DB 'io.'
	DB	'Fonts: %d fonts, Flags: 0x%08X, TexSize: %d,%d', 00H ; `string'
CONST	ENDS
;	COMDAT ??_C@_0BG@GFLBPJOL@?5RendererHasVtxOffset@
CONST	SEGMENT
??_C@_0BG@GFLBPJOL@?5RendererHasVtxOffset@ DB ' RendererHasVtxOffset', 00H ; `string'
CONST	ENDS
;	COMDAT ??_C@_0BA@EKJHBGEP@?5HasSetMousePos@
CONST	SEGMENT
??_C@_0BA@EKJHBGEP@?5HasSetMousePos@ DB ' HasSetMousePos', 00H ; `string'
CONST	ENDS
;	COMDAT ??_C@_0BB@NNHFCGPM@?5HasMouseCursors@
CONST	SEGMENT
??_C@_0BB@NNHFCGPM@?5HasMouseCursors@ DB ' HasMouseCursors', 00H ; `string'
CONST	ENDS
;	COMDAT ??_C@_0M@MPABENKI@?5HasGamepad@
CONST	SEGMENT
??_C@_0M@MPABENKI@?5HasGamepad@ DB ' HasGamepad', 00H	; `string'
CONST	ENDS
;	COMDAT ??_C@_0BI@GNGLPDFI@io?4BackendFlags?3?50x?$CF08X@
CONST	SEGMENT
??_C@_0BI@GNGLPDFI@io?4BackendFlags?3?50x?$CF08X@ DB 'io.BackendFlags: 0x'
	DB	'%08X', 00H					; `string'
CONST	ENDS
;	COMDAT ??_C@_0CL@DGNIKDMB@io?4ConfigWindowsMemoryCompactTi@
CONST	SEGMENT
??_C@_0CL@DGNIKDMB@io?4ConfigWindowsMemoryCompactTi@ DB 'io.ConfigWindows'
	DB	'MemoryCompactTimer = %.1ff', 00H		; `string'
CONST	ENDS
;	COMDAT ??_C@_0BJ@PEAELIMN@io?4ConfigMacOSXBehaviors@
CONST	SEGMENT
??_C@_0BJ@PEAELIMN@io?4ConfigMacOSXBehaviors@ DB 'io.ConfigMacOSXBehavior'
	DB	's', 00H					; `string'
CONST	ENDS
;	COMDAT ??_C@_0BF@LKMNGEAI@?5NoMouseCursorChange@
CONST	SEGMENT
??_C@_0BF@LKMNGEAI@?5NoMouseCursorChange@ DB ' NoMouseCursorChange', 00H ; `string'
CONST	ENDS
;	COMDAT ??_C@_08GAJGGFEK@?5NoMouse@
CONST	SEGMENT
??_C@_08GAJGGFEK@?5NoMouse@ DB ' NoMouse', 00H		; `string'
CONST	ENDS
;	COMDAT ??_C@_0BG@DGPFDLKM@?5NavNoCaptureKeyboard@
CONST	SEGMENT
??_C@_0BG@DGPFDLKM@?5NavNoCaptureKeyboard@ DB ' NavNoCaptureKeyboard', 00H ; `string'
CONST	ENDS
;	COMDAT ??_C@_0BG@KOLHMNKG@?5NavEnableSetMousePos@
CONST	SEGMENT
??_C@_0BG@KOLHMNKG@?5NavEnableSetMousePos@ DB ' NavEnableSetMousePos', 00H ; `string'
CONST	ENDS
;	COMDAT ??_C@_0BC@PFLKKAGF@?5NavEnableGamepad@
CONST	SEGMENT
??_C@_0BC@PFLKKAGF@?5NavEnableGamepad@ DB ' NavEnableGamepad', 00H ; `string'
CONST	ENDS
;	COMDAT ??_C@_0BD@CKENCLMO@?5NavEnableKeyboard@
CONST	SEGMENT
??_C@_0BD@CKENCLMO@?5NavEnableKeyboard@ DB ' NavEnableKeyboard', 00H ; `string'
CONST	ENDS
;	COMDAT ??_C@_0BH@DILJIOHM@io?4ConfigFlags?3?50x?$CF08X@
CONST	SEGMENT
??_C@_0BH@DILJIOHM@io?4ConfigFlags?3?50x?$CF08X@ DB 'io.ConfigFlags: 0x%0'
	DB	'8X', 00H					; `string'
CONST	ENDS
;	COMDAT ??_C@_0BL@HCPCDKOE@io?4BackendRendererName?3?5?$CFs@
CONST	SEGMENT
??_C@_0BL@HCPCDKOE@io?4BackendRendererName?3?5?$CFs@ DB 'io.BackendRender'
	DB	'erName: %s', 00H				; `string'
CONST	ENDS
;	COMDAT ??_C@_0BL@DHJKNAPN@io?4BackendPlatformName?3?5?$CFs@
CONST	SEGMENT
??_C@_0BL@DHJKNAPN@io?4BackendPlatformName?3?5?$CFs@ DB 'io.BackendPlatfo'
	DB	'rmName: %s', 00H				; `string'
CONST	ENDS
;	COMDAT ??_C@_04HIBGFPH@NULL@
CONST	SEGMENT
??_C@_04HIBGFPH@NULL@ DB 'NULL', 00H			; `string'
CONST	ENDS
;	COMDAT ??_C@_0BE@JHNIDJHD@define?3?5_MSC_VER?$DN?$CFd@
CONST	SEGMENT
??_C@_0BE@JHNIDJHD@define?3?5_MSC_VER?$DN?$CFd@ DB 'define: _MSC_VER=%d', 00H ; `string'
CONST	ENDS
;	COMDAT ??_C@_0P@KFJLIPEJ@define?3?5_WIN32@
CONST	SEGMENT
??_C@_0P@KFJLIPEJ@define?3?5_WIN32@ DB 'define: _WIN32', 00H ; `string'
CONST	ENDS
;	COMDAT ??_C@_0BH@KGAJBCNH@define?3?5__cplusplus?$DN?$CFd@
CONST	SEGMENT
??_C@_0BH@KGAJBCNH@define?3?5__cplusplus?$DN?$CFd@ DB 'define: __cplusplu'
	DB	's=%d', 00H					; `string'
CONST	ENDS
;	COMDAT ??_C@_0EC@BJAMNCHD@sizeof?$CIsize_t?$CJ?3?5?$CFd?0?5sizeof?$CIImDr@
CONST	SEGMENT
??_C@_0EC@BJAMNCHD@sizeof?$CIsize_t?$CJ?3?5?$CFd?0?5sizeof?$CIImDr@ DB 's'
	DB	'izeof(size_t): %d, sizeof(ImDrawIdx): %d, sizeof(ImDrawVert):'
	DB	' %d', 00H					; `string'
CONST	ENDS
;	COMDAT ??_C@_0BD@GCCEJBGO@Dear?5ImGui?5?$CFs?5?$CI?$CFd?$CJ@
CONST	SEGMENT
??_C@_0BD@GCCEJBGO@Dear?5ImGui?5?$CFs?5?$CI?$CFd?$CJ@ DB 'Dear ImGui %s ('
	DB	'%d)', 00H					; `string'
CONST	ENDS
;	COMDAT ??_C@_04CJPBKLAG@?$GA?$GA?$GA?6@
CONST	SEGMENT
??_C@_04CJPBKLAG@?$GA?$GA?$GA?6@ DB '```', 0aH, 00H	; `string'
CONST	ENDS
;	COMDAT ??_C@_08HEKABECO@cfginfos@
CONST	SEGMENT
??_C@_08HEKABECO@cfginfos@ DB 'cfginfos', 00H		; `string'
CONST	ENDS
;	COMDAT ??_C@_0BC@JBNIPPJL@Copy?5to?5clipboard@
CONST	SEGMENT
??_C@_0BC@JBNIPPJL@Copy?5to?5clipboard@ DB 'Copy to clipboard', 00H ; `string'
CONST	ENDS
;	COMDAT ??_C@_0BJ@CEAKAMCE@Config?1Build?5Information@
CONST	SEGMENT
??_C@_0BJ@CEAKAMCE@Config?1Build?5Information@ DB 'Config/Build Informati'
	DB	'on', 00H					; `string'
CONST	ENDS
;	COMDAT ??_C@_0FA@NMHKMBMB@Dear?5ImGui?5is?5licensed?5under?5th@
CONST	SEGMENT
??_C@_0FA@NMHKMBMB@Dear?5ImGui?5is?5licensed?5under?5th@ DB 'Dear ImGui i'
	DB	's licensed under the MIT License, see LICENSE for more inform'
	DB	'ation.', 00H				; `string'
CONST	ENDS
;	COMDAT ??_C@_0DA@LADNBCJ@By?5Omar?5Cornut?5and?5all?5Dear?5ImG@
CONST	SEGMENT
??_C@_0DA@LADNBCJ@By?5Omar?5Cornut?5and?5all?5Dear?5ImG@ DB 'By Omar Corn'
	DB	'ut and all Dear ImGui contributors.', 00H	; `string'
CONST	ENDS
;	COMDAT ??_C@_0O@NCHBJMJF@Dear?5ImGui?5?$CFs@
CONST	SEGMENT
??_C@_0O@NCHBJMJF@Dear?5ImGui?5?$CFs@ DB 'Dear ImGui %s', 00H ; `string'
CONST	ENDS
;	COMDAT ??_C@_0BE@KDPKCDI@Mouse?5cursor?5?$CFd?3?5?$CFs@
CONST	SEGMENT
??_C@_0BE@KDPKCDI@Mouse?5cursor?5?$CFd?3?5?$CFs@ DB 'Mouse cursor %d: %s', 00H ; `string'
CONST	ENDS
;	COMDAT ??_C@_0PC@CDIOEKMA@Your?5application?5can?5render?5a?5d@
CONST	SEGMENT
??_C@_0PC@CDIOEKMA@Your?5application?5can?5render?5a?5d@ DB 'Your applica'
	DB	'tion can render a different mouse cursor based on what ImGui:'
	DB	':GetMouseCursor() returns. If software cursor rendering (io.M'
	DB	'ouseDrawCursor) is set ImGui will draw the right cursor for y'
	DB	'ou, otherwise your backend needs to handle it.', 00H ; `string'
CONST	ENDS
;	COMDAT ??_C@_0BM@MCMILHH@Hover?5to?5see?5mouse?5cursors?3@
CONST	SEGMENT
??_C@_0BM@MCMILHH@Hover?5to?5see?5mouse?5cursors?3@ DB 'Hover to see mous'
	DB	'e cursors:', 00H				; `string'
CONST	ENDS
;	COMDAT ??_C@_0BO@CHGMKDBB@Current?5mouse?5cursor?5?$DN?5?$CFd?3?5?$CFs@
CONST	SEGMENT
??_C@_0BO@CHGMKDBB@Current?5mouse?5cursor?5?$DN?5?$CFd?3?5?$CFs@ DB 'Curr'
	DB	'ent mouse cursor = %d: %s', 00H		; `string'
CONST	ENDS
;	COMDAT ??_C@_0L@OJPFEFMM@NotAllowed@
CONST	SEGMENT
??_C@_0L@OJPFEFMM@NotAllowed@ DB 'NotAllowed', 00H	; `string'
CONST	ENDS
;	COMDAT ??_C@_04JBBMMDIF@Hand@
CONST	SEGMENT
??_C@_04JBBMMDIF@Hand@ DB 'Hand', 00H			; `string'
CONST	ENDS
;	COMDAT ??_C@_0L@MHCCEKFE@ResizeNWSE@
CONST	SEGMENT
??_C@_0L@MHCCEKFE@ResizeNWSE@ DB 'ResizeNWSE', 00H	; `string'
CONST	ENDS
;	COMDAT ??_C@_0L@EFMGKFJD@ResizeNESW@
CONST	SEGMENT
??_C@_0L@EFMGKFJD@ResizeNESW@ DB 'ResizeNESW', 00H	; `string'
CONST	ENDS
;	COMDAT ??_C@_08BDBDMDLN@ResizeEW@
CONST	SEGMENT
??_C@_08BDBDMDLN@ResizeEW@ DB 'ResizeEW', 00H		; `string'
CONST	ENDS
;	COMDAT ??_C@_08HLCKOJFI@ResizeNS@
CONST	SEGMENT
??_C@_08HLCKOJFI@ResizeNS@ DB 'ResizeNS', 00H		; `string'
CONST	ENDS
;	COMDAT ??_C@_09NLNHGFHP@ResizeAll@
CONST	SEGMENT
??_C@_09NLNHGFHP@ResizeAll@ DB 'ResizeAll', 00H		; `string'
CONST	ENDS
;	COMDAT ??_C@_09KBOPCPBA@TextInput@
CONST	SEGMENT
??_C@_09KBOPCPBA@TextInput@ DB 'TextInput', 00H		; `string'
CONST	ENDS
;	COMDAT ??_C@_05OLOIDPAB@Arrow@
CONST	SEGMENT
??_C@_05OLOIDPAB@Arrow@ DB 'Arrow', 00H			; `string'
CONST	ENDS
;	COMDAT ??_C@_0O@LHBMJOCH@Mouse?5cursors@
CONST	SEGMENT
??_C@_0O@LHBMJOCH@Mouse?5cursors@ DB 'Mouse cursors', 00H ; `string'
CONST	ENDS
;	COMDAT ??_C@_0HH@LIOOGCHA@GetMouseDragDelta?$CI0?$CJ?3?6?5?5w?1?5defa@
CONST	SEGMENT
??_C@_0HH@LIOOGCHA@GetMouseDragDelta?$CI0?$CJ?3?6?5?5w?1?5defa@ DB 'GetMo'
	DB	'useDragDelta(0):', 0aH, '  w/ default threshold: (%.1f, %.1f)'
	DB	',', 0aH, '  w/ zero threshold: (%.1f, %.1f)', 0aH, 'MouseDelt'
	DB	'a: (%.1f, %.1f)', 00H			; `string'
CONST	ENDS
;	COMDAT ??_C@_07GELNHEGO@Drag?5Me@
CONST	SEGMENT
??_C@_07GELNHEGO@Drag?5Me@ DB 'Drag Me', 00H		; `string'
CONST	ENDS
;	COMDAT ??_C@_0GC@PPDGANOJ@IsMouseDragging?$CI?$CFd?$CJ?3?6?5?5w?1?5defau@
CONST	SEGMENT
??_C@_0GC@PPDGANOJ@IsMouseDragging?$CI?$CFd?$CJ?3?6?5?5w?1?5defau@ DB 'Is'
	DB	'MouseDragging(%d):', 0aH, '  w/ default threshold: %d,', 0aH, ' '
	DB	' w/ zero threshold: %d', 0aH, '  w/ large threshold: %d', 00H ; `string'
CONST	ENDS
;	COMDAT ??_C@_0FH@PFEFFOMN@You?5can?5use?5ImGui?3?3GetMouseDrag@
CONST	SEGMENT
??_C@_0FH@PFEFFOMN@You?5can?5use?5ImGui?3?3GetMouseDrag@ DB 'You can use '
	DB	'ImGui::GetMouseDragDelta(0) to query for the dragged amount o'
	DB	'n any widget.', 00H				; `string'
CONST	ENDS
;	COMDAT ??_C@_08EJAEFPJK@Dragging@
CONST	SEGMENT
??_C@_08EJAEFPJK@Dragging@ DB 'Dragging', 00H		; `string'
CONST	ENDS
;	COMDAT ??_C@_0EN@KGJCPIPJ@NB?3?5Cursor?5?$CG?5selection?5are?5pres@
CONST	SEGMENT
??_C@_0EN@KGJCPIPJ@NB?3?5Cursor?5?$CG?5selection?5are?5pres@ DB 'NB: Curs'
	DB	'or & selection are preserved when refocusing last used item i'
	DB	'n code.', 00H				; `string'
CONST	ENDS
;	COMDAT ??_C@_06FBFHKKF@Float3@
CONST	SEGMENT
??_C@_06FBFHKKF@Float3@ DB 'Float3', 00H		; `string'
CONST	ENDS
;	COMDAT ??_C@_0L@GJJJLMMF@Focus?5on?5Z@
CONST	SEGMENT
??_C@_0L@GJJJLMMF@Focus?5on?5Z@ DB 'Focus on Z', 00H	; `string'
CONST	ENDS
;	COMDAT ??_C@_0L@ECLEOPAG@Focus?5on?5Y@
CONST	SEGMENT
??_C@_0L@ECLEOPAG@Focus?5on?5Y@ DB 'Focus on Y', 00H	; `string'
CONST	ENDS
;	COMDAT ??_C@_0L@FLKPNOEH@Focus?5on?5X@
CONST	SEGMENT
??_C@_0L@FLKPNOEH@Focus?5on?5X@ DB 'Focus on X', 00H	; `string'
CONST	ENDS
;	COMDAT ??_C@_0BI@EPMJCFDB@Item?5with?5focus?3?5?$DMnone?$DO@
CONST	SEGMENT
??_C@_0BI@EPMJCFDB@Item?5with?5focus?3?5?$DMnone?$DO@ DB 'Item with focus'
	DB	': <none>', 00H				; `string'
CONST	ENDS
;	COMDAT ??_C@_0BE@PCNBLNDG@Item?5with?5focus?3?5?$CFd@
CONST	SEGMENT
??_C@_0BE@PCNBLNDG@Item?5with?5focus?3?5?$CFd@ DB 'Item with focus: %d', 00H ; `string'
CONST	ENDS
;	COMDAT ??_C@_0N@LCFCNFKI@3?5?$CItab?5skip?$CJ@
CONST	SEGMENT
??_C@_0N@LCFCNFKI@3?5?$CItab?5skip?$CJ@ DB '3 (tab skip)', 00H ; `string'
CONST	ENDS
;	COMDAT ??_C@_0L@NNKGGMCL@Focus?5on?53@
CONST	SEGMENT
??_C@_0L@NNKGGMCL@Focus?5on?53@ DB 'Focus on 3', 00H	; `string'
CONST	ENDS
;	COMDAT ??_C@_0L@MELNFNGK@Focus?5on?52@
CONST	SEGMENT
??_C@_0L@MELNFNGK@Focus?5on?52@ DB 'Focus on 2', 00H	; `string'
CONST	ENDS
;	COMDAT ??_C@_0L@OPJAAOKJ@Focus?5on?51@
CONST	SEGMENT
??_C@_0L@OPJAAOKJ@Focus?5on?51@ DB 'Focus on 1', 00H	; `string'
CONST	ENDS
;	COMDAT ??_C@_0BA@PGBLAHMK@Focus?5from?5code@
CONST	SEGMENT
??_C@_0BA@PGBLAHMK@Focus?5from?5code@ DB 'Focus from code', 00H ; `string'
CONST	ENDS
;	COMDAT ??_C@_01BMBHCPLG@5@
CONST	SEGMENT
??_C@_01BMBHCPLG@5@ DB '5', 00H				; `string'
CONST	ENDS
;	COMDAT ??_C@_0N@MPCBNDPA@4?5?$CItab?5skip?$CJ@
CONST	SEGMENT
??_C@_0N@MPCBNDPA@4?5?$CItab?5skip?$CJ@ DB '4 (tab skip)', 00H ; `string'
CONST	ENDS
;	COMDAT ??_C@_01EKENIIDA@3@
CONST	SEGMENT
??_C@_01EKENIIDA@3@ DB '3', 00H				; `string'
CONST	ENDS
;	COMDAT ??_C@_01FDFGLJHB@2@
CONST	SEGMENT
??_C@_01FDFGLJHB@2@ DB '2', 00H				; `string'
CONST	ENDS
;	COMDAT ??_C@_01HIHLOKLC@1@
CONST	SEGMENT
??_C@_01HIHLOKLC@1@ DB '1', 00H				; `string'
CONST	ENDS
;	COMDAT ??_C@_0DN@DBMIKJE@Use?5TAB?1SHIFT?$CLTAB?5to?5cycle?5thro@
CONST	SEGMENT
??_C@_0DN@DBMIKJE@Use?5TAB?1SHIFT?$CLTAB?5to?5cycle?5thro@ DB 'Use TAB/SH'
	DB	'IFT+TAB to cycle through keyboard editable fields.', 00H ; `string'
CONST	ENDS
;	COMDAT ??_C@_07OOGFLDEE@Tabbing@
CONST	SEGMENT
??_C@_07OOGFLDEE@Tabbing@ DB 'Tabbing', 00H		; `string'
CONST	ENDS
;	COMDAT ??_C@_0DA@JDENAPEM@Holding?5me?5clears?5the?6the?5keybo@
CONST	SEGMENT
??_C@_0DA@JDENAPEM@Holding?5me?5clears?5the?6the?5keybo@ DB 'Holding me c'
	DB	'lears the', 0aH, 'the keyboard capture flag', 00H ; `string'
CONST	ENDS
;	COMDAT ??_C@_0CL@NJDOKPGI@Hovering?5me?5sets?5the?6keyboard?5c@
CONST	SEGMENT
??_C@_0CL@NJDOKPGI@Hovering?5me?5sets?5the?6keyboard?5c@ DB 'Hovering me '
	DB	'sets the', 0aH, 'keyboard capture flag', 00H ; `string'
CONST	ENDS
;	COMDAT ??_C@_0BE@OEEOJMCL@NavInputs?5duration?3@
CONST	SEGMENT
??_C@_0BE@OEEOJMCL@NavInputs?5duration?3@ DB 'NavInputs duration:', 00H ; `string'
CONST	ENDS
;	COMDAT ??_C@_04KBDJOJNB@?$FL?$CFd?$FN@
CONST	SEGMENT
??_C@_04KBDJOJNB@?$FL?$CFd?$FN@ DB '[%d]', 00H		; `string'
CONST	ENDS
;	COMDAT ??_C@_0BD@LLKFPGJD@NavInputs?5pressed?3@
CONST	SEGMENT
??_C@_0BD@LLKFPGJD@NavInputs?5pressed?3@ DB 'NavInputs pressed:', 00H ; `string'
CONST	ENDS
;	COMDAT ??_C@_09NJGMILHM@?$FL?$CFd?$FN?5?$CF?42f@
CONST	SEGMENT
??_C@_09NJGMILHM@?$FL?$CFd?$FN?5?$CF?42f@ DB '[%d] %.2f', 00H ; `string'
CONST	ENDS
;	COMDAT ??_C@_0BA@LIMLNKOJ@NavInputs?5down?3@
CONST	SEGMENT
??_C@_0BA@LIMLNKOJ@NavInputs?5down?3@ DB 'NavInputs down:', 00H ; `string'
CONST	ENDS
;	COMDAT ??_C@_0O@FLAJMFCG@?8?$CFc?8?5?$CI0x?$CF04X?$CJ@
CONST	SEGMENT
??_C@_0O@FLAJMFCG@?8?$CFc?8?5?$CI0x?$CF04X?$CJ@ DB '''%c'' (0x%04X)', 00H ; `string'
CONST	ENDS
;	COMDAT ??_C@_0N@PKFKOHDJ@Chars?5queue?3@
CONST	SEGMENT
??_C@_0N@PKFKOHDJ@Chars?5queue?3@ DB 'Chars queue:', 00H ; `string'
CONST	ENDS
;	COMDAT ??_C@_0BE@HPBGOMPC@Keys?5mods?3?5?$CFs?$CFs?$CFs?$CFs@
CONST	SEGMENT
??_C@_0BE@HPBGOMPC@Keys?5mods?3?5?$CFs?$CFs?$CFs?$CFs@ DB 'Keys mods: %s%'
	DB	's%s%s', 00H					; `string'
CONST	ENDS
;	COMDAT ??_C@_05IHGCNILK@CTRL?5@
CONST	SEGMENT
??_C@_05IHGCNILK@CTRL?5@ DB 'CTRL ', 00H		; `string'
CONST	ENDS
;	COMDAT ??_C@_06IGAIMELN@SHIFT?5@
CONST	SEGMENT
??_C@_06IGAIMELN@SHIFT?5@ DB 'SHIFT ', 00H		; `string'
CONST	ENDS
;	COMDAT ??_C@_04HDLNDMFA@ALT?5@
CONST	SEGMENT
??_C@_04HDLNDMFA@ALT?5@ DB 'ALT ', 00H			; `string'
CONST	ENDS
;	COMDAT ??_C@_06ECIIPDFH@SUPER?5@
CONST	SEGMENT
??_C@_06ECIIPDFH@SUPER?5@ DB 'SUPER ', 00H		; `string'
CONST	ENDS
;	COMDAT ??_C@_0O@EGHLNEOH@Keys?5release?3@
CONST	SEGMENT
??_C@_0O@EGHLNEOH@Keys?5release?3@ DB 'Keys release:', 00H ; `string'
CONST	ENDS
;	COMDAT ??_C@_09MNHHIJFE@?$CFd?5?$CI0x?$CFX?$CJ@
CONST	SEGMENT
??_C@_09MNHHIJFE@?$CFd?5?$CI0x?$CFX?$CJ@ DB '%d (0x%X)', 00H ; `string'
CONST	ENDS
;	COMDAT ??_C@_0O@DAHEMGJA@Keys?5pressed?3@
CONST	SEGMENT
??_C@_0O@DAHEMGJA@Keys?5pressed?3@ DB 'Keys pressed:', 00H ; `string'
CONST	ENDS
;	COMDAT ??_C@_0BH@EIGPEOBP@?$CFd?5?$CI0x?$CFX?$CJ?5?$CI?$CF?402f?5secs?$CJ@
CONST	SEGMENT
??_C@_0BH@EIGPEOBP@?$CFd?5?$CI0x?$CFX?$CJ?5?$CI?$CF?402f?5secs?$CJ@ DB '%'
	DB	'd (0x%X) (%.02f secs)', 00H			; `string'
CONST	ENDS
;	COMDAT ??_C@_0L@POLCMIEL@Keys?5down?3@
CONST	SEGMENT
??_C@_0L@POLCMIEL@Keys?5down?3@ DB 'Keys down:', 00H	; `string'
CONST	ENDS
;	COMDAT ??_C@_0BC@CFHNPKHB@Mouse?5wheel?3?5?$CF?41f@
CONST	SEGMENT
??_C@_0BC@CFHNPKHB@Mouse?5wheel?3?5?$CF?41f@ DB 'Mouse wheel: %.1f', 00H ; `string'
CONST	ENDS
;	COMDAT ??_C@_0BA@NMIOGEHG@Mouse?5released?3@
CONST	SEGMENT
??_C@_0BA@NMIOGEHG@Mouse?5released?3@ DB 'Mouse released:', 00H ; `string'
CONST	ENDS
;	COMDAT ??_C@_0BD@IEMOMOGE@Mouse?5dbl?9clicked?3@
CONST	SEGMENT
??_C@_0BD@IEMOMOGE@Mouse?5dbl?9clicked?3@ DB 'Mouse dbl-clicked:', 00H ; `string'
CONST	ENDS
;	COMDAT ??_C@_03HAIDDFMD@b?$CFd@
CONST	SEGMENT
??_C@_03HAIDDFMD@b?$CFd@ DB 'b%d', 00H			; `string'
CONST	ENDS
;	COMDAT ??_C@_0P@KEMIOLDA@Mouse?5clicked?3@
CONST	SEGMENT
??_C@_0P@KEMIOLDA@Mouse?5clicked?3@ DB 'Mouse clicked:', 00H ; `string'
CONST	ENDS
;	COMDAT ??_C@_0BB@BCIHMLII@b?$CFd?5?$CI?$CF?402f?5secs?$CJ@
CONST	SEGMENT
??_C@_0BB@BCIHMLII@b?$CFd?5?$CI?$CF?402f?5secs?$CJ@ DB 'b%d (%.02f secs)', 00H ; `string'
CONST	ENDS
;	COMDAT ??_C@_0M@HODNMGFJ@Mouse?5down?3@
CONST	SEGMENT
??_C@_0M@HODNMGFJ@Mouse?5down?3@ DB 'Mouse down:', 00H	; `string'
CONST	ENDS
;	COMDAT ??_C@_0BG@MNNMKHFC@Mouse?5delta?3?5?$CI?$CFg?0?5?$CFg?$CJ@
CONST	SEGMENT
??_C@_0BG@MNNMKHFC@Mouse?5delta?3?5?$CI?$CFg?0?5?$CFg?$CJ@ DB 'Mouse delt'
	DB	'a: (%g, %g)', 00H				; `string'
CONST	ENDS
;	COMDAT ??_C@_0BF@BCIGOCNH@Mouse?5pos?3?5?$DMINVALID?$DO@
CONST	SEGMENT
??_C@_0BF@BCIGOCNH@Mouse?5pos?3?5?$DMINVALID?$DO@ DB 'Mouse pos: <INVALID'
	DB	'>', 00H					; `string'
CONST	ENDS
;	COMDAT ??_C@_0BE@HGGCPGOH@Mouse?5pos?3?5?$CI?$CFg?0?5?$CFg?$CJ@
CONST	SEGMENT
??_C@_0BE@HGGCPGOH@Mouse?5pos?3?5?$CI?$CFg?0?5?$CFg?$CJ@ DB 'Mouse pos: ('
	DB	'%g, %g)', 00H				; `string'
CONST	ENDS
;	COMDAT ??_C@_0CD@IMLPMLDN@Keyboard?0?5Mouse?5?$CG?5Navigation?5St@
CONST	SEGMENT
??_C@_0CD@IMLPMLDN@Keyboard?0?5Mouse?5?$CG?5Navigation?5St@ DB 'Keyboard,'
	DB	' Mouse & Navigation State', 00H		; `string'
CONST	ENDS
;	COMDAT ??_C@_0BO@PADIALFI@NavActive?3?5?$CFd?0?5NavVisible?3?5?$CFd@
CONST	SEGMENT
??_C@_0BO@PADIALFI@NavActive?3?5?$CFd?0?5NavVisible?3?5?$CFd@ DB 'NavActi'
	DB	've: %d, NavVisible: %d', 00H		; `string'
CONST	ENDS
;	COMDAT ??_C@_0BE@HMNMIAK@WantSetMousePos?3?5?$CFd@
CONST	SEGMENT
??_C@_0BE@HMNMIAK@WantSetMousePos?3?5?$CFd@ DB 'WantSetMousePos: %d', 00H ; `string'
CONST	ENDS
;	COMDAT ??_C@_0BC@MNILMHJG@WantTextInput?3?5?$CFd@
CONST	SEGMENT
??_C@_0BC@MNILMHJG@WantTextInput?3?5?$CFd@ DB 'WantTextInput: %d', 00H ; `string'
CONST	ENDS
;	COMDAT ??_C@_0BI@FJJPGPBI@WantCaptureKeyboard?3?5?$CFd@
CONST	SEGMENT
??_C@_0BI@FJJPGPBI@WantCaptureKeyboard?3?5?$CFd@ DB 'WantCaptureKeyboard:'
	DB	' %d', 00H					; `string'
CONST	ENDS
;	COMDAT ??_C@_0BF@MACLOFOD@WantCaptureMouse?3?5?$CFd@
CONST	SEGMENT
??_C@_0BF@MACLOFOD@WantCaptureMouse?3?5?$CFd@ DB 'WantCaptureMouse: %d', 00H ; `string'
CONST	ENDS
;	COMDAT ??_C@_0BL@IKGEMPPN@Inputs?0?5Navigation?5?$CG?5Focus@
CONST	SEGMENT
??_C@_0BL@IKGEMPPN@Inputs?0?5Navigation?5?$CG?5Focus@ DB 'Inputs, Navigat'
	DB	'ion & Focus', 00H				; `string'
CONST	ENDS
;	COMDAT ??_C@_02DKCKIIND@?$CFs@
CONST	SEGMENT
??_C@_02DKCKIIND@?$CFs@ DB '%s', 00H			; `string'
CONST	ENDS
;	COMDAT ??_C@_0N@OLAOGCLC@hello?0?5world@
CONST	SEGMENT
??_C@_0N@OLAOGCLC@hello?0?5world@ DB 'hello, world', 00H ; `string'
CONST	ENDS
;	COMDAT ??_C@_05NIADHECG@abc?4h@
CONST	SEGMENT
??_C@_05NIADHECG@abc?4h@ DB 'abc.h', 00H		; `string'
CONST	ENDS
;	COMDAT ??_C@_08PNDMNJJI@ccc2?4cpp@
CONST	SEGMENT
??_C@_08PNDMNJJI@ccc2?4cpp@ DB 'ccc2.cpp', 00H		; `string'
CONST	ENDS
;	COMDAT ??_C@_08IAJKMGPB@bbb2?4cpp@
CONST	SEGMENT
??_C@_08IAJKMGPB@bbb2?4cpp@ DB 'bbb2.cpp', 00H		; `string'
CONST	ENDS
;	COMDAT ??_C@_08GHAOHEK@aaa2?4cpp@
CONST	SEGMENT
??_C@_08GHAOHEK@aaa2?4cpp@ DB 'aaa2.cpp', 00H		; `string'
CONST	ENDS
;	COMDAT ??_C@_06LMKLMKNK@ccc1?4c@
CONST	SEGMENT
??_C@_06LMKLMKNK@ccc1?4c@ DB 'ccc1.c', 00H		; `string'
CONST	ENDS
;	COMDAT ??_C@_06OMOADLHL@bbb1?4c@
CONST	SEGMENT
??_C@_06OMOADLHL@bbb1?4c@ DB 'bbb1.c', 00H		; `string'
CONST	ENDS
;	COMDAT ??_C@_06BMDMCJJI@aaa1?4c@
CONST	SEGMENT
??_C@_06BMDMCJJI@aaa1?4c@ DB 'aaa1.c', 00H		; `string'
CONST	ENDS
;	COMDAT ??_C@_0BC@HPCLFOON@Filter?5?$CIinc?0?9exc?$CJ@
CONST	SEGMENT
??_C@_0BC@HPCLFOON@Filter?5?$CIinc?0?9exc?$CJ@ DB 'Filter (inc,-exc)', 00H ; `string'
CONST	ENDS
;	COMDAT ??_C@_0LH@KANOFBLE@Filter?5usage?3?6?5?5?$CC?$CC?5?5?5?5?5?5?5?5?5disp@
CONST	SEGMENT
??_C@_0LH@KANOFBLE@Filter?5usage?3?6?5?5?$CC?$CC?5?5?5?5?5?5?5?5?5disp@ DB 'F'
	DB	'ilter usage:', 0aH, '  ""         display all lines', 0aH, ' '
	DB	' "xxx"      display lines containing "xxx"', 0aH, '  "xxx,yyy'
	DB	'"  display lines containing "xxx" or "yyy"', 0aH, '  "-xxx"  '
	DB	'   hide lines containing "xxx"', 00H	; `string'
CONST	ENDS
;	COMDAT ??_C@_09BFICBINI@Filtering@
CONST	SEGMENT
??_C@_09BFICBINI@Filtering@ DB 'Filtering', 00H		; `string'
CONST	ENDS
;	COMDAT ??_C@_0CM@HCLJNHNJ@The?5quick?5brown?5fox?5jumps?5over?5@
CONST	SEGMENT
??_C@_0CM@HCLJNHNJ@The?5quick?5brown?5fox?5jumps?5over?5@ DB 'The quick b'
	DB	'rown fox jumps over the lazy dog', 00H	; `string'
CONST	ENDS
;	COMDAT ??_C@_0P@LKPCNPLG@Tree?5in?5column@
CONST	SEGMENT
??_C@_0P@LKPCNPLG@Tree?5in?5column@ DB 'Tree in column', 00H ; `string'
CONST	ENDS
;	COMDAT ??_C@_0BD@MJPJLCIK@Even?5more?5contents@
CONST	SEGMENT
??_C@_0BD@MJPJLCIK@Even?5more?5contents@ DB 'Even more contents', 00H ; `string'
CONST	ENDS
;	COMDAT ??_C@_09NGNKJEEB@Node?$CFd?4?$CFd@
CONST	SEGMENT
??_C@_09NGNKJEEB@Node?$CFd?4?$CFd@ DB 'Node%d.%d', 00H	; `string'
CONST	ENDS
;	COMDAT ??_C@_0O@DCLBKAFC@Node?5contents@
CONST	SEGMENT
??_C@_0O@DCLBKAFC@Node?5contents@ DB 'Node contents', 00H ; `string'
CONST	ENDS
;	COMDAT ??_C@_06NAFIGPDO@Node?$CFd@
CONST	SEGMENT
??_C@_06NAFIGPDO@Node?$CFd@ DB 'Node%d', 00H		; `string'
CONST	ENDS
;	COMDAT ??_C@_04KCCPLAND@tree@
CONST	SEGMENT
??_C@_04KCCPLAND@tree@ DB 'tree', 00H			; `string'
CONST	ENDS
;	COMDAT ??_C@_04GDOOJPNH@Tree@
CONST	SEGMENT
??_C@_04GDOOJPNH@Tree@ DB 'Tree', 00H			; `string'
CONST	ENDS
;	COMDAT ??_C@_0BF@OFLPNIGP@Line?5?$CFd?5Column?5?$CFd?4?4?4@
CONST	SEGMENT
??_C@_0BF@OFLPNIGP@Line?5?$CFd?5Column?5?$CFd?4?4?4@ DB 'Line %d Column %'
	DB	'd...', 00H					; `string'
CONST	ENDS
;	COMDAT ??_C@_0BC@OPBMFBNO@?$CD?$CDScrollingRegion@
CONST	SEGMENT
??_C@_0BC@OPBMFBNO@?$CD?$CDScrollingRegion@ DB '##ScrollingRegion', 00H ; `string'
CONST	ENDS
;	COMDAT ??_C@_0BF@EDLEGCAK@Horizontal?5Scrolling@
CONST	SEGMENT
??_C@_0BF@EDLEGCAK@Horizontal?5Scrolling@ DB 'Horizontal Scrolling', 00H ; `string'
CONST	ENDS
;	COMDAT ??_C@_0M@FKDOIKDB@Hello?5Right@
CONST	SEGMENT
??_C@_0M@FKDOIKDB@Hello?5Right@ DB 'Hello Right', 00H	; `string'
CONST	ENDS
;	COMDAT ??_C@_0L@BOIODOOK@Hello?5Left@
CONST	SEGMENT
??_C@_0L@BOIODOOK@Hello?5Left@ DB 'Hello Left', 00H	; `string'
CONST	ENDS
;	COMDAT ??_C@_0CN@PEHKNKIL@The?5quick?5brown?5fox?5jumps?5over?5@
CONST	SEGMENT
??_C@_0CN@PEHKNKIL@The?5quick?5brown?5fox?5jumps?5over?5@ DB 'The quick b'
	DB	'rown fox jumps over the lazy dog.', 00H	; `string'
CONST	ENDS
;	COMDAT ??_C@_0O@JBOHNDAK@word?9wrapping@
CONST	SEGMENT
??_C@_0O@JBOHNDAK@word?9wrapping@ DB 'word-wrapping', 00H ; `string'
CONST	ENDS
;	COMDAT ??_C@_0O@FMIDKLNC@Word?9wrapping@
CONST	SEGMENT
??_C@_0O@FMIDKLNC@Word?9wrapping@ DB 'Word-wrapping', 00H ; `string'
CONST	ENDS
;	COMDAT ??_C@_0L@BBDMKLMO@Category?5C@
CONST	SEGMENT
??_C@_0L@BBDMKLMO@Category?5C@ DB 'Category C', 00H	; `string'
CONST	ENDS
;	COMDAT ??_C@_0L@ICHJKIP@Category?5B@
CONST	SEGMENT
??_C@_0L@ICHJKIP@Category?5B@ DB 'Category B', 00H	; `string'
CONST	ENDS
;	COMDAT ??_C@_0P@CNBMJDEI@Blah?5blah?5blah@
CONST	SEGMENT
??_C@_0P@CNBMJDEI@Blah?5blah?5blah@ DB 'Blah blah blah', 00H ; `string'
CONST	ENDS
;	COMDAT ??_C@_0L@CDAKMJEM@Category?5A@
CONST	SEGMENT
??_C@_0L@CDAKMJEM@Category?5A@ DB 'Category A', 00H	; `string'
CONST	ENDS
;	COMDAT ??_C@_04OBGPFBCN@blue@
CONST	SEGMENT
??_C@_04OBGPFBCN@blue@ DB 'blue', 00H			; `string'
CONST	ENDS
;	COMDAT ??_C@_0BE@OADKLHKC@An?5extra?5line?5here?4@
CONST	SEGMENT
??_C@_0BE@OADKLHKC@An?5extra?5line?5here?4@ DB 'An extra line here.', 00H ; `string'
CONST	ENDS
;	COMDAT ??_C@_03FAAAOPJM@red@
CONST	SEGMENT
??_C@_03FAAAOPJM@red@ DB 'red', 00H			; `string'
CONST	ENDS
;	COMDAT ??_C@_05OHAOKMNF@ImGui@
CONST	SEGMENT
??_C@_05OHAOKMNF@ImGui@ DB 'ImGui', 00H			; `string'
CONST	ENDS
;	COMDAT ??_C@_05IPHDHIPP@mixed@
CONST	SEGMENT
??_C@_05IPHDHIPP@mixed@ DB 'mixed', 00H			; `string'
CONST	ENDS
;	COMDAT ??_C@_0M@CEFNMID@Mixed?5items@
CONST	SEGMENT
??_C@_0M@CEFNMID@Mixed?5items@ DB 'Mixed items', 00H	; `string'
CONST	ENDS
;	COMDAT ??_C@_0CB@CDDJNDCG@Long?5text?5that?5is?5likely?5to?5cli@
CONST	SEGMENT
??_C@_0CB@CDDJNDCG@Long?5text?5that?5is?5likely?5to?5cli@ DB 'Long text t'
	DB	'hat is likely to clip', 00H			; `string'
CONST	ENDS
;	COMDAT ??_C@_0M@LBGPBMDK@Offset?5?$CF?42f@
CONST	SEGMENT
??_C@_0M@LBGPBMDK@Offset?5?$CF?42f@ DB 'Offset %.2f', 00H ; `string'
CONST	ENDS
;	COMDAT ??_C@_0L@OKGLPFJF@Avail?5?$CF?42f@
CONST	SEGMENT
??_C@_0L@OKGLPFJF@Avail?5?$CF?42f@ DB 'Avail %.2f', 00H	; `string'
CONST	ENDS
;	COMDAT ??_C@_06CBJCAPLI@?$CFc?$CFc?$CFc@
CONST	SEGMENT
??_C@_06CBJCAPLI@?$CFc?$CFc?$CFc@ DB '%c%c%c', 00H	; `string'
CONST	ENDS
;	COMDAT ??_C@_08NEOMLJGJ@vertical@
CONST	SEGMENT
??_C@_08NEOMLJGJ@vertical@ DB 'vertical', 00H		; `string'
CONST	ENDS
;	COMDAT ??_C@_0L@LMMKHPOB@horizontal@
CONST	SEGMENT
??_C@_0L@LMMKHPOB@horizontal@ DB 'horizontal', 00H	; `string'
CONST	ENDS
;	COMDAT ??_C@_0BA@EIBKBIKG@?$CD?$CDcolumns_count@
CONST	SEGMENT
??_C@_0BA@EIBKBIKG@?$CD?$CDcolumns_count@ DB '##columns_count', 00H ; `string'
CONST	ENDS
;	COMDAT ??_C@_0L@NLMHJDCE@?$CFd?5columns@
CONST	SEGMENT
??_C@_0L@NLMHJDCE@?$CFd?5columns@ DB '%d columns', 00H	; `string'
CONST	ENDS
;	COMDAT ??_C@_07PJFMDFHH@Borders@
CONST	SEGMENT
??_C@_07PJFMDFHH@Borders@ DB 'Borders', 00H		; `string'
CONST	ENDS
;	COMDAT ??_C@_04OCCELDNI@?$CF04d@
CONST	SEGMENT
??_C@_04OCCELDNI@?$CF04d@ DB '%04d', 00H		; `string'
CONST	ENDS
;	COMDAT ??_C@_0M@BHGNKNGD@?1path?1three@
CONST	SEGMENT
??_C@_0M@BHGNKNGD@?1path?1three@ DB '/path/three', 00H	; `string'
CONST	ENDS
;	COMDAT ??_C@_09KGFGFDII@?1path?1two@
CONST	SEGMENT
??_C@_09KGFGFDII@?1path?1two@ DB '/path/two', 00H	; `string'
CONST	ENDS
;	COMDAT ??_C@_09MIFGPDGD@?1path?1one@
CONST	SEGMENT
??_C@_09MIFGPDGD@?1path?1one@ DB '/path/one', 00H	; `string'
CONST	ENDS
;	COMDAT ??_C@_05OHMANGAP@Three@
CONST	SEGMENT
??_C@_05OHMANGAP@Three@ DB 'Three', 00H			; `string'
CONST	ENDS
;	COMDAT ??_C@_03CJAPLBKL@Two@
CONST	SEGMENT
??_C@_03CJAPLBKL@Two@ DB 'Two', 00H			; `string'
CONST	ENDS
;	COMDAT ??_C@_03EHAPBBEA@One@
CONST	SEGMENT
??_C@_03EHAPBBEA@One@ DB 'One', 00H			; `string'
CONST	ENDS
;	COMDAT ??_C@_07BPEJBMFM@Hovered@
CONST	SEGMENT
??_C@_07BPEJBMFM@Hovered@ DB 'Hovered', 00H		; `string'
CONST	ENDS
;	COMDAT ??_C@_04HMIIHGGM@Path@
CONST	SEGMENT
??_C@_04HMIIHGGM@Path@ DB 'Path', 00H			; `string'
CONST	ENDS
;	COMDAT ??_C@_04FABLJDN@Name@
CONST	SEGMENT
??_C@_04FABLJDN@Name@ DB 'Name', 00H			; `string'
CONST	ENDS
;	COMDAT ??_C@_02OLOABKKD@ID@
CONST	SEGMENT
??_C@_02OLOABKKD@ID@ DB 'ID', 00H			; `string'
CONST	ENDS
;	COMDAT ??_C@_09IGOFLFMM@mycolumns@
CONST	SEGMENT
??_C@_09IGOFLFMM@mycolumns@ DB 'mycolumns', 00H		; `string'
CONST	ENDS
;	COMDAT ??_C@_0N@IEPPLKGA@With?5border?3@
CONST	SEGMENT
??_C@_0N@IEPPLKGA@With?5border?3@ DB 'With border:', 00H ; `string'
CONST	ENDS
;	COMDAT ??_C@_0L@GGDPAOBO@mycolumns3@
CONST	SEGMENT
??_C@_0L@GGDPAOBO@mycolumns3@ DB 'mycolumns3', 00H	; `string'
CONST	ENDS
;	COMDAT ??_C@_0BA@KGDHMKCI@Without?5border?3@
CONST	SEGMENT
??_C@_0BA@KGDHMKCI@Without?5border?3@ DB 'Without border:', 00H ; `string'
CONST	ENDS
;	COMDAT ??_C@_0FD@EHJEKNDN@Disable?5the?5indenting?5of?5tree?5n@
CONST	SEGMENT
??_C@_0FD@EHJEKNDN@Disable?5the?5indenting?5of?5tree?5n@ DB 'Disable the '
	DB	'indenting of tree nodes so demo columns can use the full wind'
	DB	'ow width.', 00H				; `string'
CONST	ENDS
;	COMDAT ??_C@_0BJ@JLFJACII@Disable?5tree?5indentation@
CONST	SEGMENT
??_C@_0BJ@JLFJACII@Disable?5tree?5indentation@ DB 'Disable tree indentati'
	DB	'on', 00H					; `string'
CONST	ENDS
;	COMDAT ??_C@_0BN@MFBALFLF@Menu?5inside?5a?5regular?5window@
CONST	SEGMENT
??_C@_0BN@MFBALFLF@Menu?5inside?5a?5regular?5window@ DB 'Menu inside a re'
	DB	'gular window', 00H				; `string'
CONST	ENDS
;	COMDAT ??_C@_09PDGIKJJH@Menu?5item@
CONST	SEGMENT
??_C@_09PDGIKJJH@Menu?5item@ DB 'Menu item', 00H	; `string'
CONST	ENDS
;	COMDAT ??_C@_06GCLBOGOD@CTRL?$CLM@
CONST	SEGMENT
??_C@_06GCLBOGOD@CTRL?$CLM@ DB 'CTRL+M', 00H		; `string'
CONST	ENDS
;	COMDAT ??_C@_03GBBIHDEJ@foo@
CONST	SEGMENT
??_C@_03GBBIHDEJ@foo@ DB 'foo', 00H			; `string'
CONST	ENDS
;	COMDAT ??_C@_0GB@PMDHHLNB@Below?5we?5are?5testing?5adding?5men@
CONST	SEGMENT
??_C@_0GB@PMDHHLNB@Below?5we?5are?5testing?5adding?5men@ DB 'Below we are'
	DB	' testing adding menu items to a regular window. It''s rather '
	DB	'unusual but should work!', 00H		; `string'
CONST	ENDS
;	COMDAT ??_C@_0BO@EEOFHCMN@Menus?5inside?5a?5regular?5window@
CONST	SEGMENT
??_C@_0BO@EEOFHCMN@Menus?5inside?5a?5regular?5window@ DB 'Menus inside a '
	DB	'regular window', 00H			; `string'
CONST	ENDS
;	COMDAT ??_C@_0BP@CPFMAIJ@Hello?5from?5Stacked?5The?5Second?$CB@
CONST	SEGMENT
??_C@_0BP@CPFMAIJ@Hello?5from?5Stacked?5The?5Second?$CB@ DB 'Hello from S'
	DB	'tacked The Second!', 00H			; `string'
CONST	ENDS
;	COMDAT ??_C@_09BHJOLLCH@Stacked?52@
CONST	SEGMENT
??_C@_09BHJOLLCH@Stacked?52@ DB 'Stacked 2', 00H	; `string'
CONST	ENDS
;	COMDAT ??_C@_0BE@EOGCGODN@Add?5another?5modal?4?4@
CONST	SEGMENT
??_C@_0BE@EOGCGODN@Add?5another?5modal?4?4@ DB 'Add another modal..', 00H ; `string'
CONST	ENDS
;	COMDAT ??_C@_05PEENBMOG@color@
CONST	SEGMENT
??_C@_05PEENBMOG@color@ DB 'color', 00H			; `string'
CONST	ENDS
;	COMDAT ??_C@_0FG@FEJJJKAO@Hello?5from?5Stacked?5The?5First?6Us@
CONST	SEGMENT
??_C@_0FG@FEJJJKAO@Hello?5from?5Stacked?5The?5First?6Us@ DB 'Hello from S'
	DB	'tacked The First', 0aH, 'Using style.Colors[ImGuiCol_ModalWin'
	DB	'dowDimBg] behind it.', 00H			; `string'
CONST	ENDS
;	COMDAT ??_C@_0BA@DBBHCGNO@Dummy?5menu?5item@
CONST	SEGMENT
??_C@_0BA@DBBHCGNO@Dummy?5menu?5item@ DB 'Dummy menu item', 00H ; `string'
CONST	ENDS
;	COMDAT ??_C@_04PBAHLACE@File@
CONST	SEGMENT
??_C@_04PBAHLACE@File@ DB 'File', 00H			; `string'
CONST	ENDS
;	COMDAT ??_C@_09DMLDOIOE@Stacked?51@
CONST	SEGMENT
??_C@_09DMLDOIOE@Stacked?51@ DB 'Stacked 1', 00H	; `string'
CONST	ENDS
;	COMDAT ??_C@_0BB@NNACGNLC@Stacked?5modals?4?4@
CONST	SEGMENT
??_C@_0BB@NNACGNLC@Stacked?5modals?4?4@ DB 'Stacked modals..', 00H ; `string'
CONST	ENDS
;	COMDAT ??_C@_06FMBNCPDL@Cancel@
CONST	SEGMENT
??_C@_06FMBNCPDL@Cancel@ DB 'Cancel', 00H		; `string'
CONST	ENDS
;	COMDAT ??_C@_02GIPFHKNO@OK@
CONST	SEGMENT
??_C@_02GIPFHKNO@OK@ DB 'OK', 00H			; `string'
CONST	ENDS
;	COMDAT ??_C@_0BH@BGNANACB@Don?8t?5ask?5me?5next?5time@
CONST	SEGMENT
??_C@_0BH@BGNANACB@Don?8t?5ask?5me?5next?5time@ DB 'Don''t ask me next ti'
	DB	'me', 00H					; `string'
CONST	ENDS
;	COMDAT ??_C@_0EO@GEGEJAML@All?5those?5beautiful?5files?5will?5@
CONST	SEGMENT
??_C@_0EO@GEGEJAML@All?5those?5beautiful?5files?5will?5@ DB 'All those be'
	DB	'autiful files will be deleted.', 0aH, 'This operation cannot '
	DB	'be undone!', 0aH, 0aH, 00H			; `string'
CONST	ENDS
;	COMDAT ??_C@_07DCPPKMOD@Delete?$DP@
CONST	SEGMENT
??_C@_07DCPPKMOD@Delete?$DP@ DB 'Delete?', 00H		; `string'
CONST	ENDS
;	COMDAT ??_C@_08CPNCIMAF@Delete?4?4@
CONST	SEGMENT
??_C@_08CPNCIMAF@Delete?4?4@ DB 'Delete..', 00H		; `string'
CONST	ENDS
;	COMDAT ??_C@_0FN@LBGEHGKO@Modal?5windows?5are?5like?5popups?5b@
CONST	SEGMENT
??_C@_0FN@LBGEHGKO@Modal?5windows?5are?5like?5popups?5b@ DB 'Modal window'
	DB	's are like popups but the user cannot close them by clicking '
	DB	'outside the window.', 00H			; `string'
CONST	ENDS
;	COMDAT ??_C@_06BEBKNACN@Modals@
CONST	SEGMENT
??_C@_06BEBKNACN@Modals@ DB 'Modals', 00H		; `string'
CONST	ENDS
;	COMDAT ??_C@_0BH@BPPDJDHF@?$CI?$DM?9?9?5right?9click?5here?$CJ@
CONST	SEGMENT
??_C@_0BH@BPPDJDHF@?$CI?$DM?9?9?5right?9click?5here?$CJ@ DB '(<-- right-c'
	DB	'lick here)', 00H				; `string'
CONST	ENDS
;	COMDAT ??_C@_06PEDNKACM@?$CD?$CDedit@
CONST	SEGMENT
??_C@_06PEDNKACM@?$CD?$CDedit@ DB '##edit', 00H		; `string'
CONST	ENDS
;	COMDAT ??_C@_0L@MIFJAGAG@Edit?5name?3@
CONST	SEGMENT
??_C@_0L@MIFJAGAG@Edit?5name?3@ DB 'Edit name:', 00H	; `string'
CONST	ENDS
;	COMDAT ??_C@_0BE@BJGBOOKP@Button?3?5?$CFs?$CD?$CD?$CDButton@
CONST	SEGMENT
??_C@_0BE@BJGBOOKP@Button?3?5?$CFs?$CD?$CD?$CDButton@ DB 'Button: %s###Bu'
	DB	'tton', 00H					; `string'
CONST	ENDS
;	COMDAT ??_C@_0DP@BJIBGGDI@?$CIYou?5can?5also?5right?9click?5me?5to@
CONST	SEGMENT
??_C@_0DP@BJIBGGDI@?$CIYou?5can?5also?5right?9click?5me?5to@ DB '(You can'
	DB	' also right-click me to open the same popup as above.)', 00H ; `string'
CONST	ENDS
;	COMDAT ??_C@_07FGLEKONH@?$CD?$CDValue@
CONST	SEGMENT
??_C@_07FGLEKONH@?$CD?$CDValue@ DB '##Value', 00H	; `string'
CONST	ENDS
;	COMDAT ??_C@_09NJOBBCFG@Set?5to?5PI@
CONST	SEGMENT
??_C@_09NJOBBCFG@Set?5to?5PI@ DB 'Set to PI', 00H	; `string'
CONST	ENDS
;	COMDAT ??_C@_0M@MLNNLOAO@Set?5to?5zero@
CONST	SEGMENT
??_C@_0M@MLNNLOAO@Set?5to?5zero@ DB 'Set to zero', 00H	; `string'
CONST	ENDS
;	COMDAT ??_C@_0BC@LPLCKLLE@item?5context?5menu@
CONST	SEGMENT
??_C@_0BC@LPLCKLLE@item?5context?5menu@ DB 'item context menu', 00H ; `string'
CONST	ENDS
;	COMDAT ??_C@_0CE@FFAOKKJB@Value?5?$DN?5?$CF?43f?5?$CI?$DM?9?9?5right?9click?5h@
CONST	SEGMENT
??_C@_0CE@FFAOKKJB@Value?5?$DN?5?$CF?43f?5?$CI?$DM?9?9?5right?9click?5h@ DB 'V'
	DB	'alue = %.3f (<-- right-click here)', 00H	; `string'
CONST	ENDS
;	COMDAT ??_C@_0O@EGPMCJBG@Context?5menus@
CONST	SEGMENT
??_C@_0O@EGPMCJBG@Context?5menus@ DB 'Context menus', 00H ; `string'
CONST	ENDS
;	COMDAT ??_C@_0O@CMFGCCH@my_file_popup@
CONST	SEGMENT
??_C@_0O@CMFGCCH@my_file_popup@ DB 'my_file_popup', 00H	; `string'
CONST	ENDS
;	COMDAT ??_C@_0M@GKGGLAGK@File?5Menu?4?4@
CONST	SEGMENT
??_C@_0M@GKGGLAGK@File?5Menu?4?4@ DB 'File Menu..', 00H	; `string'
CONST	ENDS
;	COMDAT ??_C@_0BI@DMMONLJF@I?5am?5the?5last?5one?5here?4@
CONST	SEGMENT
??_C@_0BI@DMMONLJF@I?5am?5the?5last?5one?5here?4@ DB 'I am the last one h'
	DB	'ere.', 00H					; `string'
CONST	ENDS
;	COMDAT ??_C@_0O@CMMIFNBD@another?5popup@
CONST	SEGMENT
??_C@_0O@CMMIFNBD@another?5popup@ DB 'another popup', 00H ; `string'
CONST	ENDS
;	COMDAT ??_C@_0O@NAJLJJDJ@Stacked?5Popup@
CONST	SEGMENT
??_C@_0O@NAJLJJDJ@Stacked?5Popup@ DB 'Stacked Popup', 00H ; `string'
CONST	ENDS
;	COMDAT ??_C@_0BM@HJLGLIOD@I?5am?5a?5tooltip?5over?5a?5popup@
CONST	SEGMENT
??_C@_0BM@HJLGLIOD@I?5am?5a?5tooltip?5over?5a?5popup@ DB 'I am a tooltip '
	DB	'over a popup', 00H				; `string'
CONST	ENDS
;	COMDAT ??_C@_0N@IODHFNG@Tooltip?5here@
CONST	SEGMENT
??_C@_0N@IODHFNG@Tooltip?5here@ DB 'Tooltip here', 00H	; `string'
CONST	ENDS
;	COMDAT ??_C@_08PPLGDLFG@Click?5me@
CONST	SEGMENT
??_C@_08PPLGDLFG@Click?5me@ DB 'Click me', 00H		; `string'
CONST	ENDS
;	COMDAT ??_C@_08GMNJJNGG@Sub?9menu@
CONST	SEGMENT
??_C@_08GMNJJNGG@Sub?9menu@ DB 'Sub-menu', 00H		; `string'
CONST	ENDS
;	COMDAT ??_C@_0BA@LJBKGLLI@my_toggle_popup@
CONST	SEGMENT
??_C@_0BA@LJBKGLLI@my_toggle_popup@ DB 'my_toggle_popup', 00H ; `string'
CONST	ENDS
;	COMDAT ??_C@_08NINPLAO@Toggle?4?4@
CONST	SEGMENT
??_C@_08NINPLAO@Toggle?4?4@ DB 'Toggle..', 00H		; `string'
CONST	ENDS
;	COMDAT ??_C@_08IKEIPKBP@Aquarium@
CONST	SEGMENT
??_C@_08IKEIPKBP@Aquarium@ DB 'Aquarium', 00H		; `string'
CONST	ENDS
;	COMDAT ??_C@_06PHEAPGKB@?$DMNone?$DO@
CONST	SEGMENT
??_C@_06PHEAPGKB@?$DMNone?$DO@ DB '<None>', 00H		; `string'
CONST	ENDS
;	COMDAT ??_C@_0BA@GGCCCMJM@my_select_popup@
CONST	SEGMENT
??_C@_0BA@GGCCCMJM@my_select_popup@ DB 'my_select_popup', 00H ; `string'
CONST	ENDS
;	COMDAT ??_C@_08NNBGNINF@Select?4?4@
CONST	SEGMENT
??_C@_08NNBGNINF@Select?4?4@ DB 'Select..', 00H		; `string'
CONST	ENDS
;	COMDAT ??_C@_08EGAMPFAB@Tilefish@
CONST	SEGMENT
??_C@_08EGAMPFAB@Tilefish@ DB 'Tilefish', 00H		; `string'
CONST	ENDS
;	COMDAT ??_C@_07DOCMJKHB@Pollock@
CONST	SEGMENT
??_C@_07DOCMJKHB@Pollock@ DB 'Pollock', 00H		; `string'
CONST	ENDS
;	COMDAT ??_C@_08OFLHLLIP@Mackerel@
CONST	SEGMENT
??_C@_08OFLHLLIP@Mackerel@ DB 'Mackerel', 00H		; `string'
CONST	ENDS
;	COMDAT ??_C@_07BNGOACBO@Haddock@
CONST	SEGMENT
??_C@_07BNGOACBO@Haddock@ DB 'Haddock', 00H		; `string'
CONST	ENDS
;	COMDAT ??_C@_05BKABPFFI@Bream@
CONST	SEGMENT
??_C@_05BKABPFFI@Bream@ DB 'Bream', 00H			; `string'
CONST	ENDS
;	COMDAT ??_C@_0HO@LGMOGOO@When?5a?5popup?5is?5active?0?5it?5inhi@
CONST	SEGMENT
??_C@_0HO@LGMOGOO@When?5a?5popup?5is?5active?0?5it?5inhi@ DB 'When a popu'
	DB	'p is active, it inhibits interacting with windows that are be'
	DB	'hind the popup. Clicking outside the popup closes it.', 00H ; `string'
CONST	ENDS
;	COMDAT ??_C@_06ENDEIGLN@Popups@
CONST	SEGMENT
??_C@_06ENDEIGLN@Popups@ DB 'Popups', 00H		; `string'
CONST	ENDS
;	COMDAT ??_C@_0BH@JODLIHDO@Popups?5?$CG?5Modal?5windows@
CONST	SEGMENT
??_C@_0BH@JODLIHDO@Popups?5?$CG?5Modal?5windows@ DB 'Popups & Modal windo'
	DB	'ws', 00H					; `string'
CONST	ENDS
;	COMDAT ??_C@_0BN@MKAJBHJO@Line?51?5hello?6Line?52?5clip?5me?$CB@
CONST	SEGMENT
??_C@_0BN@MKAJBHJO@Line?51?5hello?6Line?52?5clip?5me?$CB@ DB 'Line 1 hell'
	DB	'o', 0aH, 'Line 2 clip me!', 00H		; `string'
CONST	ENDS
;	COMDAT ??_C@_07MGJIPBMD@?$CD?$CDdummy@
CONST	SEGMENT
??_C@_07MGJIPBMD@?$CD?$CDdummy@ DB '##dummy', 00H	; `string'
CONST	ENDS
;	COMDAT ??_C@_0BB@BLJLNCGP@?$CIClick?5and?5drag?$CJ@
CONST	SEGMENT
??_C@_0BB@BLJLNCGP@?$CIClick?5and?5drag?$CJ@ DB '(Click and drag)', 00H ; `string'
CONST	ENDS
;	COMDAT ??_C@_04IAGNFIBA@size@
CONST	SEGMENT
??_C@_04IAGNFIBA@size@ DB 'size', 00H			; `string'
CONST	ENDS
;	COMDAT ??_C@_0BAK@JJMCOOGK@On?5a?5per?9widget?5basis?5we?5are?5oc@
CONST	SEGMENT
??_C@_0BAK@JJMCOOGK@On?5a?5per?9widget?5basis?5we?5are?5oc@ DB 'On a per-'
	DB	'widget basis we are occasionally clipping text CPU-side if it'
	DB	' won''t fit in its frame. Otherwise we are doing coarser clip'
	DB	'ping + passing a scissor rectangle to the renderer. The syste'
	DB	'm is designed to try minimizing both execution and CPU/GPU re'
	DB	'ndering cost.', 00H				; `string'
CONST	ENDS
;	COMDAT ??_C@_08LLKICGJM@Clipping@
CONST	SEGMENT
??_C@_08LLKICGJM@Clipping@ DB 'Clipping', 00H		; `string'
CONST	ENDS
;	COMDAT ??_C@_0N@GNNAMPMJ@FourFourFour@
CONST	SEGMENT
??_C@_0N@GNNAMPMJ@FourFourFour@ DB 'FourFourFour', 00H	; `string'
CONST	ENDS
;	COMDAT ??_C@_0BA@BGMNPICP@ThreeThreeThree@
CONST	SEGMENT
??_C@_0BA@BGMNPICP@ThreeThreeThree@ DB 'ThreeThreeThree', 00H ; `string'
CONST	ENDS
;	COMDAT ??_C@_09BMOICMLJ@TwoTwoTwo@
CONST	SEGMENT
??_C@_09BMOICMLJ@TwoTwoTwo@ DB 'TwoTwoTwo', 00H		; `string'
CONST	ENDS
;	COMDAT ??_C@_09DHLFJNGJ@OneOneOne@
CONST	SEGMENT
??_C@_09DHLFJNGJ@OneOneOne@ DB 'OneOneOne', 00H		; `string'
CONST	ENDS
;	COMDAT ??_C@_05COLMCDPH@Hello@
CONST	SEGMENT
??_C@_05COLMCDPH@Hello@ DB 'Hello', 00H			; `string'
CONST	ENDS
;	COMDAT ??_C@_0L@CDOLGENO@Width?5?$CF?42f@
CONST	SEGMENT
??_C@_0L@CDOLGENO@Width?5?$CF?42f@ DB 'Width %.2f', 00H	; `string'
CONST	ENDS
;	COMDAT ??_C@_0EH@ECONPGGJ@This?5text?5should?5automatically?5@
CONST	SEGMENT
??_C@_0EH@ECONPGGJ@This?5text?5should?5automatically?5@ DB 'This text sho'
	DB	'uld automatically wrap on the edge of the work rectangle.', 00H ; `string'
CONST	ENDS
;	COMDAT ??_C@_0BB@LBMIMLJO@CollapsingHeader@
CONST	SEGMENT
??_C@_0BB@LBMIMLJO@CollapsingHeader@ DB 'CollapsingHeader', 00H ; `string'
CONST	ENDS
;	COMDAT ??_C@_0BD@GOEDKDLO@Some?5tree?5contents@
CONST	SEGMENT
??_C@_0BD@GOEDKDLO@Some?5tree?5contents@ DB 'Some tree contents', 00H ; `string'
CONST	ENDS
;	COMDAT ??_C@_0CC@FFNCLEGA@another?5one?5of?5those?5tree?5node?4@
CONST	SEGMENT
??_C@_0CC@FFNCLEGA@another?5one?5of?5those?5tree?5node?4@ DB 'another one'
	DB	' of those tree node...', 00H		; `string'
CONST	ENDS
;	COMDAT ??_C@_0BE@HNGLJJLH@this?5is?5a?5tree?5node@
CONST	SEGMENT
??_C@_0BE@HNGLJJLH@this?5is?5a?5tree?5node@ DB 'this is a tree node', 00H ; `string'
CONST	ENDS
;	COMDAT ??_C@_0BK@GGAJDBIL@this?5is?5a?5300?9wide?5button@
CONST	SEGMENT
??_C@_0BK@GGAJDBIL@this?5is?5a?5300?9wide?5button@ DB 'this is a 300-wide'
	DB	' button', 00H				; `string'
CONST	ENDS
;	COMDAT ??_C@_05NBKGABAK@?$CD?$CDcsx@
CONST	SEGMENT
??_C@_05NBKGABAK@?$CD?$CDcsx@ DB '##csx', 00H		; `string'
CONST	ENDS
;	COMDAT ??_C@_0BL@EDCBBBDH@Scroll?5?$CF?41f?1?$CF?41f?5?$CF?41f?1?$CF?41f@
CONST	SEGMENT
??_C@_0BL@EDCBBBDH@Scroll?5?$CF?41f?1?$CF?41f?5?$CF?41f?1?$CF?41f@ DB 'Sc'
	DB	'roll %.1f/%.1f %.1f/%.1f', 00H		; `string'
CONST	ENDS
;	COMDAT ??_C@_0BG@GEDBKKBK@Explicit?5content?5size@
CONST	SEGMENT
??_C@_0BG@GEDBKKBK@Explicit?5content?5size@ DB 'Explicit content size', 00H ; `string'
CONST	ENDS
;	COMDAT ??_C@_05GIMBDOHM@Child@
CONST	SEGMENT
??_C@_05GIMBDOHM@Child@ DB 'Child', 00H			; `string'
CONST	ENDS
;	COMDAT ??_C@_07CHLOJOEF@Tab?5bar@
CONST	SEGMENT
??_C@_07CHLOJOEF@Tab?5bar@ DB 'Tab bar', 00H		; `string'
CONST	ENDS
;	COMDAT ??_C@_07IBCCJKML@Columns@
CONST	SEGMENT
??_C@_07IBCCJKML@Columns@ DB 'Columns', 00H		; `string'
CONST	ENDS
;	COMDAT ??_C@_0N@HDFBIJDK@Text?5wrapped@
CONST	SEGMENT
??_C@_0N@HDFBIJDK@Text?5wrapped@ DB 'Text wrapped', 00H	; `string'
CONST	ENDS
;	COMDAT ??_C@_0L@DIDHCLKE@Tree?5nodes@
CONST	SEGMENT
??_C@_0L@DIDHCLKE@Tree?5nodes@ DB 'Tree nodes', 00H	; `string'
CONST	ENDS
;	COMDAT ??_C@_0M@PCJBMDND@H?9scrollbar@
CONST	SEGMENT
??_C@_0M@PCJBMDND@H?9scrollbar@ DB 'H-scrollbar', 00H	; `string'
CONST	ENDS
;	COMDAT ??_C@_0LE@BCMFBNBD@Test?5of?5different?5widgets?5react@
CONST	SEGMENT
??_C@_0LE@BCMFBNBD@Test?5of?5different?5widgets?5react@ DB 'Test of diffe'
	DB	'rent widgets react and impact the work rectangle growing when'
	DB	' horizontal scrolling is enabled.', 0aH, 0aH, 'Use ''Metrics-'
	DB	'>Tools->Show windows rectangles'' to visualize rectangles.', 00H ; `string'
CONST	ENDS
;	COMDAT ??_C@_0CF@OHGKBEFE@Horizontal?5contents?5size?5demo?5w@
CONST	SEGMENT
??_C@_0CF@OHGKBEFE@Horizontal?5contents?5size?5demo?5w@ DB 'Horizontal co'
	DB	'ntents size demo window', 00H		; `string'
CONST	ENDS
;	COMDAT ??_C@_0CK@KHHLOHPL@Show?5Horizontal?5contents?5size?5d@
CONST	SEGMENT
??_C@_0CK@KHHLOHPL@Show?5Horizontal?5contents?5size?5d@ DB 'Show Horizont'
	DB	'al contents size demo window', 00H		; `string'
CONST	ENDS
;	COMDAT ??_C@_02GPIOPFAK@?$DO?$DO@
CONST	SEGMENT
??_C@_02GPIOPFAK@?$DO?$DO@ DB '>>', 00H			; `string'
CONST	ENDS
;	COMDAT ??_C@_0BB@HICDBOJF@Scroll?5from?5code@
CONST	SEGMENT
??_C@_0BB@HICDBOJF@Scroll?5from?5code@ DB 'Scroll from code', 00H ; `string'
CONST	ENDS
;	COMDAT ??_C@_02FODMEDOG@?$DM?$DM@
CONST	SEGMENT
??_C@_02FODMEDOG@?$DM?$DM@ DB '<<', 00H			; `string'
CONST	ENDS
;	COMDAT ??_C@_04MLLJCPJP@Buzz@
CONST	SEGMENT
??_C@_04MLLJCPJP@Buzz@ DB 'Buzz', 00H			; `string'
CONST	ENDS
;	COMDAT ??_C@_04CEPGGBHI@Fizz@
CONST	SEGMENT
??_C@_04CEPGGBHI@Fizz@ DB 'Fizz', 00H			; `string'
CONST	ENDS
;	COMDAT ??_C@_08GLBPKMPD@FizzBuzz@
CONST	SEGMENT
??_C@_08GLBPKMPD@FizzBuzz@ DB 'FizzBuzz', 00H		; `string'
CONST	ENDS
;	COMDAT ??_C@_09PKEBEIDM@scrolling@
CONST	SEGMENT
??_C@_09PKEBEIDM@scrolling@ DB 'scrolling', 00H		; `string'
CONST	ENDS
;	COMDAT ??_C@_0NL@PPAIPOMM@Horizontal?5scrolling?5for?5a?5wind@
CONST	SEGMENT
??_C@_0NL@PPAIPOMM@Horizontal?5scrolling?5for?5a?5wind@ DB 'Horizontal sc'
	DB	'rolling for a window has to be enabled explicitly via the ImG'
	DB	'uiWindowFlags_HorizontalScrollbar flag.', 0aH, 0aH, 'You may '
	DB	'want to explicitly specify content width by calling SetNextWi'
	DB	'ndowContentWidth() before Begin().', 00H	; `string'
CONST	ENDS
;	COMDAT ??_C@_0N@MJLHBHDH@?$CFs?6?$CF?40f?1?$CF?40f@
CONST	SEGMENT
??_C@_0N@MJLHBHDH@?$CFs?6?$CF?40f?1?$CF?40f@ DB '%s', 0aH, '%.0f/%.0f', 00H ; `string'
CONST	ENDS
;	COMDAT ??_C@_05DADPALEM@Right@
CONST	SEGMENT
??_C@_05DADPALEM@Right@ DB 'Right', 00H			; `string'
CONST	ENDS
;	COMDAT ??_C@_04KPCPLBPL@Left@
CONST	SEGMENT
??_C@_04KPCPLBPL@Left@ DB 'Left', 00H			; `string'
CONST	ENDS
;	COMDAT ??_C@_0BG@BEAADLOE@?$CD?$CDHorizontalScrolling@
CONST	SEGMENT
??_C@_0BG@BEAADLOE@?$CD?$CDHorizontalScrolling@ DB '##HorizontalScrolling'
	DB	00H						; `string'
CONST	ENDS
;	COMDAT ??_C@_0CAK@JJECNJPI@Use?5SetScrollHereX?$CI?$CJ?5or?5SetScro@
CONST	SEGMENT
??_C@_0CAK@JJECNJPI@Use?5SetScrollHereX?$CI?$CJ?5or?5SetScro@ DB 'Use Set'
	DB	'ScrollHereX() or SetScrollFromPosX() to scroll to a given hor'
	DB	'izontal position.', 0aH, 0aH, 'Using the "Scroll To Pos" butt'
	DB	'on above will make the discontinuity at edges visible: scroll'
	DB	'ing to the top/bottom/left/right-most item will add an additi'
	DB	'onal WindowPadding to reflect on reaching the edge of the lis'
	DB	't.', 0aH, 0aH, 'Because the clipping rectangle of most window'
	DB	' hides half worth of WindowPadding on the left/right, using S'
	DB	'etScrollFromPosX(+1) will usually result in clipped text wher'
	DB	'eas the equivalent SetScrollFromPosY(+1) wouldn''t.', 00H ; `string'
CONST	ENDS
;	COMDAT ??_C@_09DKGDMKKF@?$CF?40f?1?$CF?40f@
CONST	SEGMENT
??_C@_09DKGDMKKF@?$CF?40f?1?$CF?40f@ DB '%.0f/%.0f', 00H ; `string'
CONST	ENDS
;	COMDAT ??_C@_03FIKCJHKP@abc@
CONST	SEGMENT
??_C@_03FIKCJHKP@abc@ DB 'abc', 00H			; `string'
CONST	ENDS
;	COMDAT ??_C@_06DDHCBBGN@Bottom@
CONST	SEGMENT
??_C@_06DDHCBBGN@Bottom@ DB 'Bottom', 00H		; `string'
CONST	ENDS
;	COMDAT ??_C@_03HJBEBHGH@75?$CF@
CONST	SEGMENT
??_C@_03HJBEBHGH@75?$CF@ DB '75%', 00H			; `string'
CONST	ENDS
;	COMDAT ??_C@_06NOADDNNE@Center@
CONST	SEGMENT
??_C@_06NOADDNNE@Center@ DB 'Center', 00H		; `string'
CONST	ENDS
;	COMDAT ??_C@_03EOMKOHFF@25?$CF@
CONST	SEGMENT
??_C@_03EOMKOHFF@25?$CF@ DB '25%', 00H			; `string'
CONST	ENDS
;	COMDAT ??_C@_03PGGAENPN@Top@
CONST	SEGMENT
??_C@_03PGGAENPN@Top@ DB 'Top', 00H			; `string'
CONST	ENDS
;	COMDAT ??_C@_0BE@NILALFMA@?$CD?$CDVerticalScrolling@
CONST	SEGMENT
??_C@_0BE@NILALFMA@?$CD?$CDVerticalScrolling@ DB '##VerticalScrolling', 00H ; `string'
CONST	ENDS
;	COMDAT ??_C@_05GFMCHKKE@?$CD?$CDpos@
CONST	SEGMENT
??_C@_05GFMCHKKE@?$CD?$CDpos@ DB '##pos', 00H		; `string'
CONST	ENDS
;	COMDAT ??_C@_0O@LJJDDGBB@X?1Y?5?$DN?5?$CF?40f?5px@
CONST	SEGMENT
??_C@_0O@LJJDDGBB@X?1Y?5?$DN?5?$CF?40f?5px@ DB 'X/Y = %.0f px', 00H ; `string'
CONST	ENDS
;	COMDAT ??_C@_0O@CGNNKBMG@Scroll?5To?5Pos@
CONST	SEGMENT
??_C@_0O@CGNNKBMG@Scroll?5To?5Pos@ DB 'Scroll To Pos', 00H ; `string'
CONST	ENDS
;	COMDAT ??_C@_05FFNMOAPG@?$CD?$CDoff@
CONST	SEGMENT
??_C@_05FFNMOAPG@?$CD?$CDoff@ DB '##off', 00H		; `string'
CONST	ENDS
;	COMDAT ??_C@_08DGGLGIAM@?$CL?$CF?40f?5px@
CONST	SEGMENT
??_C@_08DGGLGIAM@?$CL?$CF?40f?5px@ DB '+%.0f px', 00H	; `string'
CONST	ENDS
;	COMDAT ??_C@_0O@EDOJIGBC@Scroll?5Offset@
CONST	SEGMENT
??_C@_0O@EDOJIGBC@Scroll?5Offset@ DB 'Scroll Offset', 00H ; `string'
CONST	ENDS
;	COMDAT ??_C@_06PDMOEKMO@?$CD?$CDitem@
CONST	SEGMENT
??_C@_06PDMOEKMO@?$CD?$CDitem@ DB '##item', 00H		; `string'
CONST	ENDS
;	COMDAT ??_C@_09GAMHFGFH@Item?5?$DN?5?$CFd@
CONST	SEGMENT
??_C@_09GAMHFGFH@Item?5?$DN?5?$CFd@ DB 'Item = %d', 00H	; `string'
CONST	ENDS
;	COMDAT ??_C@_05BFDCPAGB@Track@
CONST	SEGMENT
??_C@_05BFDCPAGB@Track@ DB 'Track', 00H			; `string'
CONST	ENDS
;	COMDAT ??_C@_0GM@GBNFBEFB@We?5expose?5this?5for?5testing?5beca@
CONST	SEGMENT
??_C@_0GM@GBNFBEFB@We?5expose?5this?5for?5testing?5beca@ DB 'We expose th'
	DB	'is for testing because scrolling sometimes had issues with wi'
	DB	'ndow decoration such as menu-bars.', 00H	; `string'
CONST	ENDS
;	COMDAT ??_C@_0L@ODNEMNHD@Decoration@
CONST	SEGMENT
??_C@_0L@ODNEMNHD@Decoration@ DB 'Decoration', 00H	; `string'
CONST	ENDS
;	COMDAT ??_C@_0FE@KFLONGJI@Use?5SetScrollHereY?$CI?$CJ?5or?5SetScro@
CONST	SEGMENT
??_C@_0FE@KFLONGJI@Use?5SetScrollHereY?$CI?$CJ?5or?5SetScro@ DB 'Use SetS'
	DB	'crollHereY() or SetScrollFromPosY() to scroll to a given vert'
	DB	'ical position.', 00H			; `string'
CONST	ENDS
;	COMDAT ??_C@_09LFBMELOM@Scrolling@
CONST	SEGMENT
??_C@_09LFBMELOM@Scrolling@ DB 'Scrolling', 00H		; `string'
CONST	ENDS
;	COMDAT ??_C@_09OADFNCOB@Button?$CD?$CD4@
CONST	SEGMENT
??_C@_09OADFNCOB@Button?$CD?$CD4@ DB 'Button##4', 00H	; `string'
CONST	ENDS
;	COMDAT ??_C@_04OKAPPFIB@Node@
CONST	SEGMENT
??_C@_04OKAPPFIB@Node@ DB 'Node', 00H			; `string'
CONST	ENDS
;	COMDAT ??_C@_0M@DABAODPF@Bullet?5text@
CONST	SEGMENT
??_C@_0M@DABAODPF@Bullet?5text@ DB 'Bullet text', 00H	; `string'
CONST	ENDS
;	COMDAT ??_C@_09KPHEEECG@Button?$CD?$CD3@
CONST	SEGMENT
??_C@_09KPHEEECG@Button?$CD?$CD3@ DB 'Button##3', 00H	; `string'
CONST	ENDS
;	COMDAT ??_C@_09LGGPHFGH@Button?$CD?$CD2@
CONST	SEGMENT
??_C@_09LGGPHFGH@Button?$CD?$CD2@ DB 'Button##2', 00H	; `string'
CONST	ENDS
;	COMDAT ??_C@_07HMHPNFCM@Node?$CD?$CD2@
CONST	SEGMENT
??_C@_07HMHPNFCM@Node?$CD?$CD2@ DB 'Node##2', 00H	; `string'
CONST	ENDS
;	COMDAT ??_C@_09CCOCANBA@Item?5?$CFd?4?4@
CONST	SEGMENT
??_C@_09CCOCANBA@Item?5?$CFd?4?4@ DB 'Item %d..', 00H	; `string'
CONST	ENDS
;	COMDAT ??_C@_07FHFCIGOP@Node?$CD?$CD1@
CONST	SEGMENT
??_C@_07FHFCIGOP@Node?$CD?$CD1@ DB 'Node##1', 00H	; `string'
CONST	ENDS
;	COMDAT ??_C@_09JNECCGKE@Button?$CD?$CD1@
CONST	SEGMENT
??_C@_09JNECCGKE@Button?$CD?$CD1@ DB 'Button##1', 00H	; `string'
CONST	ENDS
;	COMDAT ??_C@_0O@DANAPFLN@SmallButton?$CI?$CJ@
CONST	SEGMENT
??_C@_0O@DANAPFLN@SmallButton?$CI?$CJ@ DB 'SmallButton()', 00H ; `string'
CONST	ENDS
;	COMDAT ??_C@_08DHDFAMNE@Button?$CI?$CJ@
CONST	SEGMENT
??_C@_08DHDFAMNE@Button?$CI?$CJ@ DB 'Button()', 00H	; `string'
CONST	ENDS
;	COMDAT ??_C@_05OIMGOJDP@50x50@
CONST	SEGMENT
??_C@_05OIMGOJDP@50x50@ DB '50x50', 00H			; `string'
CONST	ENDS
;	COMDAT ??_C@_05FMIAGJLC@80x80@
CONST	SEGMENT
??_C@_05FMIAGJLC@80x80@ DB '80x80', 00H			; `string'
CONST	ENDS
;	COMDAT ??_C@_0M@OFIEFPON@Misc?5items?3@
CONST	SEGMENT
??_C@_0M@OFIEFPON@Misc?5items?3@ DB 'Misc items:', 00H	; `string'
CONST	ENDS
;	COMDAT ??_C@_06LGJGMAPF@HOP?$CD?$CD2@
CONST	SEGMENT
??_C@_06LGJGMAPF@HOP?$CD?$CD2@ DB 'HOP##2', 00H		; `string'
CONST	ENDS
;	COMDAT ??_C@_06JNLLJDDG@HOP?$CD?$CD1@
CONST	SEGMENT
??_C@_06JNLLJDDG@HOP?$CD?$CD1@ DB 'HOP##1', 00H		; `string'
CONST	ENDS
;	COMDAT ??_C@_0M@MEHCJFNA@Hello?6World@
CONST	SEGMENT
??_C@_0M@MEHCJFNA@Hello?6World@ DB 'Hello', 0aH, 'World', 00H ; `string'
CONST	ENDS
;	COMDAT ??_C@_0O@LPFJLNGJ@One?6Two?6Three@
CONST	SEGMENT
??_C@_0O@LPFJLNGJ@One?6Two?6Three@ DB 'One', 0aH, 'Two', 0aH, 'Three', 00H ; `string'
CONST	ENDS
;	COMDAT ??_C@_0BB@IKLHLLAO@Multi?9line?5text?3@
CONST	SEGMENT
??_C@_0BB@IKLHLLAO@Multi?9line?5text?3@ DB 'Multi-line text:', 00H ; `string'
CONST	ENDS
;	COMDAT ??_C@_07PBFELNCE@Item?$CD?$CD3@
CONST	SEGMENT
??_C@_07PBFELNCE@Item?$CD?$CD3@ DB 'Item##3', 00H	; `string'
CONST	ENDS
;	COMDAT ??_C@_07OIEPIMGF@Item?$CD?$CD2@
CONST	SEGMENT
??_C@_07OIEPIMGF@Item?$CD?$CD2@ DB 'Item##2', 00H	; `string'
CONST	ENDS
;	COMDAT ??_C@_04BGCMBJDA@Item@
CONST	SEGMENT
??_C@_04BGCMBJDA@Item@ DB 'Item', 00H			; `string'
CONST	ENDS
;	COMDAT ??_C@_07MDGCNPKG@Item?$CD?$CD1@
CONST	SEGMENT
??_C@_07MDGCNPKG@Item?$CD?$CD1@ DB 'Item##1', 00H	; `string'
CONST	ENDS
;	COMDAT ??_C@_0BM@CCJJPIAI@Text?5aligned?5to?5framed?5item@
CONST	SEGMENT
??_C@_0BM@CCJJPIAI@Text?5aligned?5to?5framed?5item@ DB 'Text aligned to f'
	DB	'ramed item', 00H				; `string'
CONST	ENDS
;	COMDAT ??_C@_07HPPHDIDO@TEST?$CD?$CD2@
CONST	SEGMENT
??_C@_07HPPHDIDO@TEST?$CD?$CD2@ DB 'TEST##2', 00H	; `string'
CONST	ENDS
;	COMDAT ??_C@_04OIKJMBFP@TEST@
CONST	SEGMENT
??_C@_04OIKJMBFP@TEST@ DB 'TEST', 00H			; `string'
CONST	ENDS
;	COMDAT ??_C@_07FENKGLPN@TEST?$CD?$CD1@
CONST	SEGMENT
??_C@_07FENKGLPN@TEST?$CD?$CD1@ DB 'TEST##1', 00H	; `string'
CONST	ENDS
;	COMDAT ??_C@_0FL@DLOHNEGO@We?5call?5AlignTextToFramePadding@
CONST	SEGMENT
??_C@_0FL@DLOHNEGO@We?5call?5AlignTextToFramePadding@ DB 'We call AlignTe'
	DB	'xtToFramePadding() to vertically align the text baseline by +'
	DB	'FramePadding.y', 00H			; `string'
CONST	ENDS
;	COMDAT ??_C@_0M@LEJMPEFH@OK?5Blahblah@
CONST	SEGMENT
??_C@_0M@LEJMPEFH@OK?5Blahblah@ DB 'OK Blahblah', 00H	; `string'
CONST	ENDS
;	COMDAT ??_C@_0DE@PMNLFDAO@Baseline?5of?5button?5will?5look?5mi@
CONST	SEGMENT
??_C@_0DE@PMNLFDAO@Baseline?5of?5button?5will?5look?5mi@ DB 'Baseline of '
	DB	'button will look misaligned with text..', 00H ; `string'
CONST	ENDS
;	COMDAT ??_C@_0BB@GBEAAIAC@Some?5framed?5item@
CONST	SEGMENT
??_C@_0BB@GBEAAIAC@Some?5framed?5item@ DB 'Some framed item', 00H ; `string'
CONST	ENDS
;	COMDAT ??_C@_0M@HEDLMKK@KO?5Blahblah@
CONST	SEGMENT
??_C@_0M@HEDLMKK@KO?5Blahblah@ DB 'KO Blahblah', 00H	; `string'
CONST	ENDS
;	COMDAT ??_C@_0MN@BCGLJGPG@This?5is?5testing?5the?5vertical?5al@
CONST	SEGMENT
??_C@_0MN@BCGLJGPG@This?5is?5testing?5the?5vertical?5al@ DB 'This is test'
	DB	'ing the vertical alignment that gets applied on text to keep '
	DB	'it aligned with widgets. Lines only composed of text or "smal'
	DB	'l" widgets fit in less vertical spaces than lines with normal'
	DB	' widgets.', 00H				; `string'
CONST	ENDS
;	COMDAT ??_C@_0P@FLJDDPLM@Text?5baseline?3@
CONST	SEGMENT
??_C@_0P@FLJDDPLM@Text?5baseline?3@ DB 'Text baseline:', 00H ; `string'
CONST	ENDS
;	COMDAT ??_C@_0BI@DMCNFLHM@Text?5Baseline?5Alignment@
CONST	SEGMENT
??_C@_0BI@DMCNFLHM@Text?5Baseline?5Alignment@ DB 'Text Baseline Alignment'
	DB	00H						; `string'
CONST	ENDS
;	COMDAT ??_C@_0N@FODJADJE@Not?5Selected@
CONST	SEGMENT
??_C@_0N@FODJADJE@Not?5Selected@ DB 'Not Selected', 00H	; `string'
CONST	ENDS
;	COMDAT ??_C@_08KLEPBNHL@Selected@
CONST	SEGMENT
??_C@_08KLEPBNHL@Selected@ DB 'Selected', 00H		; `string'
CONST	ENDS
;	COMDAT ??_C@_04PPBEGPNI@List@
CONST	SEGMENT
??_C@_04PPBEGPNI@List@ DB 'List', 00H			; `string'
CONST	ENDS
;	COMDAT ??_C@_0BC@NCAPIIPH@LEVERAGE?6BUZZWORD@
CONST	SEGMENT
??_C@_0BC@NCAPIIPH@LEVERAGE?6BUZZWORD@ DB 'LEVERAGE', 0aH, 'BUZZWORD', 00H ; `string'
CONST	ENDS
;	COMDAT ??_C@_08HBCMJOON@REACTION@
CONST	SEGMENT
??_C@_08HBCMJOON@REACTION@ DB 'REACTION', 00H		; `string'
CONST	ENDS
;	COMDAT ??_C@_06DHJAPAEE@ACTION@
CONST	SEGMENT
??_C@_06DHJAPAEE@ACTION@ DB 'ACTION', 00H		; `string'
CONST	ENDS
;	COMDAT ??_C@_08NDEOOAHA@?$CD?$CDvalues@
CONST	SEGMENT
??_C@_08NDEOOAHA@?$CD?$CDvalues@ DB '##values', 00H	; `string'
CONST	ENDS
;	COMDAT ??_C@_0BE@GCGPENCF@First?5group?5hovered@
CONST	SEGMENT
??_C@_0BE@GCGPENCF@First?5group?5hovered@ DB 'First group hovered', 00H ; `string'
CONST	ENDS
;	COMDAT ??_C@_03IJCOHMIH@EEE@
CONST	SEGMENT
??_C@_03IJCOHMIH@EEE@ DB 'EEE', 00H			; `string'
CONST	ENDS
;	COMDAT ??_C@_03CJELEAJE@DDD@
CONST	SEGMENT
??_C@_03CJELEAJE@DDD@ DB 'DDD', 00H			; `string'
CONST	ENDS
;	COMDAT ??_C@_03POJCPIGP@CCC@
CONST	SEGMENT
??_C@_03POJCPIGP@CCC@ DB 'CCC', 00H			; `string'
CONST	ENDS
;	COMDAT ??_C@_03FOPHMEHM@BBB@
CONST	SEGMENT
??_C@_03FOPHMEHM@BBB@ DB 'BBB', 00H			; `string'
CONST	ENDS
;	COMDAT ??_C@_03GFCJIGAI@AAA@
CONST	SEGMENT
??_C@_03GFCJIGAI@AAA@ DB 'AAA', 00H			; `string'
CONST	ENDS
;	COMDAT ??_C@_0NJ@BBEJCFPH@BeginGroup?$CI?$CJ?5basically?5locks?5th@
CONST	SEGMENT
??_C@_0NJ@BBEJCFPH@BeginGroup?$CI?$CJ?5basically?5locks?5th@ DB 'BeginGro'
	DB	'up() basically locks the horizontal position for new line. En'
	DB	'dGroup() bundles the whole group so that you can use "item" f'
	DB	'unctions such as IsItemHovered()/IsItemActive() or SameLine()'
	DB	' etc. on the whole group.', 00H		; `string'
CONST	ENDS
;	COMDAT ??_C@_06LCLFDFOL@Groups@
CONST	SEGMENT
??_C@_06LCLFDFOL@Groups@ DB 'Groups', 00H		; `string'
CONST	ENDS
;	COMDAT ??_C@_0BB@PAPJGNOM@I?5am?5an?5odd?5tab?4@
CONST	SEGMENT
??_C@_0BB@PAPJGNOM@I?5am?5an?5odd?5tab?4@ DB 'I am an odd tab.', 00H ; `string'
CONST	ENDS
;	COMDAT ??_C@_0BE@HMOLENGG@This?5is?5the?5?$CFs?5tab?$CB@
CONST	SEGMENT
??_C@_0BE@HMOLENGG@This?5is?5the?5?$CFs?5tab?$CB@ DB 'This is the %s tab!'
	DB	00H						; `string'
CONST	ENDS
;	COMDAT ??_C@_06NBIPACBO@Daikon@
CONST	SEGMENT
??_C@_06NBIPACBO@Daikon@ DB 'Daikon', 00H		; `string'
CONST	ENDS
;	COMDAT ??_C@_06LGPLDCHA@Celery@
CONST	SEGMENT
??_C@_06LGPLDCHA@Celery@ DB 'Celery', 00H		; `string'
CONST	ENDS
;	COMDAT ??_C@_08NACLCGIP@Beetroot@
CONST	SEGMENT
??_C@_08NACLCGIP@Beetroot@ DB 'Beetroot', 00H		; `string'
CONST	ENDS
;	COMDAT ??_C@_09JNADJLBG@Artichoke@
CONST	SEGMENT
??_C@_09JNADJLBG@Artichoke@ DB 'Artichoke', 00H		; `string'
CONST	ENDS
;	COMDAT ??_C@_0CF@NLLNBILH@ImGuiTabBarFlags_FittingPolicyS@
CONST	SEGMENT
??_C@_0CF@NLLNBILH@ImGuiTabBarFlags_FittingPolicyS@ DB 'ImGuiTabBarFlags_'
	DB	'FittingPolicyScroll', 00H			; `string'
CONST	ENDS
;	COMDAT ??_C@_0CJ@IIIJDEBN@ImGuiTabBarFlags_FittingPolicyR@
CONST	SEGMENT
??_C@_0CJ@IIIJDEBN@ImGuiTabBarFlags_FittingPolicyR@ DB 'ImGuiTabBarFlags_'
	DB	'FittingPolicyResizeDown', 00H		; `string'
CONST	ENDS
;	COMDAT ??_C@_0CO@PEFOKBDP@ImGuiTabBarFlags_NoCloseWithMid@
CONST	SEGMENT
??_C@_0CO@PEFOKBDP@ImGuiTabBarFlags_NoCloseWithMid@ DB 'ImGuiTabBarFlags_'
	DB	'NoCloseWithMiddleMouseButton', 00H		; `string'
CONST	ENDS
;	COMDAT ??_C@_0CE@ODMHCKNA@ImGuiTabBarFlags_TabListPopupBu@
CONST	SEGMENT
??_C@_0CE@ODMHCKNA@ImGuiTabBarFlags_TabListPopupBu@ DB 'ImGuiTabBarFlags_'
	DB	'TabListPopupButton', 00H			; `string'
CONST	ENDS
;	COMDAT ??_C@_0CD@CJJDGNCL@ImGuiTabBarFlags_AutoSelectNewT@
CONST	SEGMENT
??_C@_0CD@CJJDGNCL@ImGuiTabBarFlags_AutoSelectNewT@ DB 'ImGuiTabBarFlags_'
	DB	'AutoSelectNewTabs', 00H			; `string'
CONST	ENDS
;	COMDAT ??_C@_0BN@FKNGBAKI@ImGuiTabBarFlags_Reorderable@
CONST	SEGMENT
??_C@_0BN@FKNGBAKI@ImGuiTabBarFlags_Reorderable@ DB 'ImGuiTabBarFlags_Reo'
	DB	'rderable', 00H				; `string'
CONST	ENDS
;	COMDAT ??_C@_0BI@NAEAKGLC@Advanced?5?$CG?5Close?5Button@
CONST	SEGMENT
??_C@_0BI@NAEAKGLC@Advanced?5?$CG?5Close?5Button@ DB 'Advanced & Close Bu'
	DB	'tton', 00H					; `string'
CONST	ENDS
;	COMDAT ??_C@_0DD@CJPLEJGJ@This?5is?5the?5Cucumber?5tab?$CB?6blah?5@
CONST	SEGMENT
??_C@_0DD@CJPLEJGJ@This?5is?5the?5Cucumber?5tab?$CB?6blah?5@ DB 'This is '
	DB	'the Cucumber tab!', 0aH, 'blah blah blah blah blah', 00H ; `string'
CONST	ENDS
;	COMDAT ??_C@_08FIHABPKG@Cucumber@
CONST	SEGMENT
??_C@_08FIHABPKG@Cucumber@ DB 'Cucumber', 00H		; `string'
CONST	ENDS
;	COMDAT ??_C@_0DD@MJGBNDMM@This?5is?5the?5Broccoli?5tab?$CB?6blah?5@
CONST	SEGMENT
??_C@_0DD@MJGBNDMM@This?5is?5the?5Broccoli?5tab?$CB?6blah?5@ DB 'This is '
	DB	'the Broccoli tab!', 0aH, 'blah blah blah blah blah', 00H ; `string'
CONST	ENDS
;	COMDAT ??_C@_08LMFMBPKH@Broccoli@
CONST	SEGMENT
??_C@_08LMFMBPKH@Broccoli@ DB 'Broccoli', 00H		; `string'
CONST	ENDS
;	COMDAT ??_C@_0DC@GCKNABCK@This?5is?5the?5Avocado?5tab?$CB?6blah?5b@
CONST	SEGMENT
??_C@_0DC@GCKNABCK@This?5is?5the?5Avocado?5tab?$CB?6blah?5b@ DB 'This is '
	DB	'the Avocado tab!', 0aH, 'blah blah blah blah blah', 00H ; `string'
CONST	ENDS
;	COMDAT ??_C@_07PJEDDDBE@Avocado@
CONST	SEGMENT
??_C@_07PJEDDDBE@Avocado@ DB 'Avocado', 00H		; `string'
CONST	ENDS
;	COMDAT ??_C@_08BHPFJKBJ@MyTabBar@
CONST	SEGMENT
??_C@_08BHPFJKBJ@MyTabBar@ DB 'MyTabBar', 00H		; `string'
CONST	ENDS
;	COMDAT ??_C@_04DIJFMEPE@Tabs@
CONST	SEGMENT
??_C@_04DIJFMEPE@Tabs@ DB 'Tabs', 00H			; `string'
CONST	ENDS
;	COMDAT ??_C@_03ELMLMPLG@Box@
CONST	SEGMENT
??_C@_03ELMLMPLG@Box@ DB 'Box', 00H			; `string'
CONST	ENDS
;	COMDAT ??_C@_0BD@CAEJLMBE@Manually?5wrapping?3@
CONST	SEGMENT
??_C@_0BD@CAEJLMBE@Manually?5wrapping?3@ DB 'Manually wrapping:', 00H ; `string'
CONST	ENDS
;	COMDAT ??_C@_01HMGJMAIH@B@
CONST	SEGMENT
??_C@_01HMGJMAIH@B@ DB 'B', 00H				; `string'
CONST	ENDS
;	COMDAT ??_C@_01FHEEJDEE@A@
CONST	SEGMENT
??_C@_01FHEEJDEE@A@ DB 'A', 00H				; `string'
CONST	ENDS
;	COMDAT ??_C@_06OHPCMELK@Lists?3@
CONST	SEGMENT
??_C@_06OHPCMELK@Lists?3@ DB 'Lists:', 00H		; `string'
CONST	ENDS
;	COMDAT ??_C@_01POHCFINO@Z@
CONST	SEGMENT
??_C@_01POHCFINO@Z@ DB 'Z', 00H				; `string'
CONST	ENDS
;	COMDAT ??_C@_01NFFPALBN@Y@
CONST	SEGMENT
??_C@_01NFFPALBN@Y@ DB 'Y', 00H				; `string'
CONST	ENDS
;	COMDAT ??_C@_01MMEEDKFM@X@
CONST	SEGMENT
??_C@_01MMEEDKFM@X@ DB 'X', 00H				; `string'
CONST	ENDS
;	COMDAT ??_C@_04NKJFLIBG@Rich@
CONST	SEGMENT
??_C@_04NKJFLIBG@Rich@ DB 'Rich', 00H			; `string'
CONST	ENDS
;	COMDAT ??_C@_02HLOHLKJH@Is@
CONST	SEGMENT
??_C@_02HLOHLKJH@Is@ DB 'Is', 00H			; `string'
CONST	ENDS
;	COMDAT ??_C@_06MNPBPLDE@Tailor@
CONST	SEGMENT
??_C@_06MNPBPLDE@Tailor@ DB 'Tailor', 00H		; `string'
CONST	ENDS
;	COMDAT ??_C@_02IGABPKMB@My@
CONST	SEGMENT
??_C@_02IGABPKMB@My@ DB 'My', 00H			; `string'
CONST	ENDS
;	COMDAT ??_C@_05OJEOCJOL@x?$DN300@
CONST	SEGMENT
??_C@_05OJEOCJOL@x?$DN300@ DB 'x=300', 00H		; `string'
CONST	ENDS
;	COMDAT ??_C@_05EFIMCDIL@x?$DN150@
CONST	SEGMENT
??_C@_05EFIMCDIL@x?$DN150@ DB 'x=150', 00H		; `string'
CONST	ENDS
;	COMDAT ??_C@_07KDGBBGOD@Aligned@
CONST	SEGMENT
??_C@_07KDGBBGOD@Aligned@ DB 'Aligned', 00H		; `string'
CONST	ENDS
;	COMDAT ??_C@_0BN@FOPDMCKC@can?5fit?5within?5a?5text?5block?4@
CONST	SEGMENT
??_C@_0BN@FOPDMCKC@can?5fit?5within?5a?5text?5block?4@ DB 'can fit within'
	DB	' a text block.', 00H			; `string'
CONST	ENDS
;	COMDAT ??_C@_0O@DOOOCPOJ@Like?5this?5one@
CONST	SEGMENT
??_C@_0O@DOOOCPOJ@Like?5this?5one@ DB 'Like this one', 00H ; `string'
CONST	ENDS
;	COMDAT ??_C@_0O@JIDOKED@Small?5buttons@
CONST	SEGMENT
??_C@_0O@JIDOKED@Small?5buttons@ DB 'Small buttons', 00H ; `string'
CONST	ENDS
;	COMDAT ??_C@_0M@IAINFGJF@Corniflower@
CONST	SEGMENT
??_C@_0M@IAINFGJF@Corniflower@ DB 'Corniflower', 00H	; `string'
CONST	ENDS
;	COMDAT ??_C@_0P@PEKJFFJL@Normal?5buttons@
CONST	SEGMENT
??_C@_0P@PEKJFFJL@Normal?5buttons@ DB 'Normal buttons', 00H ; `string'
CONST	ENDS
;	COMDAT ??_C@_0BE@BBDLDECN@More?5spacing?3?5Hello@
CONST	SEGMENT
??_C@_0BE@BBDLDECN@More?5spacing?3?5Hello@ DB 'More spacing: Hello', 00H ; `string'
CONST	ENDS
;	COMDAT ??_C@_0BB@CPONELNL@Two?5items?3?5Hello@
CONST	SEGMENT
??_C@_0BB@CPONELNL@Two?5items?3?5Hello@ DB 'Two items: Hello', 00H ; `string'
CONST	ENDS
;	COMDAT ??_C@_0FA@GPJJJDFK@?$CIUse?5ImGui?3?3SameLine?$CI?$CJ?5to?5keep?5@
CONST	SEGMENT
??_C@_0FA@GPJJJDFK@?$CIUse?5ImGui?3?3SameLine?$CI?$CJ?5to?5keep?5@ DB '(U'
	DB	'se ImGui::SameLine() to keep adding items to the right of the'
	DB	' preceding item)', 00H			; `string'
CONST	ENDS
;	COMDAT ??_C@_0BI@MLGIMKHF@Basic?5Horizontal?5Layout@
CONST	SEGMENT
??_C@_0BI@MLGIMKHF@Basic?5Horizontal?5Layout@ DB 'Basic Horizontal Layout'
	DB	00H						; `string'
CONST	ENDS
;	COMDAT ??_C@_09IMCMNFDH@?$CD?$CDfloat5c@
CONST	SEGMENT
??_C@_09IMCMNFDH@?$CD?$CDfloat5c@ DB '##float5c', 00H	; `string'
CONST	ENDS
;	COMDAT ??_C@_09JFDHOEHG@?$CD?$CDfloat5b@
CONST	SEGMENT
??_C@_09JFDHOEHG@?$CD?$CDfloat5b@ DB '##float5b', 00H	; `string'
CONST	ENDS
;	COMDAT ??_C@_09LOBKLHLF@?$CD?$CDfloat5a@
CONST	SEGMENT
??_C@_09LOBKLHLF@?$CD?$CDfloat5a@ DB '##float5a', 00H	; `string'
CONST	ENDS
;	COMDAT ??_C@_0BE@CLIHJLDF@Align?5to?5right?5edge@
CONST	SEGMENT
??_C@_0BE@CLIHJLDF@Align?5to?5right?5edge@ DB 'Align to right edge', 00H ; `string'
CONST	ENDS
;	COMDAT ??_C@_0CD@JMHOPAFH@SetNextItemWidth?1PushItemWidth?$CI@
CONST	SEGMENT
??_C@_0CD@JMHOPAFH@SetNextItemWidth?1PushItemWidth?$CI@ DB 'SetNextItemWi'
	DB	'dth/PushItemWidth(-1)', 00H			; `string'
CONST	ENDS
;	COMDAT ??_C@_08DAGJALOJ@float?$CD?$CD4@
CONST	SEGMENT
??_C@_08DAGJALOJ@float?$CD?$CD4@ DB 'float##4', 00H	; `string'
CONST	ENDS
;	COMDAT ??_C@_0BO@IEOHBCBL@Align?5to?5right?5edge?5minus?5100@
CONST	SEGMENT
??_C@_0BO@IEOHBCBL@Align?5to?5right?5edge?5minus?5100@ DB 'Align to right'
	DB	' edge minus 100', 00H			; `string'
CONST	ENDS
;	COMDAT ??_C@_0CF@FHLMHJP@SetNextItemWidth?1PushItemWidth?$CI@
CONST	SEGMENT
??_C@_0CF@FHLMHJP@SetNextItemWidth?1PushItemWidth?$CI@ DB 'SetNextItemWid'
	DB	'th/PushItemWidth(-100)', 00H		; `string'
CONST	ENDS
;	COMDAT ??_C@_08HPCIJNCO@float?$CD?$CD3@
CONST	SEGMENT
??_C@_08HPCIJNCO@float?$CD?$CD3@ DB 'float##3', 00H	; `string'
CONST	ENDS
;	COMDAT ??_C@_0EK@LHEEJHHB@Half?5of?5available?5width?4?6?$CI?$HO?5rig@
CONST	SEGMENT
??_C@_0EK@LHEEJHHB@Half?5of?5available?5width?4?6?$CI?$HO?5rig@ DB 'Half '
	DB	'of available width.', 0aH, '(~ right-cursor_pos)', 0aH, '(wor'
	DB	'ks within a column set)', 00H		; `string'
CONST	ENDS
;	COMDAT ??_C@_0EB@LHGGMOLL@SetNextItemWidth?1PushItemWidth?$CI@
CONST	SEGMENT
??_C@_0EB@LHGGMOLL@SetNextItemWidth?1PushItemWidth?$CI@ DB 'SetNextItemWi'
	DB	'dth/PushItemWidth(GetContentRegionAvail().x * 0.5f)', 00H ; `string'
CONST	ENDS
;	COMDAT ??_C@_08GGDDKMGP@float?$CD?$CD2@
CONST	SEGMENT
??_C@_08GGDDKMGP@float?$CD?$CD2@ DB 'float##2', 00H	; `string'
CONST	ENDS
;	COMDAT ??_C@_0BG@HBJEDPEN@Half?5of?5window?5width?4@
CONST	SEGMENT
??_C@_0BG@HBJEDPEN@Half?5of?5window?5width?4@ DB 'Half of window width.', 00H ; `string'
CONST	ENDS
;	COMDAT ??_C@_0DI@PLEIEGIE@SetNextItemWidth?1PushItemWidth?$CI@
CONST	SEGMENT
??_C@_0DI@PLEIEGIE@SetNextItemWidth?1PushItemWidth?$CI@ DB 'SetNextItemWi'
	DB	'dth/PushItemWidth(GetWindowWidth() * 0.5f)', 00H ; `string'
CONST	ENDS
;	COMDAT ??_C@_08ENBOPPKM@float?$CD?$CD1@
CONST	SEGMENT
??_C@_08ENBOPPKM@float?$CD?$CD1@ DB 'float##1', 00H	; `string'
CONST	ENDS
;	COMDAT ??_C@_0N@BANGKKCL@Fixed?5width?4@
CONST	SEGMENT
??_C@_0N@BANGKKCL@Fixed?5width?4@ DB 'Fixed width.', 00H ; `string'
CONST	ENDS
;	COMDAT ??_C@_0CE@LPIOKAFF@SetNextItemWidth?1PushItemWidth?$CI@
CONST	SEGMENT
??_C@_0CE@LPIOKAFF@SetNextItemWidth?1PushItemWidth?$CI@ DB 'SetNextItemWi'
	DB	'dth/PushItemWidth(100)', 00H		; `string'
CONST	ENDS
;	COMDAT ??_C@_0O@PINHNBJ@Widgets?5Width@
CONST	SEGMENT
??_C@_0O@PINHNBJ@Widgets?5Width@ DB 'Widgets Width', 00H ; `string'
CONST	ENDS
;	COMDAT ??_C@_0DB@EENCLFAL@Rect?5of?5child?5window?5is?3?5?$CI?$CF?40f?0@
CONST	SEGMENT
??_C@_0DB@EENCLFAL@Rect?5of?5child?5window?5is?3?5?$CI?$CF?40f?0@ DB 'Rec'
	DB	't of child window is: (%.0f,%.0f) (%.0f,%.0f)', 00H ; `string'
CONST	ENDS
;	COMDAT ??_C@_0N@NPCHMHMN@Some?5test?5?$CFd@
CONST	SEGMENT
??_C@_0N@NPCHMHMN@Some?5test?5?$CFd@ DB 'Some test %d', 00H ; `string'
CONST	ENDS
;	COMDAT ??_C@_04EPOOCEMM@blah@
CONST	SEGMENT
??_C@_04EPOOCEMM@blah@ DB 'blah', 00H			; `string'
CONST	ENDS
;	COMDAT ??_C@_04OHGLKFFN@?$CF03d@
CONST	SEGMENT
??_C@_04OHGLKFFN@?$CF03d@ DB '%03d', 00H		; `string'
CONST	ENDS
;	COMDAT ??_C@_06LEKLKIFI@Child2@
CONST	SEGMENT
??_C@_06LEKLKIFI@Child2@ DB 'Child2', 00H		; `string'
CONST	ENDS
;	COMDAT ??_C@_0BI@NIHPFDMO@?$CF04d?3?5scrollable?5region@
CONST	SEGMENT
??_C@_0BI@NIHPFDMO@?$CF04d?3?5scrollable?5region@ DB '%04d: scrollable re'
	DB	'gion', 00H					; `string'
CONST	ENDS
;	COMDAT ??_C@_06JPIGPLJL@Child1@
CONST	SEGMENT
??_C@_06JPIGPLJL@Child1@ DB 'Child1', 00H		; `string'
CONST	ENDS
;	COMDAT ??_C@_06JMBAAABB@?$CD?$CDLine@
CONST	SEGMENT
??_C@_06JMBAAABB@?$CD?$CDLine@ DB '##Line', 00H		; `string'
CONST	ENDS
;	COMDAT ??_C@_04BNGNMAK@Goto@
CONST	SEGMENT
??_C@_04BNGNMAK@Goto@ DB 'Goto', 00H			; `string'
CONST	ENDS
;	COMDAT ??_C@_0N@PGMIMFJH@Disable?5Menu@
CONST	SEGMENT
??_C@_0N@PGMIMFJH@Disable?5Menu@ DB 'Disable Menu', 00H	; `string'
CONST	ENDS
;	COMDAT ??_C@_0BE@DLAKMPBE@Disable?5Mouse?5Wheel@
CONST	SEGMENT
??_C@_0BE@DLAKMPBE@Disable?5Mouse?5Wheel@ DB 'Disable Mouse Wheel', 00H ; `string'
CONST	ENDS
;	COMDAT ??_C@_0GO@NHEDEMHF@Use?5child?5windows?5to?5begin?5into@
CONST	SEGMENT
??_C@_0GO@NHEDEMHF@Use?5child?5windows?5to?5begin?5into@ DB 'Use child wi'
	DB	'ndows to begin into a self-contained independent scrolling/cl'
	DB	'ipping regions within a host window.', 00H	; `string'
CONST	ENDS
;	COMDAT ??_C@_0O@CCLKLEED@Child?5windows@
CONST	SEGMENT
??_C@_0O@CCLKLEED@Child?5windows@ DB 'Child windows', 00H ; `string'
CONST	ENDS
;	COMDAT ??_C@_06KMHOJANB@Layout@
CONST	SEGMENT
??_C@_06KMHOJANB@Layout@ DB 'Layout', 00H		; `string'
CONST	ENDS
;	COMDAT ??_C@_0HP@CKBHJIAM@IsItemHovered?$CI?$CJ?5after?5begin?5?$DN?5?$CF@
CONST	SEGMENT
??_C@_0HP@CKBHJIAM@IsItemHovered?$CI?$CJ?5after?5begin?5?$DN?5?$CF@ DB 'I'
	DB	'sItemHovered() after begin = %d (== is title bar hovered)', 0aH
	DB	'IsItemActive() after begin = %d (== is window being clicked/m'
	DB	'oved)', 0aH, 00H				; `string'
CONST	ENDS
;	COMDAT ??_C@_05LGELBCGM@Close@
CONST	SEGMENT
??_C@_05LGELBCGM@Close@ DB 'Close', 00H			; `string'
CONST	ENDS
;	COMDAT ??_C@_0BP@MFKNMHP@Title?5bar?5Hovered?1Active?5tests@
CONST	SEGMENT
??_C@_0BP@MFKNMHP@Title?5bar?5Hovered?1Active?5tests@ DB 'Title bar Hover'
	DB	'ed/Active tests', 00H			; `string'
CONST	ENDS
;	COMDAT ??_C@_0DJ@OKFMLKNH@Hovered?1Active?5tests?5after?5Begi@
CONST	SEGMENT
??_C@_0DJ@OKFMLKNH@Hovered?1Active?5tests?5after?5Begi@ DB 'Hovered/Activ'
	DB	'e tests after Begin() for title bar testing', 00H ; `string'
CONST	ENDS
;	COMDAT ??_C@_05JLNEMJLN@dummy@
CONST	SEGMENT
??_C@_05JLNEMJLN@dummy@ DB 'dummy', 00H			; `string'
CONST	ENDS
;	COMDAT ??_C@_0EB@JLFLAMNL@This?5is?5another?5child?5window?5fo@
CONST	SEGMENT
??_C@_0EB@JLFLAMNL@This?5is?5another?5child?5window?5fo@ DB 'This is anot'
	DB	'her child window for testing the _ChildWindows flag.', 00H ; `string'
CONST	ENDS
;	COMDAT ??_C@_05GPGNDLEK@child@
CONST	SEGMENT
??_C@_05GPGNDLEK@child@ DB 'child', 00H			; `string'
CONST	ENDS
;	COMDAT ??_C@_0BEP@BNECLKFC@IsWindowHovered?$CI?$CJ?5?$DN?5?$CFd?6IsWindow@
CONST	SEGMENT
??_C@_0BEP@BNECLKFC@IsWindowHovered?$CI?$CJ?5?$DN?5?$CFd?6IsWindow@ DB 'I'
	DB	'sWindowHovered() = %d', 0aH, 'IsWindowHovered(_AllowWhenBlock'
	DB	'edByPopup) = %d', 0aH, 'IsWindowHovered(_AllowWhenBlockedByAc'
