; Listing generated by Microsoft (R) Optimizing Compiler Version 19.27.29112.0 

	TITLE	D:\Programmieren\csgoHack\ProjektWolf\ImGui DirectX 9 Kiero Hook 2\imgui\imgui_draw.cpp
	.686P
	.XMM
	include listing.inc
	.model	flat

INCLUDELIB MSVCRTD
INCLUDELIB OLDNAMES

msvcjmc	SEGMENT
__ED9CC025_corecrt_memcpy_s@h DB 01H
__241EEA0C_corecrt_memory@h DB 01H
__875914C9_corecrt_wstring@h DB 01H
__731387C4_string@h DB 01H
__42049807_imgui@h DB 01H
__1850469A_corecrt_stdio_config@h DB 01H
__01D10305_corecrt_wstdio@h DB 01H
__9FF75F13_stdio@h DB 01H
__F5601360_stdlib@h DB 01H
__E2865EBA_corecrt_math@h DB 01H
__71512A68_imgui_internal@h DB 01H
__614D3496_malloc@h DB 01H
__285947CA_imstb_rectpack@h DB 01H
__15A8FCCD_imstb_truetype@h DB 01H
__C693DA93_imgui_draw@cpp DB 01H
__45E2592B_predefined C++ types (compiler internal) DB 01H
msvcjmc	ENDS
CONST	SEGMENT
?FONT_ATLAS_DEFAULT_TEX_DATA_PIXELS@@3QBDB DB '..-         -XXXXXXX-    X'
	DB	'    -           X           -XXXXXXX          -          XXXX'
	DB	'XXX-     XX          ..-         -X.....X-   X.X   -         '
	DB	' X.X          -X.....X          -          X.....X-    X..X  '
	DB	'       ---         -XXX.XXX-  X...X  -         X...X         '
	DB	'-X....X           -           X....X-    X..X         X      '
	DB	'     -  X.X  - X.....X -        X.....X        -X...X        '
	DB	'    -            X...X-    X..X         XX          -  X.X  -'
	DB	'X.......X-       X.......X       -X..X.X           -         '
	DB	'  X.X..X-    X..X         X.X         -  X.X  -XXXX.XXXX-    '
	DB	'   XXXX.XXXX       -X.X X.X          -          X.X X.X-    X'
	DB	'..XXX       X..X        -  X.X  -   X.X   -          X.X     '
	DB	'     -XX   X.X         -         X.X   XX-    X..X..XXX    X.'
	DB	'..X       -  X.X  -   X.X   -    XX    X.X    XX    -      X.'
	DB	'X        -        X.X      -    X..X..X..XX  X....X      -  X'
	DB	'.X  -   X.X   -   X.X    X.X    X.X   -       X.X       -    '
	DB	'   X.X       -    X..X..X..X.X X.....X     -  X.X  -   X.X   '
	DB	'-  X..X    X.X    X..X  -        X.X      -      X.X        -'
	DB	'XXX X..X..X..X..XX......X    -  X.X  -   X.X   - X...XXXXXX.X'
	DB	'XXXXX...X -         X.X   XX-XX   X.X         -X..XX........X'
	DB	'..XX.......X   -  X.X  -   X.X   -X.....................X-   '
	DB	'       X.X X.X-X.X X.X          -X...X...........XX........X '
	DB	' -  X.X  -   X.X   - X...XXXXXX.XXXXXX...X -           X.X..X'
	DB	'-X..X.X           - X..............XX.........X -XXX.XXX-   X'
	DB	'.X   -  X..X    X.X    X..X  -            X...X-X...X        '
	DB	'    -  X.............XX..........X-X.....X-   X.X   -   X.X  '
	DB	'  X.X    X.X   -           X....X-X....X           -  X......'
	DB	'.......XX......XXXXX-XXXXXXX-   X.X   -    XX    X.X    XX   '
	DB	' -          X.....X-X.....X          -   X............XX...X.'
	DB	'.X    ---------   X.X   -          X.X          -          XX'
	DB	'XXXXX-XXXXXXX          -   X...........X X..X X..X   -       '
	DB	'-XXXX.XXXX-       XXXX.XXXX       ---------------------------'
	DB	'----------    X..........X X.X  X..X   -       -X.......X-   '
	DB	'    X.......X       -    XX           XX    -           -    '
	DB	'X..........X XX    X..X  -       - X.....X -        X.....X  '
	DB	'      -   X.X           X.X   -           -     X........X   '
	DB	'     X..X          -  X...X  -         X...X         -  X..X '
	DB	'          X..X  -           -     X........X         XX      '
	DB	'     -   X.X   -          X.X          - X...XXXXXXXXXXXXX...'
	DB	'X -           -     XXXXXXXXXX  ------------        -    X   '
	DB	' -           X           -X.....................X-           '
	DB	'------------------                    -----------------------'
	DB	'------------ X...XXXXXXXXXXXXX...X -                         '
	DB	'                                                          -  '
	DB	'X..X           X..X  -                                       '
	DB	'                                            -   X.X          '
	DB	' X.X   -                                                     '
	DB	'                              -    XX           XX    -      '
	DB	'                       ', 00H		; FONT_ATLAS_DEFAULT_TEX_DATA_PIXELS
	ORG $+3
?ranges@?1??GetGlyphRangesDefault@ImFontAtlas@@QAEPBGXZ@4QBGB DW 020H ; `ImFontAtlas::GetGlyphRangesDefault'::`2'::ranges
	DW	0ffH
	DW	00H
	ORG $+2
?ranges@?1??GetGlyphRangesKorean@ImFontAtlas@@QAEPBGXZ@4QBGB DW 020H ; `ImFontAtlas::GetGlyphRangesKorean'::`2'::ranges
	DW	0ffH
	DW	03131H
	DW	03163H
	DW	0ac00H
	DW	0d79dH
	DW	00H
	ORG $+2
?ranges@?1??GetGlyphRangesChineseFull@ImFontAtlas@@QAEPBGXZ@4QBGB DW 020H ; `ImFontAtlas::GetGlyphRangesChineseFull'::`2'::ranges
	DW	0ffH
	DW	02000H
	DW	0206fH
	DW	03000H
	DW	030ffH
	DW	031f0H
	DW	031ffH
	DW	0ff00H
	DW	0ffefH
	DW	04e00H
	DW	09fafH
	DW	00H
	ORG $+6
?accumulative_offsets_from_0x4E00@?1??GetGlyphRangesChineseSimplifiedCommon@ImFontAtlas@@QAEPBGXZ@4QBFB DW 00H ; `ImFontAtlas::GetGlyphRangesChineseSimplifiedCommon'::`2'::accumulative_offsets_from_0x4E00
	DW	01H
	DW	02H
	DW	04H
	DW	01H
	DW	01H
	DW	01H
	DW	01H
	DW	02H
	DW	01H
	DW	03H
	DW	02H
	DW	01H
	DW	02H
	DW	02H
	DW	01H
	DW	01H
	DW	01H
	DW	01H
	DW	01H
	DW	05H
	DW	02H
	DW	01H
	DW	02H
	DW	03H
	DW	03H
	DW	03H
	DW	02H
	DW	02H
	DW	04H
	DW	01H
	DW	01H
	DW	01H
	DW	02H
	DW	01H
	DW	05H
	DW	02H
	DW	03H
	DW	01H
	DW	02H
	DW	01H
	DW	02H
	DW	01H
	DW	01H
	DW	02H
	DW	01H
	DW	01H
	DW	02H
	DW	02H
	DW	01H
	DW	04H
	DW	01H
	DW	01H
	DW	01H
	DW	01H
	DW	05H
	DW	0aH
	DW	01H
	DW	02H
	DW	013H
	DW	02H
	DW	01H
	DW	02H
	DW	01H
	DW	02H
	DW	01H
	DW	02H
	DW	01H
	DW	02H
	DW	01H
	DW	05H
	DW	01H
	DW	06H
	DW	03H
	DW	02H
	DW	01H
	DW	02H
	DW	02H
	DW	01H
	DW	01H
	DW	01H
	DW	04H
	DW	08H
	DW	05H
	DW	01H
	DW	01H
	DW	04H
	DW	01H
	DW	01H
	DW	03H
	DW	01H
	DW	02H
	DW	01H
	DW	05H
	DW	01H
	DW	02H
	DW	01H
	DW	01H
	DW	01H
	DW	0aH
	DW	01H
	DW	01H
	DW	05H
	DW	02H
	DW	04H
	DW	06H
	DW	01H
	DW	04H
	DW	02H
	DW	02H
	DW	02H
	DW	0cH
	DW	02H
	DW	01H
	DW	01H
	DW	06H
	DW	01H
	DW	01H
	DW	01H
	DW	04H
	DW	01H
	DW	01H
	DW	04H
	DW	06H
	DW	05H
	DW	01H
	DW	04H
	DW	02H
	DW	02H
	DW	04H
	DW	0aH
	DW	07H
	DW	01H
	DW	01H
	DW	04H
	DW	02H
	DW	04H
	DW	02H
	DW	01H
	DW	04H
	DW	03H
	DW	06H
	DW	0aH
	DW	0cH
	DW	05H
	DW	07H
	DW	02H
	DW	0eH
	DW	02H
	DW	09H
	DW	01H
	DW	01H
	DW	06H
	DW	07H
	DW	0aH
	DW	04H
	DW	07H
	DW	0dH
	DW	01H
	DW	05H
	DW	04H
	DW	08H
	DW	04H
	DW	01H
	DW	01H
	DW	02H
	DW	01cH
	DW	05H
	DW	06H
	DW	01H
	DW	01H
	DW	05H
	DW	02H
	DW	05H
	DW	014H
	DW	02H
	DW	02H
	DW	09H
	DW	08H
	DW	0bH
	DW	02H
	DW	09H
	DW	011H
	DW	01H
	DW	08H
	DW	06H
	DW	08H
	DW	01bH
	DW	04H
	DW	06H
	DW	09H
	DW	014H
	DW	0bH
	DW	01bH
	DW	06H
	DW	044H
	DW	02H
	DW	02H
	DW	01H
	DW	01H
	DW	01H
	DW	02H
	DW	01H
	DW	02H
	DW	02H
	DW	07H
	DW	06H
	DW	0bH
	DW	03H
	DW	03H
	DW	01H
	DW	01H
	DW	03H
	DW	01H
	DW	02H
	DW	01H
	DW	01H
	DW	01H
	DW	01H
	DW	01H
	DW	03H
	DW	01H
	DW	01H
	DW	08H
	DW	03H
	DW	04H
	DW	01H
	DW	05H
	DW	07H
	DW	02H
	DW	01H
	DW	04H
	DW	04H
	DW	08H
	DW	04H
	DW	02H
	DW	01H
	DW	02H
	DW	01H
	DW	01H
	DW	04H
	DW	05H
	DW	06H
	DW	03H
	DW	06H
	DW	02H
	DW	0cH
	DW	03H
	DW	01H
	DW	03H
	DW	09H
	DW	02H
	DW	04H
	DW	03H
	DW	04H
	DW	01H
	DW	05H
	DW	03H
	DW	03H
	DW	01H
	DW	03H
	DW	07H
	DW	01H
	DW	05H
	DW	01H
	DW	01H
	DW	01H
	DW	01H
	DW	02H
	DW	03H
	DW	04H
	DW	05H
	DW	02H
	DW	03H
	DW	02H
	DW	06H
	DW	01H
	DW	01H
	DW	02H
	DW	01H
	DW	07H
	DW	01H
	DW	07H
	DW	03H
	DW	04H
	DW	05H
	DW	0fH
	DW	02H
	DW	02H
	DW	01H
	DW	05H
	DW	03H
	DW	016H
	DW	013H
	DW	02H
	DW	01H
	DW	01H
	DW	01H
	DW	01H
	DW	02H
	DW	05H
	DW	01H
	DW	01H
	DW	01H
	DW	06H
	DW	01H
	DW	01H
	DW	0cH
	DW	08H
	DW	02H
	DW	09H
	DW	012H
	DW	016H
	DW	04H
	DW	01H
	DW	01H
	DW	05H
	DW	01H
	DW	010H
	DW	01H
	DW	02H
	DW	07H
	DW	0aH
	DW	0fH
	DW	01H
	DW	01H
	DW	06H
	DW	02H
	DW	04H
	DW	01H
	DW	02H
	DW	04H
	DW	01H
	DW	06H
	DW	01H
	DW	01H
	DW	03H
	DW	02H
	DW	04H
	DW	01H
	DW	06H
	DW	04H
	DW	05H
	DW	01H
	DW	02H
	DW	01H
	DW	01H
	DW	02H
	DW	01H
	DW	0aH
	DW	03H
	DW	01H
	DW	03H
	DW	02H
	DW	01H
	DW	09H
	DW	03H
	DW	02H
	DW	05H
	DW	07H
	DW	02H
	DW	013H
	DW	04H
	DW	03H
	DW	06H
	DW	01H
	DW	01H
	DW	01H
	DW	01H
	DW	01H
	DW	04H
	DW	03H
	DW	02H
	DW	01H
	DW	01H
	DW	01H
	DW	02H
	DW	05H
	DW	03H
	DW	01H
	DW	01H
	DW	01H
	DW	02H
	DW	02H
	DW	01H
	DW	01H
	DW	02H
	DW	01H
	DW	01H
	DW	02H
	DW	01H
	DW	03H
	DW	01H
	DW	01H
	DW	01H
	DW	03H
	DW	07H
	DW	01H
	DW	04H
	DW	01H
	DW	01H
	DW	02H
	DW	01H
	DW	01H
	DW	02H
	DW	01H
	DW	02H
	DW	04H
	DW	04H
	DW	03H
	DW	08H
	DW	01H
	DW	01H
	DW	01H
	DW	02H
	DW	01H
	DW	03H
	DW	05H
	DW	01H
	DW	03H
	DW	01H
	DW	03H
	DW	04H
	DW	06H
	DW	02H
	DW	02H
	DW	0eH
	DW	04H
	DW	06H
	DW	06H
	DW	0bH
	DW	09H
	DW	01H
	DW	0fH
	DW	03H
	DW	01H
	DW	01cH
	DW	05H
	DW	02H
	DW	05H
	DW	05H
	DW	03H
	DW	01H
	DW	03H
	DW	04H
	DW	05H
	DW	04H
	DW	06H
	DW	0eH
	DW	03H
	DW	02H
	DW	03H
	DW	05H
	DW	015H
	DW	02H
	DW	07H
	DW	014H
	DW	0aH
	DW	01H
	DW	02H
	DW	013H
	DW	02H
	DW	04H
	DW	01cH
	DW	01cH
	DW	02H
	DW	03H
	DW	02H
	DW	01H
	DW	0eH
	DW	04H
	DW	01H
	DW	01aH
	DW	01cH
	DW	02aH
	DW	0cH
	DW	028H
	DW	03H
	DW	034H
	DW	04fH
	DW	05H
	DW	0eH
	DW	011H
	DW	03H
	DW	02H
	DW	02H
	DW	0bH
	DW	03H
	DW	04H
	DW	06H
	DW	03H
	DW	01H
	DW	08H
	DW	02H
	DW	017H
	DW	04H
	DW	05H
	DW	08H
	DW	0aH
	DW	04H
	DW	02H
	DW	07H
	DW	03H
	DW	05H
	DW	01H
	DW	01H
	DW	06H
	DW	03H
	DW	01H
	DW	02H
	DW	02H
	DW	02H
	DW	05H
	DW	01cH
	DW	01H
	DW	01H
	DW	07H
	DW	07H
	DW	014H
	DW	05H
	DW	03H
	DW	01dH
	DW	03H
	DW	011H
	DW	01aH
	DW	01H
	DW	08H
	DW	04H
	DW	01bH
	DW	03H
	DW	06H
	DW	0bH
	DW	017H
	DW	05H
	DW	03H
	DW	04H
	DW	06H
	DW	0dH
	DW	018H
	DW	010H
	DW	06H
	DW	05H
	DW	0aH
	DW	019H
	DW	023H
	DW	07H
	DW	03H
	DW	02H
	DW	03H
	DW	03H
	DW	0eH
	DW	03H
	DW	06H
	DW	02H
	DW	06H
	DW	01H
	DW	04H
	DW	02H
	DW	03H
	DW	08H
	DW	02H
	DW	01H
	DW	01H
	DW	03H
	DW	03H
	DW	03H
	DW	04H
	DW	01H
	DW	01H
	DW	0dH
	DW	02H
	DW	02H
	DW	04H
	DW	05H
	DW	02H
	DW	01H
	DW	0eH
	DW	0eH
	DW	01H
	DW	02H
	DW	02H
	DW	01H
	DW	04H
	DW	05H
	DW	02H
	DW	03H
	DW	01H
	DW	0eH
	DW	03H
	DW	0cH
	DW	03H
	DW	011H
	DW	02H
	DW	010H
	DW	05H
	DW	01H
	DW	02H
	DW	01H
	DW	08H
	DW	09H
	DW	03H
	DW	013H
	DW	04H
	DW	02H
	DW	02H
	DW	04H
	DW	011H
	DW	019H
	DW	015H
	DW	014H
	DW	01cH
	DW	04bH
	DW	01H
	DW	0aH
	DW	01dH
	DW	067H
	DW	04H
	DW	01H
	DW	02H
	DW	01H
	DW	01H
	DW	04H
	DW	02H
	DW	04H
	DW	01H
	DW	02H
	DW	03H
	DW	018H
	DW	02H
	DW	02H
	DW	02H
	DW	01H
	DW	01H
	DW	02H
	DW	01H
	DW	03H
	DW	08H
	DW	01H
	DW	01H
	DW	01H
	DW	02H
	DW	01H
	DW	01H
	DW	03H
	DW	01H
	DW	01H
	DW	01H
	DW	06H
	DW	01H
	DW	05H
	DW	03H
	DW	01H
	DW	01H
	DW	01H
	DW	03H
	DW	04H
	DW	01H
	DW	01H
	DW	05H
	DW	02H
	DW	01H
	DW	05H
	DW	06H
	DW	0dH
	DW	09H
	DW	010H
	DW	01H
	DW	01H
	DW	01H
	DW	01H
	DW	03H
	DW	02H
	DW	03H
	DW	02H
	DW	04H
	DW	05H
	DW	02H
	DW	05H
	DW	02H
	DW	02H
	DW	03H
	DW	07H
	DW	0dH
	DW	07H
	DW	02H
	DW	02H
	DW	01H
	DW	01H
	DW	01H
	DW	01H
	DW	02H
	DW	03H
	DW	03H
	DW	02H
	DW	01H
	DW	06H
	DW	04H
	DW	09H
	DW	02H
	DW	01H
	DW	0eH
	DW	02H
	DW	0eH
	DW	02H
	DW	01H
	DW	012H
	DW	03H
	DW	04H
	DW	0eH
	DW	04H
	DW	0bH
	DW	029H
	DW	0fH
	DW	017H
	DW	0fH
	DW	017H
	DW	0b0H
	DW	01H
	DW	03H
	DW	04H
	DW	01H
	DW	01H
	DW	01H
	DW	01H
	DW	05H
	DW	03H
	DW	01H
	DW	02H
	DW	03H
	DW	07H
	DW	03H
	DW	01H
	DW	01H
	DW	02H
	DW	01H
	DW	02H
	DW	04H
	DW	04H
	DW	06H
	DW	02H
	DW	04H
	DW	01H
	DW	09H
	DW	07H
	DW	01H
	DW	0aH
	DW	05H
	DW	08H
	DW	010H
	DW	01dH
	DW	01H
	DW	01H
	DW	02H
	DW	02H
	DW	03H
	DW	01H
	DW	03H
	DW	05H
	DW	02H
	DW	04H
	DW	05H
	DW	04H
	DW	01H
	DW	01H
	DW	02H
	DW	02H
	DW	03H
	DW	03H
	DW	07H
	DW	01H
	DW	06H
	DW	0aH
	DW	01H
	DW	011H
	DW	01H
	DW	02cH
	DW	04H
	DW	06H
	DW	02H
	DW	01H
	DW	01H
	DW	06H
	DW	05H
	DW	04H
	DW	02H
	DW	0aH
	DW	01H
	DW	06H
	DW	09H
	DW	02H
	DW	08H
	DW	01H
	DW	018H
	DW	01H
	DW	02H
	DW	0dH
	DW	07H
	DW	08H
	DW	08H
	DW	02H
	DW	01H
	DW	04H
	DW	01H
	DW	03H
	DW	01H
	DW	03H
	DW	03H
	DW	05H
	DW	02H
	DW	05H
	DW	0aH
	DW	09H
	DW	04H
	DW	09H
	DW	0cH
	DW	02H
	DW	01H
	DW	06H
	DW	01H
	DW	0aH
	DW	01H
	DW	01H
	DW	07H
	DW	07H
	DW	04H
	DW	0aH
	DW	08H
	DW	03H
	DW	01H
	DW	0dH
	DW	04H
	DW	03H
	DW	01H
	DW	06H
	DW	01H
	DW	03H
	DW	05H
	DW	02H
	DW	01H
	DW	02H
	DW	011H
	DW	010H
	DW	05H
	DW	02H
	DW	010H
	DW	06H
	DW	01H
	DW	04H
	DW	02H
	DW	01H
	DW	03H
	DW	03H
	DW	06H
	DW	08H
	DW	05H
	DW	0bH
	DW	0bH
	DW	01H
	DW	03H
	DW	03H
	DW	02H
	DW	04H
	DW	06H
	DW	0aH
	DW	09H
	DW	05H
	DW	07H
	DW	04H
	DW	07H
	DW	04H
	DW	07H
	DW	01H
	DW	01H
	DW	04H
	DW	02H
	DW	01H
	DW	03H
	DW	06H
	DW	08H
	DW	07H
	DW	01H
	DW	06H
	DW	0bH
	DW	05H
	DW	05H
	DW	03H
	DW	018H
	DW	09H
	DW	04H
	DW	02H
	DW	07H
	DW	0dH
	DW	05H
	DW	01H
	DW	08H
	DW	052H
	DW	010H
	DW	03dH
	DW	01H
	DW	01H
	DW	01H
	DW	04H
	DW	02H
	DW	02H
	DW	010H
	DW	0aH
	DW	03H
	DW	08H
	DW	01H
	DW	01H
	DW	06H
	DW	04H
	DW	02H
	DW	01H
	DW	03H
	DW	01H
	DW	01H
	DW	01H
	DW	04H
	DW	03H
	DW	08H
	DW	04H
	DW	02H
	DW	02H
	DW	01H
	DW	01H
	DW	01H
	DW	01H
	DW	01H
	DW	06H
	DW	03H
	DW	05H
	DW	01H
	DW	01H
	DW	04H
	DW	06H
	DW	09H
	DW	02H
	DW	01H
	DW	01H
	DW	01H
	DW	02H
	DW	01H
	DW	07H
	DW	02H
	DW	01H
	DW	06H
	DW	01H
	DW	05H
	DW	04H
	DW	04H
	DW	03H
	DW	01H
	DW	08H
	DW	01H
	DW	03H
	DW	03H
	DW	01H
	DW	03H
	DW	02H
	DW	02H
	DW	02H
	DW	02H
	DW	03H
	DW	01H
	DW	06H
	DW	01H
	DW	02H
	DW	01H
	DW	02H
	DW	01H
	DW	03H
	DW	07H
	DW	01H
	DW	08H
	DW	02H
	DW	01H
	DW	02H
	DW	01H
	DW	05H
	DW	02H
	DW	05H
	DW	03H
	DW	05H
	DW	0aH
	DW	01H
	DW	02H
	DW	01H
	DW	01H
	DW	03H
	DW	02H
	DW	05H
	DW	0bH
	DW	03H
	DW	09H
	DW	03H
	DW	05H
	DW	01H
	DW	01H
	DW	05H
	DW	09H
	DW	01H
	DW	02H
	DW	01H
	DW	05H
	DW	07H
	DW	09H
	DW	09H
	DW	08H
	DW	01H
	DW	03H
	DW	03H
	DW	03H
	DW	06H
	DW	08H
	DW	02H
	DW	03H
	DW	02H
	DW	01H
	DW	01H
	DW	020H
	DW	06H
	DW	01H
	DW	02H
	DW	0fH
	DW	09H
	DW	03H
	DW	07H
	DW	0dH
	DW	01H
	DW	03H
	DW	0aH
	DW	0dH
	DW	02H
	DW	0eH
	DW	01H
	DW	0dH
	DW	0aH
	DW	02H
	DW	01H
	DW	03H
	DW	0aH
	DW	04H
	DW	0fH
	DW	02H
	DW	0fH
	DW	0fH
	DW	0aH
	DW	01H
	DW	03H
	DW	09H
	DW	06H
	DW	09H
	DW	020H
	DW	019H
	DW	01aH
	DW	02fH
	DW	07H
	DW	03H
	DW	02H
	DW	03H
	DW	01H
	DW	06H
	DW	03H
	DW	04H
	DW	03H
	DW	02H
	DW	08H
	DW	05H
	DW	04H
	DW	01H
	DW	09H
	DW	04H
	DW	02H
	DW	02H
	DW	013H
	DW	0aH
	DW	06H
	DW	02H
	DW	03H
	DW	08H
	DW	01H
	DW	02H
	DW	02H
	DW	04H
	DW	02H
	DW	01H
	DW	09H
	DW	04H
	DW	04H
	DW	04H
	DW	06H
	DW	04H
	DW	08H
	DW	09H
	DW	02H
	DW	03H
	DW	01H
	DW	01H
	DW	01H
	DW	01H
	DW	03H
	DW	05H
	DW	05H
	DW	01H
	DW	03H
	DW	08H
	DW	04H
	DW	06H
	DW	02H
	DW	01H
	DW	04H
	DW	0cH
	DW	01H
	DW	05H
	DW	03H
	DW	07H
	DW	0dH
	DW	02H
	DW	05H
	DW	08H
	DW	01H
	DW	06H
	DW	01H
	DW	02H
	DW	05H
	DW	0eH
	DW	06H
	DW	01H
	DW	05H
	DW	02H
	DW	04H
	DW	08H
	DW	0fH
	DW	05H
	DW	01H
	DW	017H
	DW	06H
	DW	03eH
	DW	02H
	DW	0aH
	DW	01H
	DW	01H
	DW	08H
	DW	01H
	DW	02H
	DW	02H
	DW	0aH
	DW	04H
	DW	02H
	DW	02H
	DW	09H
	DW	02H
	DW	01H
	DW	01H
	DW	03H
	DW	02H
	DW	03H
	DW	01H
	DW	05H
	DW	03H
	DW	03H
	DW	02H
	DW	01H
	DW	03H
	DW	08H
	DW	01H
	DW	01H
	DW	01H
	DW	0bH
	DW	03H
	DW	01H
	DW	01H
	DW	04H
	DW	03H
	DW	07H
	DW	01H
	DW	0eH
	DW	01H
	DW	02H
	DW	03H
	DW	0cH
	DW	05H
	DW	02H
	DW	05H
	DW	01H
	DW	06H
	DW	07H
	DW	05H
	DW	07H
	DW	0eH
	DW	0bH
	DW	01H
	DW	03H
	DW	01H
	DW	08H
	DW	09H
	DW	0cH
	DW	02H
	DW	01H
	DW	0bH
	DW	08H
	DW	04H
	DW	04H
	DW	02H
	DW	06H
	DW	0aH
	DW	09H
	DW	0dH
	DW	01H
	DW	01H
	DW	03H
	DW	01H
	DW	05H
	DW	01H
	DW	03H
	DW	02H
	DW	04H
	DW	04H
	DW	01H
	DW	012H
	DW	02H
	DW	03H
	DW	0eH
	DW	0bH
	DW	04H
	DW	01dH
	DW	04H
	DW	02H
	DW	07H
	DW	01H
	DW	03H
	DW	0dH
	DW	09H
	DW	02H
	DW	02H
	DW	05H
	DW	03H
	DW	05H
	DW	014H
	DW	07H
	DW	010H
	DW	08H
	DW	05H
	DW	048H
	DW	022H
	DW	06H
	DW	04H
	DW	016H
	DW	0cH
	DW	0cH
	DW	01cH
	DW	02dH
	DW	024H
	DW	09H
	DW	07H
	DW	027H
	DW	09H
	DW	0bfH
	DW	01H
	DW	01H
	DW	01H
	DW	04H
	DW	0bH
	DW	08H
	DW	04H
	DW	09H
	DW	02H
	DW	03H
	DW	016H
	DW	01H
	DW	01H
	DW	01H
	DW	01H
	DW	04H
	DW	011H
	DW	01H
	DW	07H
	DW	07H
	DW	01H
	DW	0bH
	DW	01fH
	DW	0aH
	DW	02H
	DW	04H
	DW	08H
	DW	02H
	DW	03H
	DW	02H
	DW	01H
	DW	04H
	DW	02H
	DW	010H
	DW	04H
	DW	020H
	DW	02H
	DW	03H
	DW	013H
	DW	0dH
	DW	04H
	DW	09H
	DW	01H
	DW	05H
	DW	02H
	DW	0eH
	DW	08H
	DW	01H
	DW	01H
	DW	03H
	DW	06H
	DW	013H
	DW	06H
	DW	05H
	DW	01H
	DW	010H
	DW	06H
	DW	02H
	DW	0aH
	DW	08H
	DW	05H
	DW	01H
	DW	02H
	DW	03H
	DW	01H
	DW	05H
	DW	05H
	DW	01H
	DW	0bH
	DW	06H
	DW	06H
	DW	01H
	DW	03H
	DW	03H
	DW	02H
	DW	06H
	DW	03H
	DW	08H
	DW	01H
	DW	01H
	DW	04H
	DW	0aH
	DW	07H
	DW	05H
	DW	07H
	DW	07H
	DW	05H
	DW	08H
	DW	09H
	DW	02H
	DW	01H
	DW	03H
	DW	04H
	DW	01H
	DW	01H
	DW	03H
	DW	01H
	DW	03H
	DW	03H
	DW	02H
	DW	06H
	DW	010H
	DW	01H
	DW	04H
	DW	06H
	DW	03H
	DW	01H
	DW	0aH
	DW	06H
	DW	01H
	DW	03H
	DW	0fH
	DW	02H
	DW	09H
	DW	02H
	DW	0aH
	DW	019H
	DW	0dH
	DW	09H
	DW	010H
	DW	06H
	DW	02H
	DW	02H
	DW	0aH
	DW	0bH
	DW	04H
	DW	03H
	DW	09H
	DW	01H
	DW	02H
	DW	06H
	DW	06H
	DW	05H
	DW	04H
	DW	01eH
	DW	028H
	DW	01H
	DW	0aH
	DW	07H
	DW	0cH
	DW	0eH
	DW	021H
	DW	06H
	DW	03H
	DW	06H
	DW	07H
	DW	03H
	DW	01H
	DW	03H
	DW	01H
	DW	0bH
	DW	0eH
	DW	04H
	DW	09H
	DW	05H
	DW	0cH
	DW	0bH
	DW	031H
	DW	012H
	DW	033H
	DW	01fH
	DW	08cH
	DW	01fH
	DW	02H
	DW	02H
	DW	01H
	DW	05H
	DW	01H
	DW	08H
	DW	01H
	DW	0aH
	DW	01H
	DW	04H
	DW	04H
	DW	03H
	DW	018H
	DW	01H
	DW	0aH
	DW	01H
	DW	03H
	DW	06H
	DW	06H
	DW	010H
	DW	03H
	DW	04H
	DW	05H
	DW	02H
	DW	01H
	DW	04H
	DW	02H
	DW	039H
	DW	0aH
	DW	06H
	DW	016H
	DW	02H
	DW	016H
	DW	03H
	DW	07H
	DW	016H
	DW	06H
	DW	0aH
	DW	0bH
	DW	024H
	DW	012H
	DW	010H
	DW	021H
	DW	024H
	DW	02H
	DW	05H
	DW	05H
	DW	01H
	DW	01H
	DW	01H
	DW	04H
	DW	0aH
	DW	01H
	DW	04H
	DW	0dH
	DW	02H
	DW	07H
	DW	05H
	DW	02H
	DW	09H
	DW	03H
	DW	04H
	DW	01H
	DW	07H
	DW	02bH
	DW	03H
	DW	07H
	DW	03H
	DW	09H
	DW	0eH
	DW	07H
	DW	09H
	DW	01H
	DW	0bH
	DW	01H
	DW	01H
	DW	03H
	DW	07H
	DW	04H
	DW	012H
	DW	0dH
	DW	01H
	DW	0eH
	DW	01H
	DW	03H
	DW	06H
	DW	0aH
	DW	049H
	DW	02H
	DW	02H
	DW	01eH
	DW	06H
	DW	01H
	DW	0bH
	DW	012H
	DW	013H
	DW	0dH
	DW	016H
	DW	03H
	DW	02eH
	DW	02aH
	DW	025H
	DW	059H
	DW	07H
	DW	03H
	DW	010H
	DW	022H
	DW	02H
	DW	02H
	DW	03H
	DW	09H
	DW	01H
	DW	07H
	DW	01H
	DW	01H
	DW	01H
	DW	02H
	DW	02H
	DW	04H
	DW	0aH
	DW	07H
	DW	03H
	DW	0aH
	DW	03H
	DW	09H
	DW	05H
	DW	01cH
	DW	09H
	DW	02H
	DW	06H
	DW	0dH
	DW	07H
	DW	03H
	DW	01H
	DW	03H
	DW	0aH
	DW	02H
	DW	07H
	DW	02H
	DW	0bH
	DW	03H
	DW	06H
	DW	015H
	DW	036H
	DW	055H
	DW	02H
	DW	01H
	DW	04H
	DW	02H
	DW	02H
	DW	01H
	DW	027H
	DW	03H
	DW	015H
	DW	02H
	DW	02H
	DW	05H
	DW	01H
	DW	01H
	DW	01H
	DW	04H
	DW	01H
	DW	01H
	DW	03H
	DW	04H
	DW	0fH
	DW	01H
	DW	03H
	DW	02H
	DW	04H
	DW	04H
	DW	02H
	DW	03H
	DW	08H
	DW	02H
	DW	014H
	DW	01H
	DW	08H
	DW	07H
	DW	0dH
	DW	04H
	DW	01H
	DW	01aH
	DW	06H
	DW	02H
	DW	09H
	DW	022H
	DW	04H
	DW	015H
	DW	034H
	DW	0aH
	DW	04H
	DW	04H
	DW	01H
	DW	05H
	DW	0cH
	DW	02H
	DW	0bH
	DW	01H
	DW	07H
	DW	02H
	DW	01eH
	DW	0cH
	DW	02cH
	DW	02H
	DW	01eH
	DW	01H
	DW	01H
	DW	03H
	DW	06H
	DW	010H
	DW	09H
	DW	011H
	DW	027H
	DW	052H
	DW	02H
	DW	02H
	DW	018H
	DW	07H
	DW	01H
	DW	07H
	DW	03H
	DW	010H
	DW	09H
	DW	0eH
	DW	02cH
	DW	02H
	DW	01H
	DW	02H
	DW	01H
	DW	02H
	DW	03H
	DW	05H
	DW	02H
	DW	04H
	DW	01H
	DW	06H
	DW	07H
	DW	05H
	DW	03H
	DW	02H
	DW	06H
	DW	01H
	DW	0bH
	DW	05H
	DW	0bH
	DW	02H
	DW	01H
	DW	012H
	DW	013H
	DW	08H
	DW	01H
	DW	03H
	DW	018H
	DW	01dH
	DW	02H
	DW	01H
	DW	03H
	DW	05H
	DW	02H
	DW	02H
	DW	01H
	DW	0dH
	DW	06H
	DW	05H
	DW	01H
	DW	02eH
	DW	0bH
	DW	03H
	DW	05H
	DW	01H
	DW	01H
	DW	05H
	DW	08H
	DW	02H
	DW	0aH
	DW	06H
	DW	0cH
	DW	06H
	DW	03H
	DW	07H
	DW	0bH
	DW	02H
	DW	04H
	DW	010H
	DW	0dH
	DW	02H
	DW	05H
	DW	01H
	DW	01H
	DW	02H
	DW	02H
	DW	05H
	DW	02H
	DW	01cH
	DW	05H
	DW	02H
	DW	017H
	DW	0aH
	DW	08H
	DW	04H
	DW	04H
	DW	016H
	DW	027H
	DW	05fH
	DW	026H
	DW	08H
	DW	0eH
	DW	09H
	DW	05H
	DW	01H
	DW	0dH
	DW	05H
	DW	04H
	DW	03H
	DW	0dH
	DW	0cH
	DW	0bH
	DW	01H
	DW	09H
	DW	01H
	DW	01bH
	DW	025H
	DW	02H
	DW	05H
	DW	04H
	DW	04H
	DW	03fH
	DW	0d3H
	DW	05fH
	DW	02H
	DW	02H
	DW	02H
	DW	01H
	DW	03H
	DW	05H
	DW	02H
	DW	01H
	DW	01H
	DW	02H
	DW	02H
	DW	01H
	DW	01H
	DW	01H
	DW	03H
	DW	02H
	DW	04H
	DW	01H
	DW	02H
	DW	01H
	DW	01H
	DW	05H
	DW	02H
	DW	02H
	DW	01H
	DW	01H
	DW	02H
	DW	03H
	DW	01H
	DW	03H
	DW	01H
	DW	01H
	DW	01H
	DW	03H
	DW	01H
	DW	04H
	DW	02H
	DW	01H
	DW	03H
	DW	06H
	DW	01H
	DW	01H
	DW	03H
	DW	07H
	DW	0fH
	DW	05H
	DW	03H
	DW	02H
	DW	05H
	DW	03H
	DW	09H
	DW	0bH
	DW	04H
	DW	02H
	DW	016H
	DW	01H
	DW	06H
	DW	03H
	DW	08H
	DW	07H
	DW	01H
	DW	04H
	DW	01cH
	DW	04H
	DW	010H
	DW	03H
	DW	03H
	DW	019H
	DW	04H
	DW	04H
	DW	01bH
	DW	01bH
	DW	01H
	DW	04H
	DW	01H
	DW	02H
	DW	02H
	DW	07H
	DW	01H
	DW	03H
	DW	05H
	DW	02H
	DW	01cH
	DW	08H
	DW	02H
	DW	0eH
	DW	01H
	DW	08H
	DW	06H
	DW	010H
	DW	019H
	DW	03H
	DW	03H
	DW	03H
	DW	0eH
	DW	03H
	DW	03H
	DW	01H
	DW	01H
	DW	02H
	DW	01H
	DW	04H
	DW	06H
	DW	03H
	DW	08H
	DW	04H
	DW	01H
	DW	01H
	DW	01H
	DW	02H
	DW	03H
	DW	06H
	DW	0aH
	DW	06H
	DW	02H
	DW	03H
	DW	012H
	DW	03H
	DW	02H
	DW	05H
	DW	05H
	DW	04H
	DW	03H
	DW	01H
	DW	05H
	DW	02H
	DW	05H
	DW	04H
	DW	017H
	DW	07H
	DW	06H
	DW	0cH
	DW	06H
	DW	04H
	DW	011H
	DW	0bH
	DW	09H
	DW	05H
	DW	01H
	DW	01H
	DW	0aH
	DW	05H
	DW	0cH
	DW	01H
	DW	01H
	DW	0bH
	DW	01aH
	DW	021H
	DW	07H
	DW	03H
	DW	06H
	DW	01H
	DW	011H
	DW	07H
	DW	01H
	DW	05H
	DW	0cH
	DW	01H
	DW	0bH
	DW	02H
	DW	04H
	DW	01H
	DW	08H
	DW	0eH
	DW	011H
	DW	017H
	DW	01H
	DW	02H
	DW	01H
	DW	07H
	DW	08H
	DW	010H
	DW	0bH
	DW	09H
	DW	06H
	DW	05H
	DW	02H
	DW	06H
	DW	04H
	DW	010H
	DW	02H
	DW	08H
	DW	0eH
	DW	01H
	DW	0bH
	DW	08H
	DW	09H
	DW	01H
	DW	01H
	DW	01H
	DW	09H
	DW	019H
	DW	04H
	DW	0bH
	DW	013H
	DW	07H
	DW	02H
	DW	0fH
	DW	02H
	DW	0cH
	DW	08H
	DW	034H
	DW	07H
	DW	05H
	DW	013H
	DW	02H
	DW	010H
	DW	04H
	DW	024H
	DW	08H
	DW	01H
	DW	010H
	DW	08H
	DW	018H
	DW	01aH
	DW	04H
	DW	06H
	DW	02H
	DW	09H
	DW	05H
	DW	04H
	DW	024H
	DW	03H
	DW	01cH
	DW	0cH
	DW	019H
	DW	0fH
	DW	025H
	DW	01bH
	DW	011H
	DW	0cH
	DW	03bH
	DW	026H
	DW	05H
	DW	020H
	DW	07fH
	DW	01H
	DW	02H
	DW	09H
	DW	011H
	DW	0eH
	DW	04H
	DW	01H
	DW	02H
	DW	01H
	DW	01H
	DW	08H
	DW	0bH
	DW	032H
	DW	04H
	DW	0eH
	DW	02H
	DW	013H
	DW	010H
	DW	04H
	DW	011H
	DW	05H
	DW	04H
	DW	05H
	DW	01aH
	DW	0cH
	DW	02dH
	DW	02H
	DW	017H
	DW	02dH
	DW	068H
	DW	01eH
	DW	0cH
	DW	08H
	DW	03H
	DW	0aH
	DW	02H
	DW	02H
	DW	03H
	DW	03H
	DW	01H
	DW	04H
	DW	014H
	DW	07H
	DW	02H
	DW	09H
	DW	06H
	DW	0fH
	DW	02H
	DW	014H
	DW	01H
	DW	03H
	DW	010H
	DW	04H
	DW	0bH
	DW	0fH
	DW	06H
	DW	086H
	DW	02H
	DW	05H
	DW	03bH
	DW	01H
	DW	02H
	DW	02H
	DW	02H
	DW	01H
	DW	09H
	DW	011H
	DW	03H
	DW	01aH
	DW	089H
	DW	0aH
	DW	0d3H
	DW	03bH
	DW	01H
	DW	02H
	DW	04H
	DW	01H
	DW	04H
	DW	01H
	DW	01H
	DW	01H
	DW	02H
	DW	06H
	DW	02H
	DW	03H
	DW	01H
	DW	01H
	DW	02H
	DW	03H
	DW	02H
	DW	03H
	DW	01H
	DW	03H
	DW	04H
	DW	04H
	DW	02H
	DW	03H
	DW	03H
	DW	01H
	DW	04H
	DW	03H
	DW	01H
	DW	07H
	DW	02H
	DW	02H
	DW	03H
	DW	01H
	DW	02H
	DW	01H
	DW	03H
	DW	03H
	DW	03H
	DW	02H
	DW	02H
	DW	03H
	DW	02H
	DW	01H
	DW	03H
	DW	0eH
	DW	06H
	DW	01H
	DW	03H
	DW	02H
	DW	09H
	DW	06H
	DW	0fH
	DW	01bH
	DW	09H
	DW	022H
	DW	091H
	DW	01H
	DW	01H
	DW	02H
	DW	01H
	DW	01H
	DW	01H
	DW	01H
	DW	02H
	DW	01H
	DW	01H
	DW	01H
	DW	01H
	DW	02H
	DW	02H
	DW	02H
	DW	03H
	DW	01H
	DW	02H
	DW	01H
	DW	01H
	DW	01H
	DW	02H
	DW	03H
	DW	05H
	DW	08H
	DW	03H
	DW	05H
	DW	02H
	DW	04H
	DW	01H
	DW	03H
	DW	02H
	DW	02H
	DW	02H
	DW	0cH
	DW	04H
	DW	01H
	DW	01H
	DW	01H
	DW	0aH
	DW	04H
	DW	05H
	DW	01H
	DW	014H
	DW	04H
	DW	010H
	DW	01H
	DW	0fH
	DW	09H
	DW	05H
	DW	0cH
	DW	02H
	DW	09H
	DW	02H
	DW	05H
	DW	04H
	DW	02H
	DW	01aH
	DW	013H
	DW	07H
	DW	01H
	DW	01aH
	DW	04H
	DW	01eH
	DW	0cH
	DW	0fH
	DW	02aH
	DW	01H
	DW	06H
	DW	08H
	DW	0acH
	DW	01H
	DW	01H
	DW	04H
	DW	02H
	DW	01H
	DW	01H
	DW	0bH
	DW	02H
	DW	02H
	DW	04H
	DW	02H
	DW	01H
	DW	02H
	DW	01H
	DW	0aH
	DW	08H
	DW	01H
	DW	02H
	DW	01H
	DW	04H
	DW	05H
	DW	01H
	DW	02H
	DW	05H
	DW	01H
	DW	08H
	DW	04H
	DW	01H
	DW	03H
	DW	04H
	DW	02H
	DW	01H
	DW	06H
	DW	02H
	DW	01H
	DW	03H
	DW	04H
	DW	01H
	DW	02H
	DW	01H
	DW	01H
	DW	01H
	DW	01H
	DW	0cH
	DW	05H
	DW	07H
	DW	02H
	DW	04H
	DW	03H
	DW	01H
	DW	01H
	DW	01H
	DW	03H
	DW	03H
	DW	06H
	DW	01H
	DW	02H
	DW	02H
	DW	03H
	DW	03H
	DW	03H
	DW	02H
	DW	01H
	DW	02H
	DW	0cH
	DW	0eH
	DW	0bH
	DW	06H
	DW	06H
	DW	04H
	DW	0cH
	DW	02H
	DW	08H
	DW	01H
	DW	07H
	DW	0aH
	DW	01H
	DW	023H
	DW	07H
	DW	04H
	DW	0dH
	DW	0fH
	DW	04H
	DW	03H
	DW	017H
	DW	015H
	DW	01cH
	DW	034H
	DW	05H
	DW	01aH
	DW	05H
	DW	06H
	DW	01H
	DW	07H
	DW	0aH
	DW	02H
	DW	07H
	DW	035H
	DW	03H
	DW	02H
	DW	01H
	DW	01H
	DW	01H
	DW	02H
	DW	0a3H
	DW	0214H
	DW	01H
	DW	0aH
	DW	0bH
	DW	01H
	DW	03H
	DW	03H
	DW	04H
	DW	08H
	DW	02H
	DW	08H
	DW	06H
	DW	02H
	DW	02H
	DW	017H
	DW	016H
	DW	04H
	DW	02H
	DW	02H
	DW	04H
	DW	02H
	DW	01H
	DW	03H
	DW	01H
	DW	03H
	DW	03H
	DW	05H
	DW	09H
	DW	08H
	DW	02H
	DW	01H
	DW	02H
	DW	08H
	DW	01H
	DW	0aH
	DW	02H
	DW	0cH
	DW	015H
	DW	014H
	DW	0fH
	DW	069H
	DW	02H
	DW	03H
	DW	01H
	DW	01H
	DW	03H
	DW	02H
	DW	03H
	DW	01H
	DW	01H
	DW	02H
	DW	05H
	DW	01H
	DW	04H
	DW	0fH
	DW	0bH
	DW	013H
	DW	01H
	DW	01H
	DW	01H
	DW	01H
	DW	05H
	DW	04H
	DW	05H
	DW	01H
	DW	01H
	DW	02H
	DW	05H
	DW	03H
	DW	05H
	DW	0cH
	DW	01H
	DW	02H
	DW	05H
	DW	01H
	DW	0bH
	DW	01H
	DW	01H
	DW	0fH
	DW	09H
	DW	01H
	DW	04H
	DW	05H
	DW	03H
	DW	01aH
	DW	08H
	DW	02H
	DW	01H
	DW	03H
	DW	01H
	DW	01H
	DW	0fH
	DW	013H
	DW	02H
	DW	0cH
	DW	01H
	DW	02H
	DW	05H
	DW	02H
	DW	07H
	DW	02H
	DW	013H
	DW	02H
	DW	014H
	DW	06H
	DW	01aH
	DW	07H
	DW	05H
	DW	02H
	DW	02H
	DW	07H
	DW	022H
	DW	015H
	DW	0dH
	DW	046H
	DW	02H
	DW	080H
	DW	01H
	DW	01H
	DW	02H
	DW	01H
	DW	01H
	DW	02H
	DW	01H
	DW	01H
	DW	03H
	DW	02H
	DW	02H
	DW	02H
	DW	0fH
	DW	01H
	DW	04H
	DW	01H
	DW	03H
	DW	04H
	DW	02aH
	DW	0aH
	DW	06H
	DW	01H
	DW	031H
	DW	055H
	DW	08H
	DW	01H
	DW	02H
	DW	01H
	DW	01H
	DW	04H
	DW	04H
	DW	02H
	DW	03H
	DW	06H
	DW	01H
	DW	05H
	DW	07H
	DW	04H
	DW	03H
	DW	0d3H
	DW	04H
	DW	01H
	DW	02H
	DW	01H
	DW	02H
	DW	05H
	DW	01H
	DW	02H
	DW	04H
	DW	02H
	DW	02H
	DW	06H
	DW	05H
	DW	06H
	DW	0aH
	DW	03H
	DW	04H
	DW	030H
	DW	064H
	DW	06H
	DW	02H
	DW	010H
	DW	0128H
	DW	05H
	DW	01bH
	DW	0183H
	DW	02H
	DW	02H
	DW	03H
	DW	07H
	DW	010H
	DW	08H
	DW	05H
	DW	026H
	DW	0fH
	DW	027H
	DW	015H
	DW	09H
	DW	0aH
	DW	03H
	DW	07H
	DW	03bH
	DW	0dH
	DW	01bH
	DW	015H
	DW	02fH
	DW	05H
	DW	015H
	DW	06H
?accumulative_offsets_from_0x4E00@?1??GetGlyphRangesJapanese@ImFontAtlas@@QAEPBGXZ@4QBFB DW 00H ; `ImFontAtlas::GetGlyphRangesJapanese'::`2'::accumulative_offsets_from_0x4E00
	DW	01H
	DW	02H
	DW	04H
	DW	01H
	DW	01H
	DW	01H
	DW	01H
	DW	02H
	DW	01H
	DW	06H
	DW	02H
	DW	02H
	DW	01H
	DW	08H
	DW	05H
	DW	07H
	DW	0bH
	DW	01H
	DW	02H
	DW	0aH
	DW	0aH
	DW	08H
	DW	02H
	DW	04H
	DW	014H
	DW	02H
	DW	0bH
	DW	08H
	DW	02H
	DW	01H
	DW	02H
	DW	01H
	DW	06H
	DW	02H
	DW	01H
	DW	07H
	DW	05H
	DW	03H
	DW	07H
	DW	01H
	DW	01H
	DW	0dH
	DW	07H
	DW	09H
	DW	01H
	DW	04H
	DW	06H
	DW	01H
	DW	02H
	DW	01H
	DW	0aH
	DW	01H
	DW	01H
	DW	09H
	DW	02H
	DW	02H
	DW	04H
	DW	05H
	DW	06H
	DW	0eH
	DW	01H
	DW	01H
	DW	09H
	DW	03H
	DW	012H
	DW	05H
	DW	04H
	DW	02H
	DW	02H
	DW	0aH
	DW	07H
	DW	01H
	DW	01H
	DW	01H
	DW	03H
	DW	02H
	DW	04H
	DW	03H
	DW	017H
	DW	02H
	DW	0aH
	DW	0cH
	DW	02H
	DW	0eH
	DW	02H
	DW	04H
	DW	0dH
	DW	01H
	DW	06H
	DW	0aH
	DW	03H
	DW	01H
	DW	07H
	DW	0dH
	DW	06H
	DW	04H
	DW	0dH
	DW	05H
	DW	02H
	DW	03H
	DW	011H
	DW	02H
	DW	02H
	DW	05H
	DW	07H
	DW	06H
	DW	04H
	DW	01H
	DW	07H
	DW	0eH
	DW	010H
	DW	06H
	DW	0dH
	DW	09H
	DW	0fH
	DW	01H
	DW	01H
	DW	07H
	DW	010H
	DW	04H
	DW	07H
	DW	01H
	DW	013H
	DW	09H
	DW	02H
	DW	07H
	DW	0fH
	DW	02H
	DW	06H
	DW	05H
	DW	0dH
	DW	019H
	DW	04H
	DW	0eH
	DW	0dH
	DW	0bH
	DW	019H
	DW	01H
	DW	01H
	DW	01H
	DW	02H
	DW	01H
	DW	02H
	DW	02H
	DW	03H
	DW	0aH
	DW	0bH
	DW	03H
	DW	03H
	DW	01H
	DW	01H
	DW	04H
	DW	04H
	DW	02H
	DW	01H
	DW	04H
	DW	09H
	DW	01H
	DW	04H
	DW	03H
	DW	05H
	DW	05H
	DW	02H
	DW	07H
	DW	0cH
	DW	0bH
	DW	0fH
	DW	07H
	DW	010H
	DW	04H
	DW	05H
	DW	010H
	DW	02H
	DW	01H
	DW	01H
	DW	06H
	DW	03H
	DW	03H
	DW	01H
	DW	01H
	DW	02H
	DW	07H
	DW	06H
	DW	06H
	DW	07H
	DW	01H
	DW	04H
	DW	07H
	DW	06H
	DW	01H
	DW	01H
	DW	02H
	DW	01H
	DW	0cH
	DW	03H
	DW	03H
	DW	09H
	DW	05H
	DW	08H
	DW	01H
	DW	0bH
	DW	01H
	DW	02H
	DW	03H
	DW	012H
	DW	014H
	DW	04H
	DW	01H
	DW	03H
	DW	06H
	DW	01H
	DW	07H
	DW	03H
	DW	05H
	DW	05H
	DW	07H
	DW	02H
	DW	02H
	DW	0cH
	DW	03H
	DW	01H
	DW	04H
	DW	02H
	DW	03H
	DW	02H
	DW	03H
	DW	0bH
	DW	08H
	DW	07H
	DW	04H
	DW	011H
	DW	01H
	DW	09H
	DW	019H
	DW	01H
	DW	01H
	DW	04H
	DW	02H
	DW	02H
	DW	04H
	DW	01H
	DW	02H
	DW	07H
	DW	01H
	DW	01H
	DW	01H
	DW	03H
	DW	01H
	DW	02H
	DW	06H
	DW	010H
	DW	01H
	DW	02H
	DW	01H
	DW	01H
	DW	03H
	DW	0cH
	DW	014H
	DW	02H
	DW	05H
	DW	014H
	DW	08H
	DW	07H
	DW	06H
	DW	02H
	DW	01H
	DW	01H
	DW	01H
	DW	01H
	DW	06H
	DW	02H
	DW	01H
	DW	02H
	DW	0aH
	DW	01H
	DW	01H
	DW	06H
	DW	01H
	DW	03H
	DW	01H
	DW	02H
	DW	01H
	DW	04H
	DW	01H
	DW	0cH
	DW	04H
	DW	01H
	DW	03H
	DW	01H
	DW	01H
	DW	01H
	DW	01H
	DW	01H
	DW	0aH
	DW	04H
	DW	07H
	DW	05H
	DW	0dH
	DW	01H
	DW	0fH
	DW	01H
	DW	01H
	DW	01eH
	DW	0bH
	DW	09H
	DW	01H
	DW	0fH
	DW	026H
	DW	0eH
	DW	01H
	DW	020H
	DW	011H
	DW	014H
	DW	01H
	DW	09H
	DW	01fH
	DW	02H
	DW	015H
	DW	09H
	DW	04H
	DW	031H
	DW	016H
	DW	02H
	DW	01H
	DW	0dH
	DW	01H
	DW	0bH
	DW	02dH
	DW	023H
	DW	02bH
	DW	037H
	DW	0cH
	DW	013H
	DW	053H
	DW	01H
	DW	03H
	DW	02H
	DW	03H
	DW	0dH
	DW	02H
	DW	01H
	DW	07H
	DW	03H
	DW	012H
	DW	03H
	DW	0dH
	DW	08H
	DW	01H
	DW	08H
	DW	012H
	DW	05H
	DW	03H
	DW	07H
	DW	019H
	DW	018H
	DW	09H
	DW	018H
	DW	028H
	DW	03H
	DW	011H
	DW	018H
	DW	02H
	DW	01H
	DW	06H
	DW	02H
	DW	03H
	DW	010H
	DW	0fH
	DW	06H
	DW	07H
	DW	03H
	DW	0cH
	DW	01H
	DW	09H
	DW	07H
	DW	03H
	DW	03H
	DW	03H
	DW	0fH
	DW	015H
	DW	05H
	DW	010H
	DW	04H
	DW	05H
	DW	0cH
	DW	0bH
	DW	0bH
	DW	03H
	DW	06H
	DW	03H
	DW	02H
	DW	01fH
	DW	03H
	DW	02H
	DW	01H
	DW	01H
	DW	017H
	DW	06H
	DW	06H
	DW	01H
	DW	04H
	DW	02H
	DW	06H
	DW	05H
	DW	02H
	DW	01H
	DW	01H
	DW	03H
	DW	03H
	DW	016H
	DW	02H
	DW	06H
	DW	02H
	DW	03H
	DW	011H
	DW	03H
	DW	02H
	DW	04H
	DW	05H
	DW	01H
	DW	09H
	DW	05H
	DW	01H
	DW	01H
	DW	06H
	DW	0fH
	DW	0cH
	DW	03H
	DW	011H
	DW	02H
	DW	0eH
	DW	02H
	DW	08H
	DW	01H
	DW	017H
	DW	010H
	DW	04H
	DW	02H
	DW	017H
	DW	08H
	DW	0fH
	DW	017H
	DW	014H
	DW	0cH
	DW	019H
	DW	013H
	DW	02fH
	DW	0bH
	DW	015H
	DW	041H
	DW	02eH
	DW	04H
	DW	03H
	DW	01H
	DW	05H
	DW	06H
	DW	01H
	DW	02H
	DW	05H
	DW	01aH
	DW	02H
	DW	01H
	DW	01H
	DW	03H
	DW	0bH
	DW	01H
	DW	01H
	DW	01H
	DW	02H
	DW	01H
	DW	02H
	DW	03H
	DW	01H
	DW	01H
	DW	0aH
	DW	02H
	DW	03H
	DW	01H
	DW	01H
	DW	01H
	DW	03H
	DW	06H
	DW	03H
	DW	02H
	DW	02H
	DW	06H
	DW	06H
	DW	09H
	DW	02H
	DW	02H
	DW	02H
	DW	06H
	DW	02H
	DW	05H
	DW	0aH
	DW	02H
	DW	04H
	DW	01H
	DW	02H
	DW	01H
	DW	02H
	DW	02H
	DW	03H
	DW	01H
	DW	01H
	DW	03H
	DW	01H
	DW	02H
	DW	09H
	DW	017H
	DW	09H
	DW	02H
	DW	01H
	DW	01H
	DW	01H
	DW	01H
	DW	05H
	DW	03H
	DW	02H
	DW	01H
	DW	0aH
	DW	09H
	DW	06H
	DW	01H
	DW	0aH
	DW	02H
	DW	01fH
	DW	019H
	DW	03H
	DW	07H
	DW	05H
	DW	028H
	DW	01H
	DW	0fH
	DW	06H
	DW	011H
	DW	07H
	DW	01bH
	DW	0b4H
	DW	01H
	DW	03H
	DW	02H
	DW	02H
	DW	01H
	DW	01H
	DW	01H
	DW	06H
	DW	03H
	DW	0aH
	DW	07H
	DW	01H
	DW	03H
	DW	06H
	DW	011H
	DW	08H
	DW	06H
	DW	02H
	DW	02H
	DW	01H
	DW	03H
	DW	05H
	DW	05H
	DW	08H
	DW	010H
	DW	0eH
	DW	0fH
	DW	01H
	DW	01H
	DW	04H
	DW	01H
	DW	02H
	DW	01H
	DW	01H
	DW	01H
	DW	03H
	DW	02H
	DW	07H
	DW	05H
	DW	06H
	DW	02H
	DW	05H
	DW	0aH
	DW	01H
	DW	04H
	DW	02H
	DW	09H
	DW	01H
	DW	01H
	DW	0bH
	DW	06H
	DW	01H
	DW	02cH
	DW	01H
	DW	03H
	DW	07H
	DW	09H
	DW	05H
	DW	01H
	DW	03H
	DW	01H
	DW	01H
	DW	0aH
	DW	07H
	DW	01H
	DW	0aH
	DW	04H
	DW	02H
	DW	07H
	DW	015H
	DW	0fH
	DW	07H
	DW	02H
	DW	05H
	DW	01H
	DW	08H
	DW	03H
	DW	04H
	DW	01H
	DW	03H
	DW	01H
	DW	06H
	DW	01H
	DW	04H
	DW	02H
	DW	01H
	DW	04H
	DW	0aH
	DW	08H
	DW	01H
	DW	04H
	DW	05H
	DW	01H
	DW	05H
	DW	0aH
	DW	02H
	DW	07H
	DW	01H
	DW	0aH
	DW	01H
	DW	01H
	DW	03H
	DW	04H
	DW	0bH
	DW	0aH
	DW	01dH
	DW	04H
	DW	07H
	DW	03H
	DW	05H
	DW	02H
	DW	03H
	DW	021H
	DW	05H
	DW	02H
	DW	013H
	DW	03H
	DW	01H
	DW	04H
	DW	02H
	DW	06H
	DW	01fH
	DW	0bH
	DW	01H
	DW	03H
	DW	03H
	DW	03H
	DW	01H
	DW	08H
	DW	0aH
	DW	09H
	DW	0cH
	DW	0bH
	DW	0cH
	DW	08H
	DW	03H
	DW	0eH
	DW	08H
	DW	06H
	DW	0bH
	DW	01H
	DW	04H
	DW	029H
	DW	03H
	DW	01H
	DW	02H
	DW	07H
	DW	0dH
	DW	01H
	DW	05H
	DW	06H
	DW	02H
	DW	06H
	DW	0cH
	DW	0cH
	DW	016H
	DW	05H
	DW	09H
	DW	04H
	DW	08H
	DW	09H
	DW	09H
	DW	022H
	DW	06H
	DW	018H
	DW	01H
	DW	01H
	DW	014H
	DW	09H
	DW	09H
	DW	03H
	DW	04H
	DW	01H
	DW	07H
	DW	02H
	DW	02H
	DW	02H
	DW	06H
	DW	02H
	DW	01cH
	DW	05H
	DW	03H
	DW	06H
	DW	01H
	DW	04H
	DW	06H
	DW	07H
	DW	04H
	DW	02H
	DW	01H
	DW	04H
	DW	02H
	DW	0dH
	DW	06H
	DW	04H
	DW	04H
	DW	03H
	DW	01H
	DW	08H
	DW	08H
	DW	03H
	DW	02H
	DW	01H
	DW	05H
	DW	01H
	DW	02H
	DW	02H
	DW	03H
	DW	01H
	DW	0bH
	DW	0bH
	DW	07H
	DW	03H
	DW	06H
	DW	0aH
	DW	08H
	DW	06H
	DW	010H
	DW	010H
	DW	016H
	DW	07H
	DW	0cH
	DW	06H
	DW	015H
	DW	05H
	DW	04H
	DW	06H
	DW	06H
	DW	03H
	DW	06H
	DW	01H
	DW	03H
	DW	02H
	DW	01H
	DW	02H
	DW	08H
	DW	01dH
	DW	01H
	DW	0aH
	DW	01H
	DW	06H
	DW	0dH
	DW	06H
	DW	06H
	DW	013H
	DW	01fH
	DW	01H
	DW	0dH
	DW	04H
	DW	04H
	DW	016H
	DW	011H
	DW	01aH
	DW	021H
	DW	0aH
	DW	04H
	DW	0fH
	DW	0cH
	DW	019H
	DW	06H
	DW	043H
	DW	0aH
	DW	02H
	DW	03H
	DW	01H
	DW	06H
	DW	0aH
	DW	02H
	DW	06H
	DW	02H
	DW	09H
	DW	01H
	DW	09H
	DW	04H
	DW	04H
	DW	01H
	DW	02H
	DW	010H
	DW	02H
	DW	05H
	DW	09H
	DW	02H
	DW	03H
	DW	08H
	DW	01H
	DW	08H
	DW	03H
	DW	09H
	DW	04H
	DW	08H
	DW	06H
	DW	04H
	DW	08H
	DW	0bH
	DW	03H
	DW	02H
	DW	01H
	DW	01H
	DW	03H
	DW	01aH
	DW	01H
	DW	07H
	DW	05H
	DW	01H
	DW	0bH
	DW	01H
	DW	05H
	DW	03H
	DW	05H
	DW	02H
	DW	0dH
	DW	06H
	DW	027H
	DW	05H
	DW	01H
	DW	05H
	DW	02H
	DW	0bH
	DW	06H
	DW	0aH
	DW	05H
	DW	01H
	DW	0fH
	DW	05H
	DW	03H
	DW	06H
	DW	013H
	DW	015H
	DW	016H
	DW	02H
	DW	04H
	DW	01H
	DW	06H
	DW	01H
	DW	08H
	DW	01H
	DW	04H
	DW	08H
	DW	02H
	DW	04H
	DW	02H
	DW	02H
	DW	09H
	DW	02H
	DW	01H
	DW	01H
	DW	01H
	DW	04H
	DW	03H
	DW	06H
	DW	03H
	DW	0cH
	DW	07H
	DW	01H
	DW	0eH
	DW	02H
	DW	04H
	DW	0aH
	DW	02H
	DW	0dH
	DW	01H
	DW	011H
	DW	07H
	DW	03H
	DW	02H
	DW	01H
	DW	03H
	DW	02H
	DW	0dH
	DW	07H
	DW	0eH
	DW	0cH
	DW	03H
	DW	01H
	DW	01dH
	DW	02H
	DW	08H
	DW	09H
	DW	0fH
	DW	0eH
	DW	09H
	DW	0eH
	DW	01H
	DW	03H
	DW	01H
	DW	06H
	DW	05H
	DW	09H
	DW	0bH
	DW	03H
	DW	026H
	DW	02bH
	DW	014H
	DW	07H
	DW	07H
	DW	08H
	DW	05H
	DW	0fH
	DW	0cH
	DW	013H
	DW	0fH
	DW	051H
	DW	08H
	DW	07H
	DW	01H
	DW	05H
	DW	049H
	DW	0dH
	DW	025H
	DW	01cH
	DW	08H
	DW	08H
	DW	01H
	DW	0fH
	DW	012H
	DW	014H
	DW	0a5H
	DW	01cH
	DW	01H
	DW	06H
	DW	0bH
	DW	08H
	DW	04H
	DW	0eH
	DW	07H
	DW	0fH
	DW	01H
	DW	03H
	DW	03H
	DW	06H
	DW	04H
	DW	01H
	DW	07H
	DW	0eH
	DW	01H
	DW	01H
	DW	0bH
	DW	01eH
	DW	01H
	DW	05H
	DW	01H
	DW	04H
	DW	0eH
	DW	01H
	DW	04H
	DW	02H
	DW	07H
	DW	034H
	DW	02H
	DW	06H
	DW	01dH
	DW	03H
	DW	01H
	DW	09H
	DW	01H
	DW	015H
	DW	03H
	DW	05H
	DW	01H
	DW	01aH
	DW	03H
	DW	0bH
	DW	0eH
	DW	0bH
	DW	01H
	DW	011H
	DW	05H
	DW	01H
	DW	02H
	DW	01H
	DW	03H
	DW	02H
	DW	08H
	DW	01H
	DW	02H
	DW	09H
	DW	0cH
	DW	01H
	DW	01H
	DW	02H
	DW	03H
	DW	08H
	DW	03H
	DW	018H
	DW	0cH
	DW	07H
	DW	07H
	DW	05H
	DW	011H
	DW	03H
	DW	03H
	DW	03H
	DW	01H
	DW	017H
	DW	0aH
	DW	04H
	DW	04H
	DW	06H
	DW	03H
	DW	01H
	DW	010H
	DW	011H
	DW	016H
	DW	03H
	DW	0aH
	DW	015H
	DW	010H
	DW	010H
	DW	06H
	DW	04H
	DW	0aH
	DW	02H
	DW	01H
	DW	01H
	DW	02H
	DW	08H
	DW	08H
	DW	06H
	DW	05H
	DW	03H
	DW	03H
	DW	03H
	DW	027H
	DW	019H
	DW	0fH
	DW	01H
	DW	01H
	DW	010H
	DW	06H
	DW	07H
	DW	019H
	DW	0fH
	DW	06H
	DW	06H
	DW	0cH
	DW	01H
	DW	016H
	DW	0dH
	DW	01H
	DW	04H
	DW	09H
	DW	05H
	DW	0cH
	DW	02H
	DW	09H
	DW	01H
	DW	0cH
	DW	01cH
	DW	08H
	DW	03H
	DW	05H
	DW	0aH
	DW	016H
	DW	03cH
	DW	01H
	DW	02H
	DW	028H
	DW	04H
	DW	03dH
	DW	03fH
	DW	04H
	DW	01H
	DW	0dH
	DW	0cH
	DW	01H
	DW	04H
	DW	01fH
	DW	0cH
	DW	01H
	DW	0eH
	DW	059H
	DW	05H
	DW	010H
	DW	06H
	DW	01dH
	DW	0eH
	DW	02H
	DW	05H
	DW	031H
	DW	012H
	DW	012H
	DW	05H
	DW	01dH
	DW	021H
	DW	02fH
	DW	01H
	DW	011H
	DW	01H
	DW	013H
	DW	0cH
	DW	02H
	DW	09H
	DW	07H
	DW	027H
	DW	0cH
	DW	03H
	DW	07H
	DW	0cH
	DW	027H
	DW	03H
	DW	01H
	DW	02eH
	DW	04H
	DW	0cH
	DW	03H
	DW	08H
	DW	09H
	DW	05H
	DW	01fH
	DW	0fH
	DW	012H
	DW	03H
	DW	02H
	DW	02H
	DW	042H
	DW	013H
	DW	0dH
	DW	011H
	DW	05H
	DW	03H
	DW	02eH
	DW	07cH
	DW	0dH
	DW	039H
	DW	022H
	DW	02H
	DW	05H
	DW	04H
	DW	05H
	DW	08H
	DW	01H
	DW	01H
	DW	01H
	DW	04H
	DW	03H
	DW	01H
	DW	011H
	DW	05H
	DW	03H
	DW	05H
	DW	03H
	DW	01H
	DW	08H
	DW	05H
	DW	06H
	DW	03H
	DW	01bH
	DW	03H
	DW	01aH
	DW	07H
	DW	0cH
	DW	07H
	DW	02H
	DW	011H
	DW	03H
	DW	07H
	DW	012H
	DW	04eH
	DW	010H
	DW	04H
	DW	024H
	DW	01H
	DW	02H
	DW	01H
	DW	06H
	DW	02H
	DW	01H
	DW	027H
	DW	011H
	DW	07H
	DW	04H
	DW	0dH
	DW	04H
	DW	04H
	DW	04H
	DW	01H
	DW	0aH
	DW	04H
	DW	02H
	DW	04H
	DW	06H
	DW	03H
	DW	0aH
	DW	01H
	DW	013H
	DW	01H
	DW	01aH
	DW	02H
	DW	04H
	DW	021H
	DW	02H
	DW	049H
	DW	02fH
	DW	07H
	DW	03H
	DW	08H
	DW	02H
	DW	04H
	DW	0fH
	DW	012H
	DW	01H
	DW	01dH
	DW	02H
	DW	029H
	DW	0eH
	DW	01H
	DW	015H
	DW	010H
	DW	029H
	DW	07H
	DW	027H
	DW	019H
	DW	0dH
	DW	02cH
	DW	02H
	DW	02H
	DW	0aH
	DW	01H
	DW	0dH
	DW	07H
	DW	01H
	DW	07H
	DW	03H
	DW	05H
	DW	014H
	DW	04H
	DW	08H
	DW	02H
	DW	031H
	DW	01H
	DW	0aH
	DW	06H
	DW	01H
	DW	06H
	DW	07H
	DW	0aH
	DW	07H
	DW	0bH
	DW	010H
	DW	03H
	DW	0cH
	DW	014H
	DW	04H
	DW	0aH
	DW	03H
	DW	01H
	DW	02H
	DW	0bH
	DW	02H
	DW	01cH
	DW	09H
	DW	02H
	DW	04H
	DW	07H
	DW	02H
	DW	0fH
	DW	01H
	DW	01bH
	DW	01H
	DW	01cH
	DW	011H
	DW	04H
	DW	05H
	DW	0aH
	DW	07H
	DW	03H
	DW	018H
	DW	0aH
	DW	0bH
	DW	06H
	DW	01aH
	DW	03H
	DW	02H
	DW	07H
	DW	02H
	DW	02H
	DW	031H
	DW	010H
	DW	0aH
	DW	010H
	DW	0fH
	DW	04H
	DW	05H
	DW	01bH
	DW	03dH
	DW	01eH
	DW	0eH
	DW	026H
	DW	016H
	DW	02H
	DW	07H
	DW	05H
	DW	01H
	DW	03H
	DW	0cH
	DW	017H
	DW	018H
	DW	011H
	DW	011H
	DW	03H
	DW	03H
	DW	02H
	DW	04H
	DW	01H
	DW	06H
	DW	02H
	DW	07H
	DW	05H
	DW	01H
	DW	01H
	DW	05H
	DW	01H
	DW	01H
	DW	09H
	DW	04H
	DW	01H
	DW	03H
	DW	06H
	DW	01H
	DW	08H
	DW	02H
	DW	08H
	DW	04H
	DW	0eH
	DW	03H
	DW	05H
	DW	0bH
	DW	04H
	DW	01H
	DW	03H
	DW	020H
	DW	01H
	DW	013H
	DW	04H
	DW	01H
	DW	0dH
	DW	0bH
	DW	05H
	DW	02H
	DW	01H
	DW	08H
	DW	06H
	DW	08H
	DW	01H
	DW	06H
	DW	05H
	DW	0dH
	DW	03H
	DW	017H
	DW	0bH
	DW	05H
	DW	03H
	DW	010H
	DW	03H
	DW	09H
	DW	0aH
	DW	01H
	DW	018H
	DW	03H
	DW	0c6H
	DW	034H
	DW	04H
	DW	02H
	DW	02H
	DW	05H
	DW	0eH
	DW	05H
	DW	04H
	DW	016H
	DW	05H
	DW	014H
	DW	04H
	DW	0bH
	DW	06H
	DW	029H
	DW	01H
	DW	05H
	DW	02H
	DW	02H
	DW	0bH
	DW	05H
	DW	02H
	DW	01cH
	DW	023H
	DW	08H
	DW	016H
	DW	03H
	DW	012H
	DW	03H
	DW	0aH
	DW	07H
	DW	05H
	DW	03H
	DW	04H
	DW	01H
	DW	05H
	DW	03H
	DW	08H
	DW	09H
	DW	03H
	DW	06H
	DW	02H
	DW	010H
	DW	016H
	DW	04H
	DW	05H
	DW	05H
	DW	03H
	DW	03H
	DW	012H
	DW	017H
	DW	02H
	DW	06H
	DW	017H
	DW	05H
	DW	01bH
	DW	08H
	DW	01H
	DW	021H
	DW	02H
	DW	0cH
	DW	02bH
	DW	010H
	DW	05H
	DW	02H
	DW	03H
	DW	06H
	DW	01H
	DW	014H
	DW	04H
	DW	02H
	DW	09H
	DW	07H
	DW	01H
	DW	0bH
	DW	02H
	DW	0aH
	DW	03H
	DW	0eH
	DW	01fH
	DW	09H
	DW	03H
	DW	019H
	DW	012H
	DW	014H
	DW	02H
	DW	05H
	DW	05H
	DW	01aH
	DW	0eH
	DW	01H
	DW	0bH
	DW	011H
	DW	0cH
	DW	028H
	DW	013H
	DW	09H
	DW	06H
	DW	01fH
	DW	053H
	DW	02H
	DW	07H
	DW	09H
	DW	013H
	DW	04eH
	DW	0cH
	DW	0eH
	DW	015H
	DW	04cH
	DW	0cH
	DW	071H
	DW	04fH
	DW	022H
	DW	04H
	DW	01H
	DW	01H
	DW	03dH
	DW	012H
	DW	055H
	DW	0aH
	DW	02H
	DW	02H
	DW	0dH
	DW	01fH
	DW	0bH
	DW	032H
	DW	06H
	DW	021H
	DW	09fH
	DW	0b3H
	DW	06H
	DW	06H
	DW	07H
	DW	04H
	DW	04H
	DW	02H
	DW	04H
	DW	02H
	DW	05H
	DW	08H
	DW	07H
	DW	014H
	DW	020H
	DW	016H
	DW	01H
	DW	03H
	DW	0aH
	DW	06H
	DW	07H
	DW	01cH
	DW	05H
	DW	0aH
	DW	09H
	DW	02H
	DW	04dH
	DW	013H
	DW	0dH
	DW	02H
	DW	05H
	DW	01H
	DW	04H
	DW	04H
	DW	07H
	DW	04H
	DW	0dH
	DW	03H
	DW	09H
	DW	01fH
	DW	011H
	DW	03H
	DW	01aH
	DW	02H
	DW	06H
	DW	06H
	DW	05H
	DW	04H
	DW	01H
	DW	07H
	DW	0bH
	DW	03H
	DW	04H
	DW	02H
	DW	01H
	DW	06H
	DW	02H
	DW	014H
	DW	04H
	DW	01H
	DW	09H
	DW	02H
	DW	06H
	DW	03H
	DW	07H
	DW	01H
	DW	01H
	DW	01H
	DW	014H
	DW	02H
	DW	03H
	DW	01H
	DW	06H
	DW	02H
	DW	03H
	DW	06H
	DW	02H
	DW	04H
	DW	08H
	DW	01H
	DW	05H
	DW	0dH
	DW	08H
	DW	04H
	DW	0bH
	DW	017H
	DW	01H
	DW	0aH
	DW	06H
	DW	02H
	DW	01H
	DW	03H
	DW	015H
	DW	02H
	DW	02H
	DW	04H
	DW	018H
	DW	01fH
	DW	04H
	DW	0aH
	DW	0aH
	DW	02H
	DW	05H
	DW	0c0H
	DW	0fH
	DW	04H
	DW	010H
	DW	07H
	DW	09H
	DW	033H
	DW	01H
	DW	02H
	DW	01H
	DW	01H
	DW	05H
	DW	01H
	DW	01H
	DW	02H
	DW	01H
	DW	03H
	DW	05H
	DW	03H
	DW	01H
	DW	03H
	DW	04H
	DW	01H
	DW	03H
	DW	01H
	DW	03H
	DW	03H
	DW	09H
	DW	08H
	DW	01H
	DW	02H
	DW	02H
	DW	02H
	DW	04H
	DW	04H
	DW	012H
	DW	0cH
	DW	05cH
	DW	02H
	DW	0aH
	DW	04H
	DW	03H
	DW	0eH
	DW	05H
	DW	019H
	DW	010H
	DW	02aH
	DW	04H
	DW	0eH
	DW	04H
	DW	02H
	DW	015H
	DW	05H
	DW	07eH
	DW	01eH
	DW	01fH
	DW	02H
	DW	01H
	DW	05H
	DW	0dH
	DW	03H
	DW	016H
	DW	05H
	DW	06H
	DW	06H
	DW	014H
	DW	0cH
	DW	01H
	DW	0eH
	DW	0cH
	DW	057H
	DW	03H
	DW	013H
	DW	01H
	DW	08H
	DW	02H
	DW	09H
	DW	09H
	DW	03H
	DW	03H
	DW	017H
	DW	02H
	DW	03H
	DW	07H
	DW	06H
	DW	03H
	DW	01H
	DW	02H
	DW	03H
	DW	09H
	DW	01H
	DW	03H
	DW	01H
	DW	06H
	DW	03H
	DW	02H
	DW	01H
	DW	03H
	DW	0bH
	DW	03H
	DW	01H
	DW	06H
	DW	0aH
	DW	03H
	DW	02H
	DW	03H
	DW	01H
	DW	02H
	DW	01H
	DW	05H
	DW	01H
	DW	01H
	DW	0bH
	DW	03H
	DW	06H
	DW	04H
	DW	01H
	DW	07H
	DW	02H
	DW	01H
	DW	02H
	DW	05H
	DW	05H
	DW	022H
	DW	04H
	DW	0eH
	DW	012H
	DW	04H
	DW	013H
	DW	07H
	DW	05H
	DW	08H
	DW	02H
	DW	06H
	DW	04fH
	DW	01H
	DW	05H
	DW	02H
	DW	0eH
	DW	08H
	DW	02H
	DW	09H
	DW	02H
	DW	01H
	DW	024H
	DW	01cH
	DW	010H
	DW	04H
	DW	01H
	DW	01H
	DW	01H
	DW	02H
	DW	0cH
	DW	06H
	DW	02aH
	DW	027H
	DW	010H
	DW	017H
	DW	07H
	DW	0fH
	DW	0fH
	DW	03H
	DW	02H
	DW	0cH
	DW	07H
	DW	015H
	DW	040H
	DW	06H
	DW	09H
	DW	01cH
	DW	08H
	DW	0cH
	DW	03H
	DW	03H
	DW	029H
	DW	03bH
	DW	018H
	DW	033H
	DW	037H
	DW	039H
	DW	0126H
	DW	09H
	DW	09H
	DW	02H
	DW	06H
	DW	02H
	DW	0fH
	DW	01H
	DW	02H
	DW	0dH
	DW	026H
	DW	05aH
	DW	09H
	DW	09H
	DW	09H
	DW	03H
	DW	0bH
	DW	07H
	DW	01H
	DW	01H
	DW	01H
	DW	05H
	DW	06H
	DW	03H
	DW	02H
	DW	01H
	DW	02H
	DW	02H
	DW	03H
	DW	08H
	DW	01H
	DW	04H
	DW	04H
	DW	01H
	DW	05H
	DW	07H
	DW	01H
	DW	04H
	DW	03H
	DW	014H
	DW	04H
	DW	09H
	DW	01H
	DW	01H
	DW	01H
	DW	05H
	DW	05H
	DW	011H
	DW	01H
	DW	05H
	DW	02H
	DW	06H
	DW	02H
	DW	04H
	DW	01H
	DW	04H
	DW	05H
	DW	07H
	DW	03H
	DW	012H
	DW	0bH
	DW	0bH
	DW	020H
	DW	07H
	DW	05H
	DW	04H
	DW	07H
	DW	0bH
	DW	07fH
	DW	08H
	DW	04H
	DW	03H
	DW	03H
	DW	01H
	DW	0aH
	DW	01H
	DW	01H
	DW	06H
	DW	015H
	DW	0eH
	DW	01H
	DW	010H
	DW	01H
	DW	07H
	DW	01H
	DW	03H
	DW	06H
	DW	09H
	DW	041H
	DW	033H
	DW	04H
	DW	03H
	DW	0dH
	DW	03H
	DW	0aH
	DW	01H
	DW	01H
	DW	0cH
	DW	09H
	DW	015H
	DW	06eH
	DW	03H
	DW	013H
	DW	018H
	DW	01H
	DW	01H
	DW	0aH
	DW	03eH
	DW	04H
	DW	01H
	DW	01dH
	DW	02aH
	DW	04eH
	DW	01cH
	DW	014H
	DW	012H
	DW	052H
	DW	06H
	DW	03H
	DW	0fH
	DW	06H
	DW	054H
	DW	03aH
	DW	0fdH
	DW	0fH
	DW	09bH
	DW	0108H
	DW	0fH
	DW	015H
	DW	09H
	DW	0eH
	DW	07H
	DW	03aH
	DW	028H
	DW	027H
?ranges@?1??GetGlyphRangesCyrillic@ImFontAtlas@@QAEPBGXZ@4QBGB DW 020H ; `ImFontAtlas::GetGlyphRangesCyrillic'::`2'::ranges
	DW	0ffH
	DW	0400H
	DW	052fH
	DW	02de0H
	DW	02dffH
	DW	0a640H
	DW	0a69fH
	DW	00H
	ORG $+2
?ranges@?1??GetGlyphRangesThai@ImFontAtlas@@QAEPBGXZ@4QBGB DW 020H ; `ImFontAtlas::GetGlyphRangesThai'::`2'::ranges
	DW	0ffH
	DW	02010H
	DW	0205eH
	DW	0e00H
	DW	0e7fH
	DW	00H
	ORG $+2
?ranges@?1??GetGlyphRangesVietnamese@ImFontAtlas@@QAEPBGXZ@4QBGB DW 020H ; `ImFontAtlas::GetGlyphRangesVietnamese'::`2'::ranges
	DW	0ffH
	DW	0102H
	DW	0103H
	DW	0110H
	DW	0111H
	DW	0128H
	DW	0129H
	DW	0168H
	DW	0169H
	DW	01a0H
	DW	01a1H
	DW	01afH
	DW	01b0H
	DW	01ea0H
	DW	01ef9H
	DW	00H
	ORG $+6
?proggy_clean_ttf_compressed_data_base85@@3QBDB DB '7])#######hV0qs''/###'
	DB	'[),##/l:$#Q6>##5[n42>c-TH`->>#/e>11NNV=Bv(*:.F?uu#(gRU.o0XGH`'
	DB	'$vhLG1hxt9?W`#,5LsCp#-i>.r$<$6pD>Lb'';9Crc6tgXmKVeU2cD4Eo3R/2'
	DB	'*>]b(MC;$jPfY.;h^`IWM9<Lh2TlS+f-s$o6Q<BWH`YiU.xfLq$N;$0iR/GX:'
	DB	'U(jcW2p/W*q?-qmnUCI;jHSAiFWM.R*kU@C=GH?a9wp8f$e.-4^Qg1)Q-GL(l'
	DB	'f(r/7GrRgwV%MS=C#`8ND>Qo#t''X#(v#Y9w0#1D$CIf;W''#pWUPXOuxXuU('
	DB	'H9M(1<q-UE31#^-V''8IRUo7Qf./L>=Ke$$''5F%)]0^#0X@U.a<r:QLtFsLc'
	DB	'L6##lOj)#.Y5<-R&KgLwqJfLgN&;Q?gI^#DY2uLi@^rMl9t=cWq6##weg>$FB'
	DB	'jVQTSDgEKnIS7EM9>ZY9w0#L;>>#Mx&4Mvt//L[MkA#W@lK.N''[0#7RL_&#w'
	DB	'+F%HtG9M#XL`N&.,GM4Pg;-<nLENhvx>-VsM.M0rJfLH2eTM`*oJMHRC`Nkfi'
	DB	'mM2J,W-jXS:)r0wK#@Fge$U>`w''N7G#$#fB#$E^$#:9:hk+eOe--6x)F7*E%'
	DB	'?76%^GMHePW-Z5l''&GiF#$956:rS?dA#fiK:)Yr+`&#0j@''DbG&#^$PG.Ll'
	DB	'+DNa<XCMKEV*N)LN/N*b=%Q6pia-Xg8I$<MR&,VdJe$<(7G;Ckl''&hF;;$<_'
	DB	'=X(b.RS%%)###MPBuuE1V:v&cX&#2m#(&cV]`k9OhLMbn%s$G2,B$BfD3X*sp'
	DB	'5#l,$R#]x_X1xKX%b5U*[r5iMfUo9U`N99hG)tm+/Us9pG)XPu`<0s-)WTt(g'
	DB	'CRxIg(%6sfh=ktMKn3j)<6<b5Sk_/0(^]AaN#(p/L>&VZ>1i%h1S9u5o@YaaW'
	DB	'$e+b<TWFn/Z:Oh(Cx2$lNEoN^e)#CFY@@I;BOQ*sRwZtZxRcU7uW6CXow0i(?'
	DB	'$Q[cjOd[P4d)]>ROPOpxTO7Stwi1::iB1q)C_=dV26J;2,]7op$]uQr@_V7$q'
	DB	'^%lQwtuHY]=DX,n3L#0PHDO4f9>dC@O>HBuKPpP*E,N+b3L#lpR/MrTEH.IAQ'
	DB	'k.a>D[.e;mc.x]Ip.PH^''/aqUO/$1WxLoW0[iLA<QT;5HKD+@qQ''NQ(3_PL'
	DB	'hE48R.qAPSwQ0/WK?Z,[x?-J;jQTWA0X@KJ(_Y8N-:/M74:/-ZpKrUss?d#dZ'
	DB	'q]DAbkU*JqkL+nwX@@47`5>w=4h(9.`GCRUxHPeR`5Mjol(dUWxZa(>STrPkr'
	DB	'JiWx`5U7F#.g*jrohGg`cg:lSTvEY/EV_7H4Q9[Z%cnv;JQYZ5q.l7Zeas:HO'
	DB	'IZOB?G<Nald$qs]@]L<J7bR*>gv:[7MI2k).''2($5FNP&EQ(,)U]W]+fh18.'
	DB	'vsai00);D3@4ku5P?DP8aJt+;qUM]=+b''8@;mViBKx0DE[-auGl8:PJ&Dj+M'
	DB	'6OC]O^((##]`0i)drT;-7X`=-H3[igUnPG-NZlo.#k@h#=Ork$m>a>$-?Tm$U'
	DB	'V(?#P6YY#''/###xe7q.73rI3*pP/$1>s9)W,JrM7SN]''/4C#v$U`0#V.[0>'
	DB	'xQsH$fEmPMgY2u7Kh(G%siIfLSoS+MK2eTM$=5,M8p`A.;_R%#u[K#$x4AG8.'
	DB	'kK/HSB==-''Ie/QTtG?-.*^N-4B/ZM_3YlQC7(p7q)&](`6_c)$/*JL(L-^(]'
	DB	'$wIM`dPtOdGA,U3:w2M-0<q-]L_?^)1vw''.,MRsqVr.L;aN&#/EgJ)PBc[-f'
	DB	'>+WomX2u7lqM2iEumMTcsF?-aT=Z-97UEnXglEn1K-bnEO`guFt(c%=;Am_Qs'
	DB	'@jLooI&NX;]0#j4#F14;gl8-GQpgwhrq8''=l_f-b49''UOqkLu7-##oDY2L('
	DB	'te+Mch&gLYtJ,MEtJfLh''x''M=$CS-ZZ%P]8bZ>#S?YY#%Q&q''3^Fw&?D)U'
	DB	'DNrocM3A76//oL?#h7gl85[qW/NDOk%16ij;+:1a''iNIdb-ou8.P*w,v5#EI'
	DB	'$TWS>Pot-R*H''-SEpA:g)f+O$%%`kA#G=8RMmG1&O`>to8bC]T&$,n.LoO>2'
	DB	'9sp3dt-52U%VM#q7''DHpg+#Z9%H[K<L%a2E-grWVM3@2=-k22tL]4$##6We'''
	DB	'8UJCKE[d_=%wI;''6X-GsLX4j^SgJ$##R*w,vP3wK#iiW&#*h^D&R?jp7+/u&'
	DB	'#(AP##XU8c$fSYW-J95_-Dp[g9wcO&#M-h1OcJlc-*vpw0xUX&#OQFKNX@QI'''
	DB	'IoPp7nb,QU//MQ&ZDkKP)X<WSVL(68uVl&#c''[0#(s1X&xm$Y%B7*K:eDA32'
	DB	'3j998GXbA#pwMs-jgD$9QISB-A_(aN4xoFM^@C58D0+Q+q3n0#3U1InDjF682'
	DB	'-SjMXJK)(h$hxua_K]ul92%''BOU&#BRRh-slg8KDlr:%L71Ka:.A;%YULjDP'
	DB	'mL<LYs8i#XwJOYaKPKc1h:''9Ke,g)b),78=I39B;xiY$bgGw-&.Zi9InXDuY'
	DB	'a%G*f2Bq7mn9^#p1vv%#(Wi-;/Z5ho;#2:;%d&#x9v68C5g?ntX0X)pT`;%pB'
	DB	'3q7mgGN)3%(P8nTd5L7GeA-GL@+%J3u2:(Yf>et`e;)f#Km8&+DC$I46>#Kr]'
	DB	']u-[=99tts1.qb#q72g1WJO81q+eN''03''eM>&1XxY-caEnOj%2n8)),?ILR'
	DB	'5^.Ibn<-X-Mq7[a82Lq:F&#ce+S9wsCK*x`569E8ew''He]h:sI[2LM$[guka'
	DB	'3ZRd6:t%IG:;$%YiJ:Nq=?eAw;/:nnDq0(CYcMpG)qLN4$##&J<j$UpK<Q4a1'
	DB	']MupW^-sj_$%[HK%''F####QRZJ::Y3EGl4''@%FkiAOg#p[##O`gukTfBHag'
	DB	'L<LHw%q&OV0##F=6/:chIm0@eCP8X]:kFI%hl8hgO@RcBhS-@Qb$%+m=hPDLg'
	DB	'*%K8ln(wcf3/''DW-$.lR?n[nCH-eXOONTJlh:.RYF%3''p6sq:UIMA945&^H'
	DB	'FS87@$EP2iG<-lCO$%c`uKGD3rC$x0BL8aFn--`ke%#HMP''vh1/R&O_J9''u'
	DB	'm,.<tx[@%wsJk&bUT2`0uMv7gg#qp/ij.L56''hl;.s5CUrxjOM7-##.l+Au'''
	DB	'A&O:-T72L]P`&=;ctp''XScX*rU.>-XTt,%OVU4)S1+R-#dg0/Nn?Ku1^0f$B'
	DB	'*P:Rowwm-`0PKjYDDM''3]d39VZHEl4,.j'']Pk-M.h^&:0FACm$maq-&sgw0'
	DB	't7/6(^xtk%LuH88Fj-ekm>GA#_>568x6(OFRl-IZp`&b,_P''$M<Jnq79VsJW'
	DB	'/mWS*PUiq76;]/NM_>hLbxfc$mj`,O;&%W2m`Zh:/)Uetw:aJ%]K9h:TcF]u_'
	DB	'-Sj9,VK3M.*''&0D[Ca]J9gp8,kAW]%(?A%R$f<->Zts''^kn=-^@c4%-pY6q'
	DB	'I%J%1IGxfLU9CP8cbPlXv);C=b),<2mOvP8up,UVf3839acAWAW-W?#ao/^#%'
	DB	'KYo8fRULNd2.>%m]UK:n%r$''sw]J;5pAoO_#2mO3n,''=H5(etHg*`+RLgv>'
	DB	'=4U8guD$I%D:W>-r5V*%j*W:Kvej.Lp$<M-SGZ'':+Q_k+uvOSLiEo(<aD/K<'
	DB	'CCc`''Lx>''?;++O''>()jLR-^u68PHm8ZFWe+ej8h:9r6L*0//c&iH&R8pRb'
	DB	'A#Kjm%upV1g:a_#Ur7FuA#(tRh#.Y5K+@?3<-8m0$PEn;J:rh6?I6uG<-`wMU'
	DB	'''ircp0LaE_OtlMb&1#6T.#FDKu#1Lw%u%+GM+X''e?YLfjM[VO0MbuFp7;>Q'
	DB	'&#WIo)0@F%q7c#4XAXN-U&VB<HFF*qL($/V,;(kXZejWO`<[5??ewY(*9=%wD'
	DB	'c;,u<''9t3W-(H1th3+G]ucQ]kLs7df($/*JL]@*t7Bu_G3_7mp7<iaQjO@.k'
	DB	'Lg;x3B0lqp7Hf,^Ze7-##@/c58Mo(3;knp0%)A7?-W+eI''o8)b<nKnw''Ho8'
	DB	'C=Y>pqB>0ie&jhZ[?iLR@@_AvA-iQC(=ksRZRVp7`.=+NpBC%rh&3]R:8XDmE'
	DB	'5^V8O(x<<aG/1N$#FX$0V5Y6x''aErI3I$7x%E`v<-BY,)%-?Psf*l?%C3.mM'
	DB	'(=/M0:JxG''?7WhH%o''a<-80g0NBxoO(GH<dM]n.+%q@jH?f.UsJ2Ggs&4<-'
	DB	'e47&Kl+f//9@`b+?.TeN_&B8Ss?v;^Trk;f#YvJkl&w$]>-+k?''(<S:68tq*'
	DB	'WoDfZu'';mM?8X[ma8W%*`-=;D.(nc7/;)g:T1=^J$&BRV(-lTmNB6xqB[@0*'
	DB	'o.erM*<SWF]u2=st-*(6v>^](H.aREZSi,#1:[IXaZFOm<-ui#qUq2$##Ri;u'
	DB	'75OK#(RtaW-K-F`S+cF]uN`-KMQ%rP/Xri.LRcB##=YL3BgM/3MD?@f&1''BW'
	DB	'-)Ju<L25gl8uhVm1hL$##*8###''A3/LkKW+(^rWX?5W_8g)a(m&K8P>#bmmW'
	DB	'CMkk&#TR`C,5d>g)F;t,4:@_l8G/5h4vUd%&%950:VXD''QdWoY-F$BtUwmfe'
	DB	'$YqL''8(PWX(P?^@Po3$##`MSs?DWBZ/S>+4%>fX,VWv/w''KD`LP5IbH;rTV'
	DB	'>n3cEK8U#bX]l-/V+^lj3;vlMb&[5YQ8#pekX9JP3XUC72L,,?+Ni&co7ApnO'
	DB	'*5NK,((W-i:$,kp''UDAO(G0Sq7MVjJsbIu)''Z,*[>br5fX^:FPAWr-m2KgL'
	DB	'<LUN098kTF&#lvo58=/vjDo;.;)Ka*hLR#/k=rKbxuV`>Q_nN6''8uTG&#1T5'
	DB	'g)uLv:873UpTLgH+#FgpH''_o1780Ph8KmxQJ8#H72L4@768@Tm&Qh4CB/5Ov'
	DB	'mA&,Q&QbUoi$a_%3M01H)4x7I^&KQVgtFnV+;[Pc>[m4k//,]1?#`VY[Jr*3&'
	DB	'&slRfLiVZJ:]?=K3Sw=[$=uRB?3xk48@aeg<Z''<$#4H)6,>e0jT6''N#(q%.'
	DB	'O=?2S]u*(m<-V8J''(1)G][68hW$5''q[GC&5j`TE?m''esFGNRM)j,ffZ?-q'
	DB	'x8;->g4t*:CIP/[Qap7/9''#(1sao7w-.qNUdkJ)tCF&#B^;xGvn2r9FEPFFF'
	DB	'cL@.iFNkTve$m%#QvQS8U@)2Z+3K:AKM5isZ88+dKQ)W6>J%CL<KE>`.d*(B`'
	DB	'-n8D9oK<Up]c$X$(,)M8Zt7/[rdkqTgl-0cuGMv''?>-XV1q[''-5k''cAZ69'
	DB	'e;D_?$ZPP&s^+7])$*$#@QYi9,5P&#9r+$%CE=68>K8r0=dSC%%(@p7.m7jil'
	DB	'Q02''0-VWAg<a/''''3u.=4L$Y)6k/K:_[3=&jvL<L0C/2''v:^;-DIBW,B4E'
	DB	'68:kZ;%?8(Q8BH=kO65BW?xSG&#@uU,DS*,?.+(o(#1vCS8#CHF>TlGW''b)T'
	DB	'q7VT9q^*^$$.:&N@@$&)WHtPm*5_rO0&e%K&#-30j(E4#''Zb.o/(Tpm$>K'''
	DB	'f@[PvFl,hfINTNU6u''0pao7%XUp9]5.>%h`8_=VYbxuel.NTSsJfLacFu3B'''
	DB	'lQSu/m6-Oqem8T+oE--$0a/k]uj9EwsG>%veR*hv^BFpQj:K''#SJ,sB-''#]'
	DB	'(j.Lg92rTw-*n%@/;39rrJF,l#qV%OrtBeC6/,;qB3ebNW[?,Hqj2L.1NP&Gj'
	DB	'UR=1D8QaS3Up&@*9wP?+lo7b?@%''k4`p0Z$22%K3+iCZj?XJN4Nm&+YF]u@-'
	DB	'W$U%VEQ/,,>>#)D<h#`)h0:<Q6909ua+&VU%n2:cG3FJ-%@Bj-DgLr`Hw&HAK'
	DB	'jKjseK</xKT*)B,N9X3]krc12t''pgTV(Lv-tL[xg_%=M_q7a^x?7Ubd>#%8c'
	DB	'Y#YZ?=,`Wdxu/ae&#w6)R89tI#6@s''(6Bf7a&?S=^ZI_kS&ai`&=tE72L_D,'
	DB	';^R)7[$s<Eh#c&)q.MXI%#v9ROa5FZO%sF7q7Nwb&#ptUJ:aqJe$Sl68%.D##'
	DB	'#EC><?-aF&#RNQv>o8lKN%5/$(vdfq7+ebA#u1p]ovUKW&Y%q]''>$1@-[xfn'
	DB	'$7ZTp7mM,G,Ko7a&Gu%G[RMxJs[0MM%wci.LFDK)(<c`Q8N)jEIF*+?P2a8g%'
	DB	')$q]o2aH8C&<SibC/q,(e:v;-b#6[$NtDZ84Je2KNvB#$P5?tQ3nt(0d=j.LQ'
	DB	'f./Ll33+(;q3L-w=8dX$#WF&uIJ@-bfI>%:_i2B5CsR8&9Z&#=mPEnm0f`<&c'
	DB	')QL5uJ#%u%lJj+D-r;BoF&#4DoS97h5g)E#o:&S4weDF,9^Hoe`h*L+_a*NrL'
	DB	'W-1pG_&2UdB86e%B/:=>)N4xeW.*wft-;$''58-ESqr<b?UI(_%@[P46>#U`'''
	DB	'6AQ]m&6/`Z>#S?YY#Vc;r7U2&326d=w&H####?TZ`*4?&.MK?LP8Vxg>$[QXc'
	DB	'%QJv92.(Db*B)gb*BM9dM*hJMAo*c&#b0v=Pjer]$gG&JXDf->''StvU7505l'
	DB	'9$AFvgYRI^&<^b68?j#q9QX4SM''RO#&sL1IM.rJfLUAj221]d##DW=m83u5;'
	DB	'''bYx,*Sl0hL(W;;$doB&O/TQ:(Z^xBdLjL<Lni;''''X.`$#8+1GD:k$YUWs'
	DB	'bn8ogh6rxZ2Z9]%nd+>V#*8U_72Lh+2Q8Cj0i:6hp&$C/:p(HK>T8Y[gHQ4`4'
	DB	')''$Ab(Nof%V''8hL&#<NEdtg(n''=S1A(Q1/I&4([%dM`,Iu''1:_hL>SfD0'
	DB	'7&6D<fp8dHM7/g+tlPN9J*rKaPct&?''uBCem^jn%9_K)<,C5K3s=5g&GmJb*'
	DB	'[SYq7K;TRLGCsM-$$;S%:Y@r7AK0pprpL<Lrh,q7e/%KWK:50I^+m''vi`3?%'
	DB	'Zp+<-d+$L-Sv:@.o19n$s0&39;kn;S%BSq*$3WoJSCLweV[aZ''MQIjO<7;X-'
	DB	'X;&+dMLvu#^UsGEC9WEc[X(wI7#2.(F0jV*eZf<-Qv3J-c+J5AlrB#$p(H68L'
	DB	'vEA''q3n0#m,[`*8Ft)FcYgEud]CWfm68,(aLA$@EFTgLXoBq/UPlp7:d[/;r'
	DB	'_ix=:TF`S5H-b<LI&HY(K=h#)]Lk$K14lVfm:x$H<3^Ql<M`$OhapBnkup''D'
	DB	'#L$Pb_`N*g]2e;X/Dtg,bsj&K#2[-:iYr''_wgH)NUIR8a1n#S?Yej''h8^58'
	DB	'UbZd+^FKD*T@;6A7aQC[K8d-(v6GI$x:T<&''Gp5Uf>@M.*J:;$-rv29''M]8'
	DB	'qMv-tLp,''886iaC=Hb*YJoKJ,(j%K=H`K.v9HggqBIiZu''QvBT.#=)0ukru'
	DB	'V&.)3=(^1`o*Pj4<-<aN((^7(''#Z0wK#5GX@7u][`*S^43933A4rl][`*O4C'
	DB	'gLEl]v$1Q3AeF37dbXk,.)vj#x''d`;qgbQR%FW,2(?LO=s%Sc68%NP''##Ao'
	DB	'tl8x=BE#j1UD([3$M(]UI2LX3RpKN@;/#f''f/&_mt&F)XdF<9t4)Qa.*kTLw'
	DB	'Q''(TTB9.xH''>#MJ+gLq9-##@HuZPN0]u:h7.T..G:;$/Usj(T7`Q8tT72Ln'
	DB	'Yl<-qx8;-HV7Q-&Xdx%1a,hC=0u+HlsV>nuIQL-5<N?)NBS)QN*_I,?&)2''I'
	DB	'M%L3I)X((e/dl2&8''<M:^#M*Q+[T.Xri.LYS3v%fF`68h;b-X[/En''CR.q7'
	DB	'E)p''/kle2HM,u;^%OKC-N+Ll%F9CF<Nf''^#t2L,;27W:0O@6##U6W7:$rJf'
	DB	'LWHj$#)woqBefIZ.PK<b*t7ed;p*_m;4ExK#h@&]>_>@kXQtMacfD.m-VAb8;'
	DB	'IReM3$wf0''''hra*so568''Ip&vRs849''MRYSp%:t:h5qSgwpEr$B>Q,;s('
	DB	'C#$)`svQuF$##-D,##,g68@2[T;.XSdN9Qe)rpt._K-#5wF)sP''##p#C0c%-'
	DB	'Gb%hd+<-j''Ai*x&&HMkT]C''OSl##5RG[JXaHN;d''uA#x._U;.`PU@(Z3dt'
	DB	'4r152@:v,''R.Sj''w#0<-;kPI)FfJ&#AYJ&#//)>-k=m=*XnK$>=)72L]0I%'
	DB	'>.G690a:$##<,);?;72#?x9+d;^V''9;jY@;)br#q^YQpx:X#Te$Z^''=-=bG'
	DB	'hLf:D6&bNwZ9-ZD#n^9HhLMr5G;'']d&6''wYmTFmL<LD)F^%[tC''8;+9E#C'
	DB	'$g%#5Y>q9wI>P(9mI[>kC-ekLC/R&CH+s''B;K-M6$EB%is00:+A4[7xks.Lr'
	DB	'Nk0&E)wILYF@2L''0Nb$+pv<(2.768/FrY&h$^3i&@+G%JT''<-,v`3;_)I9M'
	DB	'^AE]CN?Cl2AZg+%4iTpT3<n-&%H%b<FDj2M<hH=&Eh<2Len$b*aTX=-8QxN)k'
	DB	'11IM1c^j%9s<L<NFSo)B?+<-(GxsF,^-Eh@$4dXhN$+#rxK8''je''D7k`e;)'
	DB	'2pYwPA''_p9&@^18ml1^[@g4t*[JOa*[=Qp7(qJ_oOL^(''7fB&Hq-:sf,sNj'
	DB	'8xq^>$U4O]GKx''m9)b@p7YsvK3w^YR-CdQ*:Ir<($u&)#(&?L9Rg3H)4fiEp'
	DB	'^iI9O8KnTj,]H?D*r7''M;PwZ9K0E^k&-cpI;.p/6_vwoFMV<->#%Xi.LxVnr'
	DB	'U(4&8/P+:hLSKj$#U%]49t''I:rgMi''FL@a:0Y-uA[39'',(vbma*hU%<-SR'
	DB	'F`Tt:542R_VV$p@[p8DV[A,?1839FWdF<TddF<9Ah-6&9tWoDlh]&1SpGMq>T'
	DB	'i1O*H&#(AL8[_P%.M>v^-))qOT*F5Cq0`Ye%+$B6i:7@0IX<N+T+0MlMBPQ*V'
	DB	'j>SsD<U4JHY8kD2)2fU/M#$e.)T4,_=8hLim[&);?UkK''-x?''(:siIfL<$p'
	DB	'FM`i<?%W(mGDHM%>iWP,##P`%/L<eXi:@Z9C.7o=@(pXdAO/NLQ8lPl+HPOQa'
	DB	'8wD8=^GlPa8TKI1CjhsCTSLJM''/Wl>-S(qw%sf/@%#B6;/U7K]uZbi^Oc^2n'
	DB	'<bhPmUkMw>%t<)''mEVE''''n`WnJra$^TKvX5B>;_aSEK'',(hwa0:i4G?.B'
	DB	'ci.(X[?b*($,=-n<.Q%`(X=?+@Am*Js0&=3bh8K]mL<LoNs''6,''85`0?t/'''
	DB	'_U59@]ddF<#LdF<eWdF<OuN/45rY<-L@&#+fm>69=Lb,OcZV/);TTm8VI;?%O'
	DB	'tJ<(b4mq7M6:u?KRdF<gR@2L=FNU-<b[(9c/ML3m;Z[$oF3g)GAWqpARc=<RO'
	DB	'u7cL5l;-[A]%/+fsd;l#SafT/f*W]0=O''$(Tb<[)*@e775R-:Yob%g*>l*:x'
	DB	'P?Yb.5)%w_I?7uk5JC+FS(m#i''k.''a0i)9<7b''fs''59hq$*5Uhv##pi^8'
	DB	'+hIEBF`nvo`;''l0.^S1<-wUK2/Coh58KKhLjM=SO*rfO`+qC`W-On.=AJ56>'
	DB	'>i2@2LH6A:&5q`?9I3@@''04&p2/LVa*T-4<-i3;M9UvZd+N7>b*eIwg:CC)c'
	DB	'<>nO&#<IGe;__.thjZl<%w(Wk2xmp4Q@I#I9,DF]u7-P=.-_:YJ]aS@V?6*C('
	DB	')dOp7:WL,b&3Rg/.cmM9&r^>$(>.Z-I&J(Q0Hd5Q%7Co-b`-c<N(6r@ip+Aur'
	DB	'K<m86QIth*#v;-OBqi+L7wDE-Ir8K[''m+DDSLwK&/.?-V%U_%3:qKNu$_b*B'
	DB	'-kp7NaD''QdWQPKYq[@>P)hI;*_F]u`Rb[.j8_Q/<&>uu+VsH$sM9TA%?)(vm'
	DB	'J80),P7E>)tjD%2L=-t#fK[%`v=Q8<FfNkgg^oIbah*#8/Qt$F&:K*-(N/''+'
	DB	'1vMB,u()-a.VUU*#[e%gAAO(S>WlA2);Sa>gXm8YB`1d@K#n]76-a$U,mF<fX'
	DB	']idqd)<3,]J7JmW4`6]uks=4-72L(jEk+:bJ0M^q-8Dm_Z?0olP1C9Sa&H[d&'
	DB	'c$ooQUj]Exd*3ZM@-WGW2%s'',B-_M%>%Ul:#/''xoFM9QX-$.QN''>[%$Z$u'
	DB	'F6pA6Ki2O5:8w*vP1<-1`[G,)-m#>0`P&#eb#.3i)rtB61(o''$?X3B</R90;'
	DB	'eZ]%Ncq;-Tl]#F>2Qft^ae_5tKL9MUe9b*sLEQ95C&`=G?@Mj=wh*''3E>=-<'
	DB	')Gt*Iw)''QG:`@IwOf7&]1i''S01B+Ev/Nac#9S;=;YQpg_6U`*kVY39xK,[/'
	DB	'6Aj7:''1Bm-_1EYfa1+o&o4hp7KN_Q(OlIo@S%;jVdn0''1<Vc52=u`3^o-n1'
	DB	'''g4v58Hj&6_t7$##?M)c<$bgQ_''SY((-xkA#Y(,p''H9rIVY-b,''%bCPF7'
	DB	'.J<Up^,(dU1VY*5#WkTU>h19w,WQhLI)3S#f$2(eb,jr*b;3Vw]*7NH%$c4Vs'
	DB	',eD9>XW8?N]o+(*pgC%/72LV-u<Hp,3@e^9UB1J+ak9-TN/mhKPg+AJYd$Mlv'
	DB	'AF_jCK*.O-^(63adMT->W%iewS8W6m2rtCpo''RS1R84=@paTKt)>=%&1[)*v'
	DB	'p''u+x,VrwN;&]kuO9JDbg=pO$J*.jVe;u''m0dr9l,<*wMK*Oe=g8lV_KEBF'
	DB	'kO''oU]^=[-792#ok,)i]lR8qQ2oA8wcRCZ^7w/Njh;?.stX?Q1>S1q4Bn$)K'
	DB	'1<-rGdO''$Wr.Lc.CG)$/*JL4tNR/,SVO3,aUw''DJN:)Ss;wGn9A32ijw%FL'
	DB	'+Z0Fn.U9;reSq)bmI32U==5ALuG&#Vf1398/pVo1*c-(aY168o<`JsSbk-,1N'
	DB	';$>0:OUas(3:8Z972LSfF8eb=c-;>SPw7.6hn3m`9^Xkn(r.qS[0;T%&Qc=+S'
	DB	'TRxX''q1BNk3&*eu2;&8q$&x>Q#Q7^Tf+6<(d%ZVmj2bDi%.3L2n+4W''$PiD'
	DB	'DG)g,r%+?,$@?uou5tSe2aN_AQU*<h`e-GI7)?OK2A.d7_c)?wQ5AS@DL3r#7'
	DB	'fSkgl6-++D:''A,uq7SvlB$pcpH''q3n0#_%dY#xCpr-l<F0NR@-##FEV6NTF'
	DB	'6##$l84N1w?AO>''IAOURQ##V^Fv-XFbGM7Fl(N<3DhLGF%q.1rC$#:T__&Pi'
	DB	'68%0xi_&[qFJ(77j_&JWoF.V735&T,[R*:xFR*K5>>#`bW-?4Ne_&6Ne_&6Ne'
	DB	'_&n`kr-#GJcM6X;uM6X;uM(.a..^2TkL%oR(#;u.T%fAr%4tJ8&><1=GHZ_+m'
	DB	'9/#H1F^R#SC#*N=BA9(D?v[UiFY>>^8p,KKF.W]L29uLkLlu/+4T<XoIB&hx='
	DB	'T1PcDaB&;HH+-AFr?(m9HZV)FKS8JCw;SD=6[^/DZUL`EUDf]GGlG&>w$)F./'
	DB	'^n3+rlo+DB;5sIYGNk+i1t-69Jg--0pao7Sm#K)pdHW&;LuDNH@H>#/X-TI(;'
	DB	'P>#,Gc>#0Su>#4`1?#8lC?#<xU?#@.i?#D:%@#HF7@#LRI@#P_[@#Tkn@#Xw*'
	DB	'A#]-=A#a9OA#d<F&#*;G##.GY##2Sl##6`($#:l:$#>xL$#B.`$#F:r$#JF.%'
	DB	'#NR@%#R_R%#Vke%#Zww%#_-4&#3^Rh%Sflr-k''MS.o?.5/sWel/wpEM0%3'''
	DB	'/1)K^f1-d>G21&v(35>V`39V7A4=onx4A1OY5EI0;6Ibgr6M$HS7Q<)58C5w,'
	DB	';WoA*#[%T*#`1g*#d=#+#hI5+#lUG+#pbY+#tnl+#x$),#&1;,#*=M,#.I`,#'
	DB	'2Ur,#6b.-#;w[H#iQtA#m^0B#qjBB#uvTB##-hB#''9$C#+E6C#/QHC#3^ZC#'
	DB	'7jmC#;v)D#?,<D#C8ND#GDaD#KPsD#O]/E#g1A5#KA*1#gC17#MGd;#8(02#L'
	DB	'-d3#rWM4#Hga1#,<w0#T.j<#O#''2#CYN1#qa^:#_4m3#o@/=#eG8=#t8J5#`'
	DB	'+78#4uI-#m3B2#SB[8#Q0@8#i[*9#iOn8#1Nm;#^sN9#qh<9#:=x-#P;K2#$%'
	DB	'X9#bC+.#Rg;<#mN=.#MTF.#RZO.#2?)4#Y#(/#[)1/#b;L/#dAU/#0Sv;#lY$'
	DB	'0#n`-0#sf60#(F24#wrH0#%/e0#TmD<#%JSMFove:CTBEXI:<eh2g)B,3h2^G'
	DB	'3i;#d3jD>)4kMYD4lVu`4m`:&5niUA5@(A5BA1]PBB:xlBCC=2CDLXMCEUtiC'
	DB	'f&0g2''tN?PGT4CPGT4CPGT4CPGT4CPGT4CPGT4CPGT4CPGT4CPGT4CPGT4CP'
	DB	'GT4CPGT4CPGT4CP-qekC`.9kEg^+F$kwViFJTB&5KTB&5KTB&5KTB&5KTB&5K'
	DB	'TB&5KTB&5KTB&5KTB&5KTB&5KTB&5KTB&5KTB&5KTB&5KTB&5o,^<-28ZI''O'
	DB	'?;xpO?;xpO?;xpO?;xpO?;xpO?;xpO?;xpO?;xpO?;xpO?;xpO?;xpO?;xpO?'
	DB	';xpO?;xp;7q-#lLYI:xvD=#', 00H		; proggy_clean_ttf_compressed_data_base85
CONST	ENDS
PUBLIC	??_H@YGXPAXIIP6EPAX0@Z@Z			; `vector constructor iterator'
PUBLIC	??0ImVec2@@QAE@XZ				; ImVec2::ImVec2
PUBLIC	??0ImVec2@@QAE@MM@Z				; ImVec2::ImVec2
PUBLIC	??0ImVec4@@QAE@XZ				; ImVec4::ImVec4
PUBLIC	??0ImVec4@@QAE@MMMM@Z				; ImVec4::ImVec4
PUBLIC	?StyleColorsDark@ImGui@@YAXPAUImGuiStyle@@@Z	; ImGui::StyleColorsDark
PUBLIC	?StyleColorsClassic@ImGui@@YAXPAUImGuiStyle@@@Z	; ImGui::StyleColorsClassic
PUBLIC	?StyleColorsLight@ImGui@@YAXPAUImGuiStyle@@@Z	; ImGui::StyleColorsLight
PUBLIC	??2@YAPAXIUImNewDummy@@PAX@Z			; operator new
PUBLIC	??3@YAXPAXUImNewDummy@@0@Z			; operator delete
PUBLIC	??0?$ImVector@G@@QAE@XZ				; ImVector<unsigned short>::ImVector<unsigned short>
PUBLIC	??4?$ImVector@G@@QAEAAU0@ABU0@@Z		; ImVector<unsigned short>::operator=
PUBLIC	??1?$ImVector@G@@QAE@XZ				; ImVector<unsigned short>::~ImVector<unsigned short>
PUBLIC	?empty@?$ImVector@G@@QBE_NXZ			; ImVector<unsigned short>::empty
PUBLIC	??A?$ImVector@G@@QAEAAGH@Z			; ImVector<unsigned short>::operator[]
PUBLIC	?clear@?$ImVector@G@@QAEXXZ			; ImVector<unsigned short>::clear
PUBLIC	?_grow_capacity@?$ImVector@G@@QBEHH@Z		; ImVector<unsigned short>::_grow_capacity
PUBLIC	?resize@?$ImVector@G@@QAEXH@Z			; ImVector<unsigned short>::resize
PUBLIC	?resize@?$ImVector@G@@QAEXHABG@Z		; ImVector<unsigned short>::resize
PUBLIC	?shrink@?$ImVector@G@@QAEXH@Z			; ImVector<unsigned short>::shrink
PUBLIC	?reserve@?$ImVector@G@@QAEXH@Z			; ImVector<unsigned short>::reserve
PUBLIC	?push_back@?$ImVector@G@@QAEXABG@Z		; ImVector<unsigned short>::push_back
PUBLIC	??0ImDrawCmd@@QAE@XZ				; ImDrawCmd::ImDrawCmd
PUBLIC	??0?$ImVector@UImDrawCmd@@@@QAE@XZ		; ImVector<ImDrawCmd>::ImVector<ImDrawCmd>
PUBLIC	??4?$ImVector@UImDrawCmd@@@@QAEAAU0@ABU0@@Z	; ImVector<ImDrawCmd>::operator=
PUBLIC	??1?$ImVector@UImDrawCmd@@@@QAE@XZ		; ImVector<ImDrawCmd>::~ImVector<ImDrawCmd>
PUBLIC	??A?$ImVector@UImDrawCmd@@@@QAEAAUImDrawCmd@@H@Z ; ImVector<ImDrawCmd>::operator[]
PUBLIC	?clear@?$ImVector@UImDrawCmd@@@@QAEXXZ		; ImVector<ImDrawCmd>::clear
PUBLIC	?back@?$ImVector@UImDrawCmd@@@@QAEAAUImDrawCmd@@XZ ; ImVector<ImDrawCmd>::back
PUBLIC	?_grow_capacity@?$ImVector@UImDrawCmd@@@@QBEHH@Z ; ImVector<ImDrawCmd>::_grow_capacity
PUBLIC	?resize@?$ImVector@UImDrawCmd@@@@QAEXH@Z	; ImVector<ImDrawCmd>::resize
PUBLIC	?reserve@?$ImVector@UImDrawCmd@@@@QAEXH@Z	; ImVector<ImDrawCmd>::reserve
PUBLIC	?push_back@?$ImVector@UImDrawCmd@@@@QAEXABUImDrawCmd@@@Z ; ImVector<ImDrawCmd>::push_back
PUBLIC	?pop_back@?$ImVector@UImDrawCmd@@@@QAEXXZ	; ImVector<ImDrawCmd>::pop_back
PUBLIC	?erase@?$ImVector@UImDrawCmd@@@@QAEPAUImDrawCmd@@PBU2@@Z ; ImVector<ImDrawCmd>::erase
PUBLIC	??0ImDrawChannel@@QAE@XZ			; ImDrawChannel::ImDrawChannel
PUBLIC	??0?$ImVector@UImDrawChannel@@@@QAE@XZ		; ImVector<ImDrawChannel>::ImVector<ImDrawChannel>
PUBLIC	??1?$ImVector@UImDrawChannel@@@@QAE@XZ		; ImVector<ImDrawChannel>::~ImVector<ImDrawChannel>
PUBLIC	??A?$ImVector@UImDrawChannel@@@@QAEAAUImDrawChannel@@H@Z ; ImVector<ImDrawChannel>::operator[]
PUBLIC	?clear@?$ImVector@UImDrawChannel@@@@QAEXXZ	; ImVector<ImDrawChannel>::clear
PUBLIC	?_grow_capacity@?$ImVector@UImDrawChannel@@@@QBEHH@Z ; ImVector<ImDrawChannel>::_grow_capacity
PUBLIC	?resize@?$ImVector@UImDrawChannel@@@@QAEXH@Z	; ImVector<ImDrawChannel>::resize
PUBLIC	?reserve@?$ImVector@UImDrawChannel@@@@QAEXH@Z	; ImVector<ImDrawChannel>::reserve
PUBLIC	??0ImDrawListSplitter@@QAE@XZ			; ImDrawListSplitter::ImDrawListSplitter
PUBLIC	??1ImDrawListSplitter@@QAE@XZ			; ImDrawListSplitter::~ImDrawListSplitter
PUBLIC	?Clear@ImDrawListSplitter@@QAEXXZ		; ImDrawListSplitter::Clear
PUBLIC	?ClearFreeMemory@ImDrawListSplitter@@QAEXXZ	; ImDrawListSplitter::ClearFreeMemory
PUBLIC	?Split@ImDrawListSplitter@@QAEXPAUImDrawList@@H@Z ; ImDrawListSplitter::Split
PUBLIC	?Merge@ImDrawListSplitter@@QAEXPAUImDrawList@@@Z ; ImDrawListSplitter::Merge
PUBLIC	?SetCurrentChannel@ImDrawListSplitter@@QAEXPAUImDrawList@@H@Z ; ImDrawListSplitter::SetCurrentChannel
PUBLIC	??0?$ImVector@UImDrawVert@@@@QAE@XZ		; ImVector<ImDrawVert>::ImVector<ImDrawVert>
PUBLIC	??4?$ImVector@UImDrawVert@@@@QAEAAU0@ABU0@@Z	; ImVector<ImDrawVert>::operator=
PUBLIC	??1?$ImVector@UImDrawVert@@@@QAE@XZ		; ImVector<ImDrawVert>::~ImVector<ImDrawVert>
PUBLIC	??A?$ImVector@UImDrawVert@@@@QAEAAUImDrawVert@@H@Z ; ImVector<ImDrawVert>::operator[]
PUBLIC	?clear@?$ImVector@UImDrawVert@@@@QAEXXZ		; ImVector<ImDrawVert>::clear
PUBLIC	?swap@?$ImVector@UImDrawVert@@@@QAEXAAU1@@Z	; ImVector<ImDrawVert>::swap
PUBLIC	?_grow_capacity@?$ImVector@UImDrawVert@@@@QBEHH@Z ; ImVector<ImDrawVert>::_grow_capacity
PUBLIC	?resize@?$ImVector@UImDrawVert@@@@QAEXH@Z	; ImVector<ImDrawVert>::resize
PUBLIC	?shrink@?$ImVector@UImDrawVert@@@@QAEXH@Z	; ImVector<ImDrawVert>::shrink
PUBLIC	?reserve@?$ImVector@UImDrawVert@@@@QAEXH@Z	; ImVector<ImDrawVert>::reserve
PUBLIC	??0?$ImVector@UImVec4@@@@QAE@XZ			; ImVector<ImVec4>::ImVector<ImVec4>
PUBLIC	??1?$ImVector@UImVec4@@@@QAE@XZ			; ImVector<ImVec4>::~ImVector<ImVec4>
PUBLIC	?clear@?$ImVector@UImVec4@@@@QAEXXZ		; ImVector<ImVec4>::clear
PUBLIC	?back@?$ImVector@UImVec4@@@@QAEAAUImVec4@@XZ	; ImVector<ImVec4>::back
PUBLIC	?_grow_capacity@?$ImVector@UImVec4@@@@QBEHH@Z	; ImVector<ImVec4>::_grow_capacity
PUBLIC	?resize@?$ImVector@UImVec4@@@@QAEXH@Z		; ImVector<ImVec4>::resize
PUBLIC	?reserve@?$ImVector@UImVec4@@@@QAEXH@Z		; ImVector<ImVec4>::reserve
PUBLIC	?push_back@?$ImVector@UImVec4@@@@QAEXABUImVec4@@@Z ; ImVector<ImVec4>::push_back
PUBLIC	?pop_back@?$ImVector@UImVec4@@@@QAEXXZ		; ImVector<ImVec4>::pop_back
PUBLIC	??0?$ImVector@PAX@@QAE@XZ			; ImVector<void *>::ImVector<void *>
PUBLIC	??1?$ImVector@PAX@@QAE@XZ			; ImVector<void *>::~ImVector<void *>
PUBLIC	?empty@?$ImVector@PAX@@QBE_NXZ			; ImVector<void *>::empty
PUBLIC	?clear@?$ImVector@PAX@@QAEXXZ			; ImVector<void *>::clear
PUBLIC	?back@?$ImVector@PAX@@QAEAAPAXXZ		; ImVector<void *>::back
PUBLIC	?_grow_capacity@?$ImVector@PAX@@QBEHH@Z		; ImVector<void *>::_grow_capacity
PUBLIC	?resize@?$ImVector@PAX@@QAEXH@Z			; ImVector<void *>::resize
PUBLIC	?reserve@?$ImVector@PAX@@QAEXH@Z		; ImVector<void *>::reserve
PUBLIC	?push_back@?$ImVector@PAX@@QAEXABQAX@Z		; ImVector<void *>::push_back
PUBLIC	?pop_back@?$ImVector@PAX@@QAEXXZ		; ImVector<void *>::pop_back
PUBLIC	??0?$ImVector@UImVec2@@@@QAE@XZ			; ImVector<ImVec2>::ImVector<ImVec2>
PUBLIC	??1?$ImVector@UImVec2@@@@QAE@XZ			; ImVector<ImVec2>::~ImVector<ImVec2>
PUBLIC	?clear@?$ImVector@UImVec2@@@@QAEXXZ		; ImVector<ImVec2>::clear
PUBLIC	?back@?$ImVector@UImVec2@@@@QAEAAUImVec2@@XZ	; ImVector<ImVec2>::back
PUBLIC	?_grow_capacity@?$ImVector@UImVec2@@@@QBEHH@Z	; ImVector<ImVec2>::_grow_capacity
PUBLIC	?resize@?$ImVector@UImVec2@@@@QAEXH@Z		; ImVector<ImVec2>::resize
PUBLIC	?reserve@?$ImVector@UImVec2@@@@QAEXH@Z		; ImVector<ImVec2>::reserve
PUBLIC	?push_back@?$ImVector@UImVec2@@@@QAEXABUImVec2@@@Z ; ImVector<ImVec2>::push_back
PUBLIC	??0ImDrawList@@QAE@PBUImDrawListSharedData@@@Z	; ImDrawList::ImDrawList
PUBLIC	?PushClipRect@ImDrawList@@QAEXUImVec2@@0_N@Z	; ImDrawList::PushClipRect
PUBLIC	?PushClipRectFullScreen@ImDrawList@@QAEXXZ	; ImDrawList::PushClipRectFullScreen
PUBLIC	?PopClipRect@ImDrawList@@QAEXXZ			; ImDrawList::PopClipRect
PUBLIC	?PushTextureID@ImDrawList@@QAEXPAX@Z		; ImDrawList::PushTextureID
PUBLIC	?PopTextureID@ImDrawList@@QAEXXZ		; ImDrawList::PopTextureID
PUBLIC	?AddLine@ImDrawList@@QAEXABUImVec2@@0IM@Z	; ImDrawList::AddLine
PUBLIC	?AddRect@ImDrawList@@QAEXABUImVec2@@0IMHM@Z	; ImDrawList::AddRect
PUBLIC	?AddRectFilled@ImDrawList@@QAEXABUImVec2@@0IMH@Z ; ImDrawList::AddRectFilled
PUBLIC	?AddRectFilledMultiColor@ImDrawList@@QAEXABUImVec2@@0IIII@Z ; ImDrawList::AddRectFilledMultiColor
PUBLIC	?AddQuad@ImDrawList@@QAEXABUImVec2@@000IM@Z	; ImDrawList::AddQuad
PUBLIC	?AddQuadFilled@ImDrawList@@QAEXABUImVec2@@000I@Z ; ImDrawList::AddQuadFilled
PUBLIC	?AddTriangle@ImDrawList@@QAEXABUImVec2@@00IM@Z	; ImDrawList::AddTriangle
PUBLIC	?AddTriangleFilled@ImDrawList@@QAEXABUImVec2@@00I@Z ; ImDrawList::AddTriangleFilled
PUBLIC	?AddCircle@ImDrawList@@QAEXABUImVec2@@MIHM@Z	; ImDrawList::AddCircle
PUBLIC	?AddCircleFilled@ImDrawList@@QAEXABUImVec2@@MIH@Z ; ImDrawList::AddCircleFilled
PUBLIC	?AddNgon@ImDrawList@@QAEXABUImVec2@@MIHM@Z	; ImDrawList::AddNgon
PUBLIC	?AddNgonFilled@ImDrawList@@QAEXABUImVec2@@MIH@Z	; ImDrawList::AddNgonFilled
PUBLIC	?AddText@ImDrawList@@QAEXABUImVec2@@IPBD1@Z	; ImDrawList::AddText
PUBLIC	?AddText@ImDrawList@@QAEXPBUImFont@@MABUImVec2@@IPBD2MPBUImVec4@@@Z ; ImDrawList::AddText
PUBLIC	?AddPolyline@ImDrawList@@QAEXPBUImVec2@@HI_NM@Z	; ImDrawList::AddPolyline
PUBLIC	?AddConvexPolyFilled@ImDrawList@@QAEXPBUImVec2@@HI@Z ; ImDrawList::AddConvexPolyFilled
PUBLIC	?AddBezierCurve@ImDrawList@@QAEXABUImVec2@@000IMH@Z ; ImDrawList::AddBezierCurve
PUBLIC	?AddImage@ImDrawList@@QAEXPAXABUImVec2@@111I@Z	; ImDrawList::AddImage
PUBLIC	?AddImageQuad@ImDrawList@@QAEXPAXABUImVec2@@1111111I@Z ; ImDrawList::AddImageQuad
PUBLIC	?AddImageRounded@ImDrawList@@QAEXPAXABUImVec2@@111IMH@Z ; ImDrawList::AddImageRounded
PUBLIC	?PathLineTo@ImDrawList@@QAEXABUImVec2@@@Z	; ImDrawList::PathLineTo
PUBLIC	?PathFillConvex@ImDrawList@@QAEXI@Z		; ImDrawList::PathFillConvex
PUBLIC	?PathStroke@ImDrawList@@QAEXI_NM@Z		; ImDrawList::PathStroke
PUBLIC	?PathArcTo@ImDrawList@@QAEXABUImVec2@@MMMH@Z	; ImDrawList::PathArcTo
PUBLIC	?PathArcToFast@ImDrawList@@QAEXABUImVec2@@MHH@Z	; ImDrawList::PathArcToFast
PUBLIC	?PathBezierCurveTo@ImDrawList@@QAEXABUImVec2@@00H@Z ; ImDrawList::PathBezierCurveTo
PUBLIC	?PathRect@ImDrawList@@QAEXABUImVec2@@0MH@Z	; ImDrawList::PathRect
PUBLIC	?AddCallback@ImDrawList@@QAEXP6AXPBU1@PBUImDrawCmd@@@ZPAX@Z ; ImDrawList::AddCallback
PUBLIC	?AddDrawCmd@ImDrawList@@QAEXXZ			; ImDrawList::AddDrawCmd
PUBLIC	?CloneOutput@ImDrawList@@QBEPAU1@XZ		; ImDrawList::CloneOutput
PUBLIC	?Clear@ImDrawList@@QAEXXZ			; ImDrawList::Clear
PUBLIC	?ClearFreeMemory@ImDrawList@@QAEXXZ		; ImDrawList::ClearFreeMemory
PUBLIC	?PrimReserve@ImDrawList@@QAEXHH@Z		; ImDrawList::PrimReserve
PUBLIC	?PrimUnreserve@ImDrawList@@QAEXHH@Z		; ImDrawList::PrimUnreserve
PUBLIC	?PrimRect@ImDrawList@@QAEXABUImVec2@@0I@Z	; ImDrawList::PrimRect
PUBLIC	?PrimRectUV@ImDrawList@@QAEXABUImVec2@@000I@Z	; ImDrawList::PrimRectUV
PUBLIC	?PrimQuadUV@ImDrawList@@QAEXABUImVec2@@0000000I@Z ; ImDrawList::PrimQuadUV
PUBLIC	?PrimWriteVtx@ImDrawList@@QAEXABUImVec2@@0I@Z	; ImDrawList::PrimWriteVtx
PUBLIC	?PrimWriteIdx@ImDrawList@@QAEXG@Z		; ImDrawList::PrimWriteIdx
PUBLIC	?UpdateClipRect@ImDrawList@@QAEXXZ		; ImDrawList::UpdateClipRect
PUBLIC	?UpdateTextureID@ImDrawList@@QAEXXZ		; ImDrawList::UpdateTextureID
PUBLIC	?DeIndexAllBuffers@ImDrawData@@QAEXXZ		; ImDrawData::DeIndexAllBuffers
PUBLIC	?ScaleClipRects@ImDrawData@@QAEXABUImVec2@@@Z	; ImDrawData::ScaleClipRects
PUBLIC	??0ImFontConfig@@QAE@XZ				; ImFontConfig::ImFontConfig
PUBLIC	??A?$ImVector@I@@QAEAAIH@Z			; ImVector<unsigned int>::operator[]
PUBLIC	??A?$ImVector@I@@QBEABIH@Z			; ImVector<unsigned int>::operator[]
PUBLIC	?GetBit@ImFontGlyphRangesBuilder@@QBE_NH@Z	; ImFontGlyphRangesBuilder::GetBit
PUBLIC	?SetBit@ImFontGlyphRangesBuilder@@QAEXH@Z	; ImFontGlyphRangesBuilder::SetBit
PUBLIC	?AddChar@ImFontGlyphRangesBuilder@@QAEXG@Z	; ImFontGlyphRangesBuilder::AddChar
PUBLIC	?AddText@ImFontGlyphRangesBuilder@@QAEXPBD0@Z	; ImFontGlyphRangesBuilder::AddText
PUBLIC	?AddRanges@ImFontGlyphRangesBuilder@@QAEXPBG@Z	; ImFontGlyphRangesBuilder::AddRanges
PUBLIC	?BuildRanges@ImFontGlyphRangesBuilder@@QAEXPAU?$ImVector@G@@@Z ; ImFontGlyphRangesBuilder::BuildRanges
PUBLIC	??0ImFontAtlasCustomRect@@QAE@XZ		; ImFontAtlasCustomRect::ImFontAtlasCustomRect
PUBLIC	?IsPacked@ImFontAtlasCustomRect@@QBE_NXZ	; ImFontAtlasCustomRect::IsPacked
PUBLIC	??0ImFontAtlas@@QAE@XZ				; ImFontAtlas::ImFontAtlas
PUBLIC	??1ImFontAtlas@@QAE@XZ				; ImFontAtlas::~ImFontAtlas
PUBLIC	?AddFont@ImFontAtlas@@QAEPAUImFont@@PBUImFontConfig@@@Z ; ImFontAtlas::AddFont
PUBLIC	?AddFontDefault@ImFontAtlas@@QAEPAUImFont@@PBUImFontConfig@@@Z ; ImFontAtlas::AddFontDefault
PUBLIC	?AddFontFromFileTTF@ImFontAtlas@@QAEPAUImFont@@PBDMPBUImFontConfig@@PBG@Z ; ImFontAtlas::AddFontFromFileTTF
PUBLIC	?AddFontFromMemoryTTF@ImFontAtlas@@QAEPAUImFont@@PAXHMPBUImFontConfig@@PBG@Z ; ImFontAtlas::AddFontFromMemoryTTF
PUBLIC	?AddFontFromMemoryCompressedTTF@ImFontAtlas@@QAEPAUImFont@@PBXHMPBUImFontConfig@@PBG@Z ; ImFontAtlas::AddFontFromMemoryCompressedTTF
PUBLIC	?AddFontFromMemoryCompressedBase85TTF@ImFontAtlas@@QAEPAUImFont@@PBDMPBUImFontConfig@@PBG@Z ; ImFontAtlas::AddFontFromMemoryCompressedBase85TTF
PUBLIC	?ClearInputData@ImFontAtlas@@QAEXXZ		; ImFontAtlas::ClearInputData
PUBLIC	?ClearTexData@ImFontAtlas@@QAEXXZ		; ImFontAtlas::ClearTexData
PUBLIC	?ClearFonts@ImFontAtlas@@QAEXXZ			; ImFontAtlas::ClearFonts
PUBLIC	?Clear@ImFontAtlas@@QAEXXZ			; ImFontAtlas::Clear
PUBLIC	?Build@ImFontAtlas@@QAE_NXZ			; ImFontAtlas::Build
PUBLIC	?GetTexDataAsAlpha8@ImFontAtlas@@QAEXPAPAEPAH11@Z ; ImFontAtlas::GetTexDataAsAlpha8
PUBLIC	?GetTexDataAsRGBA32@ImFontAtlas@@QAEXPAPAEPAH11@Z ; ImFontAtlas::GetTexDataAsRGBA32
PUBLIC	?GetGlyphRangesDefault@ImFontAtlas@@QAEPBGXZ	; ImFontAtlas::GetGlyphRangesDefault
PUBLIC	?GetGlyphRangesKorean@ImFontAtlas@@QAEPBGXZ	; ImFontAtlas::GetGlyphRangesKorean
PUBLIC	?GetGlyphRangesJapanese@ImFontAtlas@@QAEPBGXZ	; ImFontAtlas::GetGlyphRangesJapanese
PUBLIC	?GetGlyphRangesChineseFull@ImFontAtlas@@QAEPBGXZ ; ImFontAtlas::GetGlyphRangesChineseFull
PUBLIC	?GetGlyphRangesChineseSimplifiedCommon@ImFontAtlas@@QAEPBGXZ ; ImFontAtlas::GetGlyphRangesChineseSimplifiedCommon
PUBLIC	?GetGlyphRangesCyrillic@ImFontAtlas@@QAEPBGXZ	; ImFontAtlas::GetGlyphRangesCyrillic
PUBLIC	?GetGlyphRangesThai@ImFontAtlas@@QAEPBGXZ	; ImFontAtlas::GetGlyphRangesThai
PUBLIC	?GetGlyphRangesVietnamese@ImFontAtlas@@QAEPBGXZ	; ImFontAtlas::GetGlyphRangesVietnamese
PUBLIC	?AddCustomRectRegular@ImFontAtlas@@QAEHIHH@Z	; ImFontAtlas::AddCustomRectRegular
PUBLIC	?AddCustomRectFontGlyph@ImFontAtlas@@QAEHPAUImFont@@GHHMABUImVec2@@@Z ; ImFontAtlas::AddCustomRectFontGlyph
PUBLIC	?CalcCustomRectUV@ImFontAtlas@@QBEXPBUImFontAtlasCustomRect@@PAUImVec2@@1@Z ; ImFontAtlas::CalcCustomRectUV
PUBLIC	?GetMouseCursorTexData@ImFontAtlas@@QAE_NHPAUImVec2@@0QAU2@1@Z ; ImFontAtlas::GetMouseCursorTexData
PUBLIC	??0?$ImVector@PAUImFont@@@@QAE@XZ		; ImVector<ImFont *>::ImVector<ImFont *>
PUBLIC	??1?$ImVector@PAUImFont@@@@QAE@XZ		; ImVector<ImFont *>::~ImVector<ImFont *>
PUBLIC	?empty@?$ImVector@PAUImFont@@@@QBE_NXZ		; ImVector<ImFont *>::empty
PUBLIC	?size@?$ImVector@PAUImFont@@@@QBEHXZ		; ImVector<ImFont *>::size
PUBLIC	??A?$ImVector@PAUImFont@@@@QAEAAPAUImFont@@H@Z	; ImVector<ImFont *>::operator[]
PUBLIC	?clear@?$ImVector@PAUImFont@@@@QAEXXZ		; ImVector<ImFont *>::clear
PUBLIC	?back@?$ImVector@PAUImFont@@@@QAEAAPAUImFont@@XZ ; ImVector<ImFont *>::back
PUBLIC	?_grow_capacity@?$ImVector@PAUImFont@@@@QBEHH@Z	; ImVector<ImFont *>::_grow_capacity
PUBLIC	?reserve@?$ImVector@PAUImFont@@@@QAEXH@Z	; ImVector<ImFont *>::reserve
PUBLIC	?push_back@?$ImVector@PAUImFont@@@@QAEXABQAUImFont@@@Z ; ImVector<ImFont *>::push_back
PUBLIC	??0?$ImVector@UImFontAtlasCustomRect@@@@QAE@XZ	; ImVector<ImFontAtlasCustomRect>::ImVector<ImFontAtlasCustomRect>
PUBLIC	??1?$ImVector@UImFontAtlasCustomRect@@@@QAE@XZ	; ImVector<ImFontAtlasCustomRect>::~ImVector<ImFontAtlasCustomRect>
PUBLIC	??A?$ImVector@UImFontAtlasCustomRect@@@@QAEAAUImFontAtlasCustomRect@@H@Z ; ImVector<ImFontAtlasCustomRect>::operator[]
PUBLIC	?clear@?$ImVector@UImFontAtlasCustomRect@@@@QAEXXZ ; ImVector<ImFontAtlasCustomRect>::clear
PUBLIC	?_grow_capacity@?$ImVector@UImFontAtlasCustomRect@@@@QBEHH@Z ; ImVector<ImFontAtlasCustomRect>::_grow_capacity
PUBLIC	?reserve@?$ImVector@UImFontAtlasCustomRect@@@@QAEXH@Z ; ImVector<ImFontAtlasCustomRect>::reserve
PUBLIC	?push_back@?$ImVector@UImFontAtlasCustomRect@@@@QAEXABUImFontAtlasCustomRect@@@Z ; ImVector<ImFontAtlasCustomRect>::push_back
PUBLIC	??0?$ImVector@UImFontConfig@@@@QAE@XZ		; ImVector<ImFontConfig>::ImVector<ImFontConfig>
PUBLIC	??1?$ImVector@UImFontConfig@@@@QAE@XZ		; ImVector<ImFontConfig>::~ImVector<ImFontConfig>
PUBLIC	?empty@?$ImVector@UImFontConfig@@@@QBE_NXZ	; ImVector<ImFontConfig>::empty
PUBLIC	??A?$ImVector@UImFontConfig@@@@QAEAAUImFontConfig@@H@Z ; ImVector<ImFontConfig>::operator[]
PUBLIC	?clear@?$ImVector@UImFontConfig@@@@QAEXXZ	; ImVector<ImFontConfig>::clear
PUBLIC	?back@?$ImVector@UImFontConfig@@@@QAEAAUImFontConfig@@XZ ; ImVector<ImFontConfig>::back
PUBLIC	?_grow_capacity@?$ImVector@UImFontConfig@@@@QBEHH@Z ; ImVector<ImFontConfig>::_grow_capacity
PUBLIC	?reserve@?$ImVector@UImFontConfig@@@@QAEXH@Z	; ImVector<ImFontConfig>::reserve
PUBLIC	?push_back@?$ImVector@UImFontConfig@@@@QAEXABUImFontConfig@@@Z ; ImVector<ImFontConfig>::push_back
PUBLIC	??0?$ImVector@M@@QAE@XZ				; ImVector<float>::ImVector<float>
PUBLIC	??1?$ImVector@M@@QAE@XZ				; ImVector<float>::~ImVector<float>
PUBLIC	??A?$ImVector@M@@QAEAAMH@Z			; ImVector<float>::operator[]
PUBLIC	?clear@?$ImVector@M@@QAEXXZ			; ImVector<float>::clear
PUBLIC	?_grow_capacity@?$ImVector@M@@QBEHH@Z		; ImVector<float>::_grow_capacity
PUBLIC	?resize@?$ImVector@M@@QAEXHABM@Z		; ImVector<float>::resize
PUBLIC	?reserve@?$ImVector@M@@QAEXH@Z			; ImVector<float>::reserve
PUBLIC	??0?$ImVector@UImFontGlyph@@@@QAE@XZ		; ImVector<ImFontGlyph>::ImVector<ImFontGlyph>
PUBLIC	??1?$ImVector@UImFontGlyph@@@@QAE@XZ		; ImVector<ImFontGlyph>::~ImVector<ImFontGlyph>
PUBLIC	??A?$ImVector@UImFontGlyph@@@@QAEAAUImFontGlyph@@H@Z ; ImVector<ImFontGlyph>::operator[]
PUBLIC	?clear@?$ImVector@UImFontGlyph@@@@QAEXXZ	; ImVector<ImFontGlyph>::clear
PUBLIC	?back@?$ImVector@UImFontGlyph@@@@QAEAAUImFontGlyph@@XZ ; ImVector<ImFontGlyph>::back
PUBLIC	?_grow_capacity@?$ImVector@UImFontGlyph@@@@QBEHH@Z ; ImVector<ImFontGlyph>::_grow_capacity
PUBLIC	?resize@?$ImVector@UImFontGlyph@@@@QAEXH@Z	; ImVector<ImFontGlyph>::resize
PUBLIC	?reserve@?$ImVector@UImFontGlyph@@@@QAEXH@Z	; ImVector<ImFontGlyph>::reserve
PUBLIC	??0ImFont@@QAE@XZ				; ImFont::ImFont
PUBLIC	??1ImFont@@QAE@XZ				; ImFont::~ImFont
PUBLIC	?FindGlyph@ImFont@@QBEPBUImFontGlyph@@G@Z	; ImFont::FindGlyph
PUBLIC	?FindGlyphNoFallback@ImFont@@QBEPBUImFontGlyph@@G@Z ; ImFont::FindGlyphNoFallback
PUBLIC	?IsLoaded@ImFont@@QBE_NXZ			; ImFont::IsLoaded
PUBLIC	?CalcTextSizeA@ImFont@@QBE?AUImVec2@@MMMPBD0PAPBD@Z ; ImFont::CalcTextSizeA
PUBLIC	?CalcWordWrapPositionA@ImFont@@QBEPBDMPBD0M@Z	; ImFont::CalcWordWrapPositionA
PUBLIC	?RenderChar@ImFont@@QBEXPAUImDrawList@@MUImVec2@@IG@Z ; ImFont::RenderChar
PUBLIC	?RenderText@ImFont@@QBEXPAUImDrawList@@MUImVec2@@IABUImVec4@@PBD3M_N@Z ; ImFont::RenderText
PUBLIC	?BuildLookupTable@ImFont@@QAEXXZ		; ImFont::BuildLookupTable
PUBLIC	?ClearOutputData@ImFont@@QAEXXZ			; ImFont::ClearOutputData
PUBLIC	?GrowIndex@ImFont@@QAEXH@Z			; ImFont::GrowIndex
PUBLIC	?AddGlyph@ImFont@@QAEXGMMMMMMMMM@Z		; ImFont::AddGlyph
PUBLIC	?AddRemapChar@ImFont@@QAEXGG_N@Z		; ImFont::AddRemapChar
PUBLIC	?SetFallbackChar@ImFont@@QAEXG@Z		; ImFont::SetFallbackChar
PUBLIC	??_GImFont@@QAEPAXI@Z				; ImFont::`scalar deleting destructor'
PUBLIC	_acosf
PUBLIC	_ceilf
PUBLIC	_cosf
PUBLIC	_fabsf
PUBLIC	_floorf
PUBLIC	_sinf
PUBLIC	_sqrtf
PUBLIC	??1?$ImVector@H@@QAE@XZ				; ImVector<int>::~ImVector<int>
PUBLIC	?empty@?$ImVector@H@@QBE_NXZ			; ImVector<int>::empty
PUBLIC	??A?$ImVector@H@@QAEAAHH@Z			; ImVector<int>::operator[]
PUBLIC	??A?$ImVector@H@@QBEABHH@Z			; ImVector<int>::operator[]
PUBLIC	?clear@?$ImVector@H@@QAEXXZ			; ImVector<int>::clear
PUBLIC	?begin@?$ImVector@H@@QBEPBHXZ			; ImVector<int>::begin
PUBLIC	?end@?$ImVector@H@@QBEPBHXZ			; ImVector<int>::end
PUBLIC	?_grow_capacity@?$ImVector@H@@QBEHH@Z		; ImVector<int>::_grow_capacity
PUBLIC	?resize@?$ImVector@H@@QAEXH@Z			; ImVector<int>::resize
PUBLIC	?reserve@?$ImVector@H@@QAEXH@Z			; ImVector<int>::reserve
PUBLIC	?push_back@?$ImVector@H@@QAEXABH@Z		; ImVector<int>::push_back
PUBLIC	?Resize@ImBoolVector@@QAEXH@Z			; ImBoolVector::Resize
PUBLIC	?Clear@ImBoolVector@@QAEXXZ			; ImBoolVector::Clear
PUBLIC	?GetBit@ImBoolVector@@QBE_NH@Z			; ImBoolVector::GetBit
PUBLIC	?SetBit@ImBoolVector@@QAEXH_N@Z			; ImBoolVector::SetBit
PUBLIC	??1ImBoolVector@@QAE@XZ				; ImBoolVector::~ImBoolVector
PUBLIC	??0ImDrawListSharedData@@QAE@XZ			; ImDrawListSharedData::ImDrawListSharedData
PUBLIC	?RenderMouseCursor@ImGui@@YAXPAUImDrawList@@UImVec2@@MHIII@Z ; ImGui::RenderMouseCursor
PUBLIC	?RenderArrowPointingAt@ImGui@@YAXPAUImDrawList@@UImVec2@@1HI@Z ; ImGui::RenderArrowPointingAt
PUBLIC	?RenderRectFilledRangeH@ImGui@@YAXPAUImDrawList@@ABUImRect@@IMMM@Z ; ImGui::RenderRectFilledRangeH
PUBLIC	?ShadeVertsLinearColorGradientKeepAlpha@ImGui@@YAXPAUImDrawList@@HHUImVec2@@1II@Z ; ImGui::ShadeVertsLinearColorGradientKeepAlpha
PUBLIC	?ShadeVertsLinearUV@ImGui@@YAXPAUImDrawList@@HHABUImVec2@@111_N@Z ; ImGui::ShadeVertsLinearUV
PUBLIC	?ImFontAtlasBuildWithStbTruetype@@YA_NPAUImFontAtlas@@@Z ; ImFontAtlasBuildWithStbTruetype
PUBLIC	?ImFontAtlasBuildRegisterDefaultCustomRects@@YAXPAUImFontAtlas@@@Z ; ImFontAtlasBuildRegisterDefaultCustomRects
PUBLIC	?ImFontAtlasBuildSetupFont@@YAXPAUImFontAtlas@@PAUImFont@@PAUImFontConfig@@MM@Z ; ImFontAtlasBuildSetupFont
PUBLIC	?ImFontAtlasBuildPackCustomRects@@YAXPAUImFontAtlas@@PAX@Z ; ImFontAtlasBuildPackCustomRects
PUBLIC	?ImFontAtlasBuildFinish@@YAXPAUImFontAtlas@@@Z	; ImFontAtlasBuildFinish
PUBLIC	?ImFontAtlasBuildMultiplyCalcLookupTable@@YAXQAEM@Z ; ImFontAtlasBuildMultiplyCalcLookupTable
PUBLIC	?ImFontAtlasBuildMultiplyRectAlpha8@@YAXQBEPAEHHHHH@Z ; ImFontAtlasBuildMultiplyRectAlpha8
PUBLIC	??$__builtin_array_init_helper@UImVec2@@@@YAXPAUImVec2@@I@Z ; __builtin_array_init_helper<ImVec2>
PUBLIC	??$IM_DELETE@UImFont@@@@YAXPAUImFont@@@Z	; IM_DELETE<ImFont>
PUBLIC	??1ImFontBuildSrcData@@QAE@XZ			; ImFontBuildSrcData::~ImFontBuildSrcData
PUBLIC	??_GImFontBuildSrcData@@QAEPAXI@Z		; ImFontBuildSrcData::`scalar deleting destructor'
PUBLIC	??0?$ImVector@UImFontBuildSrcData@@@@QAE@XZ	; ImVector<ImFontBuildSrcData>::ImVector<ImFontBuildSrcData>
PUBLIC	??1?$ImVector@UImFontBuildSrcData@@@@QAE@XZ	; ImVector<ImFontBuildSrcData>::~ImVector<ImFontBuildSrcData>
PUBLIC	?size_in_bytes@?$ImVector@UImFontBuildSrcData@@@@QBEHXZ ; ImVector<ImFontBuildSrcData>::size_in_bytes
PUBLIC	??A?$ImVector@UImFontBuildSrcData@@@@QAEAAUImFontBuildSrcData@@H@Z ; ImVector<ImFontBuildSrcData>::operator[]
PUBLIC	?_grow_capacity@?$ImVector@UImFontBuildSrcData@@@@QBEHH@Z ; ImVector<ImFontBuildSrcData>::_grow_capacity
PUBLIC	?resize@?$ImVector@UImFontBuildSrcData@@@@QAEXH@Z ; ImVector<ImFontBuildSrcData>::resize
PUBLIC	?reserve@?$ImVector@UImFontBuildSrcData@@@@QAEXH@Z ; ImVector<ImFontBuildSrcData>::reserve
PUBLIC	??0?$ImVector@UImFontBuildDstData@@@@QAE@XZ	; ImVector<ImFontBuildDstData>::ImVector<ImFontBuildDstData>
PUBLIC	??1?$ImVector@UImFontBuildDstData@@@@QAE@XZ	; ImVector<ImFontBuildDstData>::~ImVector<ImFontBuildDstData>
PUBLIC	?size_in_bytes@?$ImVector@UImFontBuildDstData@@@@QBEHXZ ; ImVector<ImFontBuildDstData>::size_in_bytes
PUBLIC	??A?$ImVector@UImFontBuildDstData@@@@QAEAAUImFontBuildDstData@@H@Z ; ImVector<ImFontBuildDstData>::operator[]
PUBLIC	?clear@?$ImVector@UImFontBuildDstData@@@@QAEXXZ	; ImVector<ImFontBuildDstData>::clear
PUBLIC	?_grow_capacity@?$ImVector@UImFontBuildDstData@@@@QBEHH@Z ; ImVector<ImFontBuildDstData>::_grow_capacity
PUBLIC	?resize@?$ImVector@UImFontBuildDstData@@@@QAEXH@Z ; ImVector<ImFontBuildDstData>::resize
PUBLIC	?reserve@?$ImVector@UImFontBuildDstData@@@@QAEXH@Z ; ImVector<ImFontBuildDstData>::reserve
PUBLIC	??0?$ImVector@Ustbrp_rect@@@@QAE@XZ		; ImVector<stbrp_rect>::ImVector<stbrp_rect>
PUBLIC	??1?$ImVector@Ustbrp_rect@@@@QAE@XZ		; ImVector<stbrp_rect>::~ImVector<stbrp_rect>
PUBLIC	?size_in_bytes@?$ImVector@Ustbrp_rect@@@@QBEHXZ	; ImVector<stbrp_rect>::size_in_bytes
PUBLIC	??A?$ImVector@Ustbrp_rect@@@@QAEAAUstbrp_rect@@H@Z ; ImVector<stbrp_rect>::operator[]
PUBLIC	?clear@?$ImVector@Ustbrp_rect@@@@QAEXXZ		; ImVector<stbrp_rect>::clear
PUBLIC	?_grow_capacity@?$ImVector@Ustbrp_rect@@@@QBEHH@Z ; ImVector<stbrp_rect>::_grow_capacity
PUBLIC	?resize@?$ImVector@Ustbrp_rect@@@@QAEXH@Z	; ImVector<stbrp_rect>::resize
PUBLIC	?reserve@?$ImVector@Ustbrp_rect@@@@QAEXH@Z	; ImVector<stbrp_rect>::reserve
PUBLIC	??0?$ImVector@Ustbtt_packedchar@@@@QAE@XZ	; ImVector<stbtt_packedchar>::ImVector<stbtt_packedchar>
PUBLIC	??1?$ImVector@Ustbtt_packedchar@@@@QAE@XZ	; ImVector<stbtt_packedchar>::~ImVector<stbtt_packedchar>
PUBLIC	?size_in_bytes@?$ImVector@Ustbtt_packedchar@@@@QBEHXZ ; ImVector<stbtt_packedchar>::size_in_bytes
PUBLIC	??A?$ImVector@Ustbtt_packedchar@@@@QAEAAUstbtt_packedchar@@H@Z ; ImVector<stbtt_packedchar>::operator[]
PUBLIC	?_grow_capacity@?$ImVector@Ustbtt_packedchar@@@@QBEHH@Z ; ImVector<stbtt_packedchar>::_grow_capacity
PUBLIC	?resize@?$ImVector@Ustbtt_packedchar@@@@QAEXH@Z	; ImVector<stbtt_packedchar>::resize
PUBLIC	?reserve@?$ImVector@Ustbtt_packedchar@@@@QAEXH@Z ; ImVector<stbtt_packedchar>::reserve
PUBLIC	__JustMyCode_Default
PUBLIC	??_C@_1KC@LHOPDKO@?$AAD?$AA?3?$AA?2?$AAP?$AAr?$AAo?$AAg?$AAr?$AAa?$AAm?$AAm?$AAi?$AAe?$AAr?$AAe@ ; `string'
PUBLIC	??_C@_13COJANIEC@?$AA0@				; `string'
PUBLIC	??_C@_1LE@FGNPCGLM@?$AAD?$AA?3?$AA?2?$AAP?$AAr?$AAo?$AAg?$AAr?$AAa?$AAm?$AAm?$AAi?$AAe?$AAr?$AAe@ ; `string'
PUBLIC	?__LINE__Var@?0??stbrp_init_target@@9@4JA	; `stbrp_init_target'::`1'::__LINE__Var
PUBLIC	??_C@_1EI@NNJKMECF@?$AAw?$AAi?$AAd?$AAt?$AAh?$AA?5?$AA?$DM?$AA?$DN?$AA?5?$AA0?$AAx?$AAf?$AAf?$AAf?$AAf@ ; `string'
PUBLIC	?__LINE__Var@?0??stbrp__skyline_find_min_y@@YAHPAUstbrp_context@@PAUstbrp_node@@HHPAH@Z@4JA ; `stbrp__skyline_find_min_y'::`1'::__LINE__Var
PUBLIC	??_C@_1BO@KBODBKOH@?$AAf?$AAi?$AAr?$AAs?$AAt?$AA?9?$AA?$DO?$AAx?$AA?5?$AA?$DM?$AA?$DN?$AA?5?$AAx?$AA0@ ; `string'
PUBLIC	??_C@_1CG@BDIGDJGP@?$AAn?$AAo?$AAd?$AAe?$AA?9?$AA?$DO?$AAn?$AAe?$AAx?$AAt?$AA?9?$AA?$DO?$AAx?$AA?5?$AA?$DO@ ; `string'
PUBLIC	??_C@_1BM@JHJLEEND@?$AAn?$AAo?$AAd?$AAe?$AA?9?$AA?$DO?$AAx?$AA?5?$AA?$DM?$AA?$DN?$AA?5?$AAx?$AA0@ ; `string'
PUBLIC	?__LINE__Var@?0??stbrp__skyline_find_best_pos@@YA?AUstbrp__findresult@@PAUstbrp_context@@HH@Z@4JA ; `stbrp__skyline_find_best_pos'::`1'::__LINE__Var
PUBLIC	??_C@_1CM@LEHAODMI@?$AAw?$AAi?$AAd?$AAt?$AAh?$AA?5?$AA?$CF?$AA?5?$AAc?$AA?9?$AA?$DO?$AAa?$AAl?$AAi?$AAg@ ; `string'
PUBLIC	??_C@_1BE@MNLKNDNL@?$AAx?$AAp?$AAo?$AAs?$AA?5?$AA?$DO?$AA?$DN?$AA?5?$AA0@ ; `string'
PUBLIC	??_C@_1FA@GPDJEJHP@?$AAn?$AAo?$AAd?$AAe?$AA?9?$AA?$DO?$AAn?$AAe?$AAx?$AAt?$AA?9?$AA?$DO?$AAx?$AA?5?$AA?$DO@ ; `string'
PUBLIC	??_C@_1BI@JNFMLHFF@?$AAy?$AA?5?$AA?$DM?$AA?$DN?$AA?5?$AAb?$AAe?$AAs?$AAt?$AA_?$AAy@ ; `string'
PUBLIC	?__LINE__Var@?0??stbrp__skyline_pack_rectangle@@YA?AUstbrp__findresult@@PAUstbrp_context@@HH@Z@4JA ; `stbrp__skyline_pack_rectangle'::`1'::__LINE__Var
PUBLIC	??_C@_1CM@NCKIDPDA@?$AAc?$AAu?$AAr?$AA?9?$AA?$DO?$AAx?$AA?5?$AA?$DM?$AA?5?$AAc?$AAu?$AAr?$AA?9?$AA?$DO?$AAn@ ; `string'
PUBLIC	??_C@_1BO@NJIDGHPD@?$AAc?$AAu?$AAr?$AA?9?$AA?$DO?$AAn?$AAe?$AAx?$AAt?$AA?5?$AA?$DN?$AA?$DN?$AA?5?$AA0@ ; `string'
PUBLIC	??_C@_1DM@MABMKAHD@?$AAc?$AAo?$AAu?$AAn?$AAt?$AA?5?$AA?$DN?$AA?$DN?$AA?5?$AAc?$AAo?$AAn?$AAt?$AAe?$AAx@ ; `string'
PUBLIC	?__LINE__Var@?0??stbtt__buf_seek@@YAXPAUstbtt__buf@@H@Z@4JA ; `stbtt__buf_seek'::`1'::__LINE__Var
PUBLIC	??_C@_1LE@IHJHACNI@?$AAD?$AA?3?$AA?2?$AAP?$AAr?$AAo?$AAg?$AAr?$AAa?$AAm?$AAm?$AAi?$AAe?$AAr?$AAe@ ; `string'
PUBLIC	??_C@_1DA@CPAEOPEI@?$AA?$CB?$AA?$CI?$AAo?$AA?5?$AA?$DO?$AA?5?$AAb?$AA?9?$AA?$DO?$AAs?$AAi?$AAz?$AAe?$AA?5?$AA?$HM@ ; `string'
PUBLIC	?__LINE__Var@?0??stbtt__buf_get@@YAIPAUstbtt__buf@@H@Z@4JA ; `stbtt__buf_get'::`1'::__LINE__Var
PUBLIC	??_C@_1CC@OMFGMKMB@?$AAn?$AA?5?$AA?$DO?$AA?$DN?$AA?5?$AA1?$AA?5?$AA?$CG?$AA?$CG?$AA?5?$AAn?$AA?5?$AA?$DM?$AA?$DN?$AA?5@ ; `string'
PUBLIC	?__LINE__Var@?0??stbtt__new_buf@@YA?AUstbtt__buf@@PBXI@Z@4JA ; `stbtt__new_buf'::`1'::__LINE__Var
PUBLIC	??_C@_1CE@EPOLDKHI@?$AAs?$AAi?$AAz?$AAe?$AA?5?$AA?$DM?$AA?5?$AA0?$AAx?$AA4?$AA0?$AA0?$AA0?$AA0?$AA0@ ; `string'
PUBLIC	?__LINE__Var@?0??stbtt__cff_get_index@@YA?AUstbtt__buf@@PAU2@@Z@4JA ; `stbtt__cff_get_index'::`1'::__LINE__Var
PUBLIC	??_C@_1DK@IJDIOPHB@?$AAo?$AAf?$AAf?$AAs?$AAi?$AAz?$AAe?$AA?5?$AA?$DO?$AA?$DN?$AA?5?$AA1?$AA?5?$AA?$CG?$AA?$CG@ ; `string'
PUBLIC	?__LINE__Var@?0??stbtt__cff_int@@YAIPAUstbtt__buf@@@Z@4JA ; `stbtt__cff_int'::`1'::__LINE__Var
PUBLIC	?__LINE__Var@?0??stbtt__cff_skip_operand@@YAXPAUstbtt__buf@@@Z@4JA ; `stbtt__cff_skip_operand'::`1'::__LINE__Var
PUBLIC	??_C@_1BC@KDMJFGHG@?$AAb?$AA0?$AA?5?$AA?$DO?$AA?$DN?$AA?5?$AA2?$AA8@ ; `string'
PUBLIC	?__LINE__Var@?0??stbtt__cff_index_get@@YA?AUstbtt__buf@@U2@H@Z@4JA ; `stbtt__cff_index_get'::`1'::__LINE__Var
PUBLIC	??_C@_1CI@PFMEGAIA@?$AAi?$AA?5?$AA?$DO?$AA?$DN?$AA?5?$AA0?$AA?5?$AA?$CG?$AA?$CG?$AA?5?$AAi?$AA?5?$AA?$DM?$AA?5?$AAc@ ; `string'
PUBLIC	??_C@_04LBBEMOBJ@typ1@				; `string'
PUBLIC	??_C@_04LLEFIKCJ@OTTO@				; `string'
PUBLIC	??_C@_04LOAJBDKD@true@				; `string'
PUBLIC	??_C@_04KIOEMAHO@ttcf@				; `string'
PUBLIC	??_C@_04EICJPCEA@cmap@				; `string'
PUBLIC	??_C@_04DACNFKGE@loca@				; `string'
PUBLIC	??_C@_04NEODDMOL@head@				; `string'
PUBLIC	??_C@_04LLIHEPK@glyf@				; `string'
PUBLIC	??_C@_04FMPHLIKP@hhea@				; `string'
PUBLIC	??_C@_04ONMNCIMC@hmtx@				; `string'
PUBLIC	??_C@_04HHMMLDJI@kern@				; `string'
PUBLIC	??_C@_04PCFDEHHD@GPOS@				; `string'
PUBLIC	??_C@_04HJGCPIEK@CFF?5@				; `string'
PUBLIC	??_C@_04KODIGLGG@maxp@				; `string'
PUBLIC	?__LINE__Var@?0??stbtt_FindGlyphIndex@@9@4JA	; `stbtt_FindGlyphIndex'::`1'::__LINE__Var
PUBLIC	??_C@_1HA@EBGBJFDE@?$AAu?$AAn?$AAi?$AAc?$AAo?$AAd?$AAe?$AA_?$AAc?$AAo?$AAd?$AAe?$AAp?$AAo?$AAi@ ; `string'
PUBLIC	?__LINE__Var@?0??stbtt__GetGlyfOffset@@YAHPBUstbtt_fontinfo@@H@Z@4JA ; `stbtt__GetGlyfOffset'::`1'::__LINE__Var
PUBLIC	??_C@_1CA@MDABGEPC@?$AA?$CB?$AAi?$AAn?$AAf?$AAo?$AA?9?$AA?$DO?$AAc?$AAf?$AAf?$AA?4?$AAs?$AAi?$AAz?$AAe@ ; `string'
PUBLIC	?__LINE__Var@?0??stbtt__GetGlyphShapeTT@@YAHPBUstbtt_fontinfo@@HPAPAUstbtt_vertex@@@Z@4JA ; `stbtt__GetGlyphShapeTT'::`1'::__LINE__Var
PUBLIC	?__LINE__Var@?0??stbtt__GetGlyphShapeT2@@YAHPBUstbtt_fontinfo@@HPAPAUstbtt_vertex@@@Z@4JA ; `stbtt__GetGlyphShapeT2'::`1'::__LINE__Var
PUBLIC	??_C@_1GE@KABFAMEA@?$AAo?$AAu?$AAt?$AAp?$AAu?$AAt?$AA_?$AAc?$AAt?$AAx?$AA?4?$AAn?$AAu?$AAm?$AA_@ ; `string'
PUBLIC	?__LINE__Var@?0??stbtt__new_active@@YAPAUstbtt__active_edge@@PAUstbtt__hheap@@PAUstbtt__edge@@HMPAX@Z@4JA ; `stbtt__new_active'::`1'::__LINE__Var
PUBLIC	??_C@_1O@EHPNOHML@?$AAz?$AA?5?$AA?$CB?$AA?$DN?$AA?5?$AA0@ ; `string'
PUBLIC	?__LINE__Var@?0??stbtt__handle_clipped_edge@@YAXPAMHPAUstbtt__active_edge@@MMMM@Z@4JA ; `stbtt__handle_clipped_edge'::`1'::__LINE__Var
PUBLIC	??_C@_1BA@ENLNFFAM@?$AAy?$AA0?$AA?5?$AA?$DM?$AA?5?$AAy?$AA1@ ; `string'
PUBLIC	??_C@_1BO@JGPMADBG@?$AAe?$AA?9?$AA?$DO?$AAs?$AAy?$AA?5?$AA?$DM?$AA?$DN?$AA?5?$AAe?$AA?9?$AA?$DO?$AAe?$AAy@ ; `string'
PUBLIC	??_C@_1BE@DHAKMBPL@?$AAx?$AA1?$AA?5?$AA?$DM?$AA?$DN?$AA?5?$AAx?$AA?$CL?$AA1@ ; `string'
PUBLIC	??_C@_1BA@FAAMJPKE@?$AAx?$AA1?$AA?5?$AA?$DO?$AA?$DN?$AA?5?$AAx@ ; `string'
PUBLIC	??_C@_1BA@FEPJEPJJ@?$AAx?$AA1?$AA?5?$AA?$DM?$AA?$DN?$AA?5?$AAx@ ; `string'
PUBLIC	??_C@_1BE@NGGEAFFG@?$AAx?$AA1?$AA?5?$AA?$DO?$AA?$DN?$AA?5?$AAx?$AA?$CL?$AA1@ ; `string'
PUBLIC	??_C@_1CK@NILBPPPH@?$AAx?$AA1?$AA?5?$AA?$DO?$AA?$DN?$AA?5?$AAx?$AA?5?$AA?$CG?$AA?$CG?$AA?5?$AAx?$AA1?$AA?5?$AA?$DM@ ; `string'
PUBLIC	??_C@_1FK@JPMIPNJF@?$AAx?$AA0?$AA?5?$AA?$DO?$AA?$DN?$AA?5?$AAx?$AA?5?$AA?$CG?$AA?$CG?$AA?5?$AAx?$AA0?$AA?5?$AA?$DM@ ; `string'
PUBLIC	?__LINE__Var@?0??stbtt__fill_active_edges_new@@YAXPAM0HPAUstbtt__active_edge@@M@Z@4JA ; `stbtt__fill_active_edges_new'::`1'::__LINE__Var
PUBLIC	??_C@_1BO@MDBOACOJ@?$AAe?$AA?9?$AA?$DO?$AAe?$AAy?$AA?5?$AA?$DO?$AA?$DN?$AA?5?$AAy?$AA_?$AAt?$AAo?$AAp@ ; `string'
PUBLIC	??_C@_1EI@KOIFPDFH@?$AAe?$AA?9?$AA?$DO?$AAs?$AAy?$AA?5?$AA?$DM?$AA?$DN?$AA?5?$AAy?$AA_?$AAb?$AAo?$AAt?$AAt@ ; `string'
PUBLIC	??_C@_1CE@GDDDMDCC@?$AAx?$AA?5?$AA?$DO?$AA?$DN?$AA?5?$AA0?$AA?5?$AA?$CG?$AA?$CG?$AA?5?$AAx?$AA?5?$AA?$DM?$AA?5?$AAl@ ; `string'
PUBLIC	??_C@_1CM@OJNMKDLP@?$AAI?$AAm?$AAF?$AAa?$AAb?$AAs?$AA?$CI?$AAa?$AAr?$AAe?$AAa?$AA?$CJ?$AA?5?$AA?$DM?$AA?$DN@ ; `string'
PUBLIC	?__LINE__Var@?0??stbtt__rasterize_sorted_edges@@YAXPAUstbtt__bitmap@@PAUstbtt__edge@@HHHHPAX@Z@4JA ; `stbtt__rasterize_sorted_edges'::`1'::__LINE__Var
PUBLIC	??_C@_1BK@LMAHJHLI@?$AAz?$AA?9?$AA?$DO?$AAd?$AAi?$AAr?$AAe?$AAc?$AAt?$AAi?$AAo?$AAn@ ; `string'
PUBLIC	??_C@_1CI@PMJHELI@?$AAz?$AA?9?$AA?$DO?$AAe?$AAy?$AA?5?$AA?$DO?$AA?$DN?$AA?5?$AAs?$AAc?$AAa?$AAn?$AA_?$AAy@ ; `string'
PUBLIC	?__LINE__Var@?0??stbtt__h_prefilter@@YAXPAEHHHI@Z@4JA ; `stbtt__h_prefilter'::`1'::__LINE__Var
PUBLIC	??_C@_1BO@BDJAMAMF@?$AAp?$AAi?$AAx?$AAe?$AAl?$AAs?$AA?$FL?$AAi?$AA?$FN?$AA?5?$AA?$DN?$AA?$DN?$AA?5?$AA0@ ; `string'
PUBLIC	?__LINE__Var@?0??stbtt__v_prefilter@@YAXPAEHHHI@Z@4JA ; `stbtt__v_prefilter'::`1'::__LINE__Var
PUBLIC	??_C@_1DO@LAPBLJ@?$AAp?$AAi?$AAx?$AAe?$AAl?$AAs?$AA?$FL?$AAi?$AA?$CK?$AAs?$AAt?$AAr?$AAi?$AAd?$AAe@ ; `string'
PUBLIC	?__LINE__Var@?0??AddDrawCmd@ImDrawList@@QAEXXZ@4JA ; `ImDrawList::AddDrawCmd'::`1'::__LINE__Var
PUBLIC	??_C@_1LA@MPFJCAF@?$AAD?$AA?3?$AA?2?$AAP?$AAr?$AAo?$AAg?$AAr?$AAa?$AAm?$AAm?$AAi?$AAe?$AAr?$AAe@ ; `string'
PUBLIC	??_C@_1LC@MAEAJCLC@?$AAd?$AAr?$AAa?$AAw?$AA_?$AAc?$AAm?$AAd?$AA?4?$AAC?$AAl?$AAi?$AAp?$AAR?$AAe@ ; `string'
PUBLIC	?__LINE__Var@?0??PopClipRect@ImDrawList@@QAEXXZ@4JA ; `ImDrawList::PopClipRect'::`1'::__LINE__Var
PUBLIC	??_C@_1DA@MJAOFGMF@?$AA_?$AAC?$AAl?$AAi?$AAp?$AAR?$AAe?$AAc?$AAt?$AAS?$AAt?$AAa?$AAc?$AAk?$AA?4@ ; `string'
PUBLIC	?__LINE__Var@?0??PopTextureID@ImDrawList@@QAEXXZ@4JA ; `ImDrawList::PopTextureID'::`1'::__LINE__Var
PUBLIC	??_C@_1DC@CKLENJON@?$AA_?$AAT?$AAe?$AAx?$AAt?$AAu?$AAr?$AAe?$AAI?$AAd?$AAS?$AAt?$AAa?$AAc?$AAk@ ; `string'
PUBLIC	?__LINE__Var@?0??AddText@ImDrawList@@QAEXPBUImFont@@MABUImVec2@@IPBD2MPBUImVec4@@@Z@4JA ; `ImDrawList::AddText'::`1'::__LINE__Var
PUBLIC	??_C@_1GM@DGBHKFGF@?$AAf?$AAo?$AAn?$AAt?$AA?9?$AA?$DO?$AAC?$AAo?$AAn?$AAt?$AAa?$AAi?$AAn?$AAe?$AAr@ ; `string'
PUBLIC	?__LINE__Var@?0??Split@ImDrawListSplitter@@QAEXPAUImDrawList@@H@Z@4JA ; `ImDrawListSplitter::Split'::`1'::__LINE__Var
PUBLIC	??_C@_1DK@EHEALEDG@?$AA_?$AAC?$AAu?$AAr?$AAr?$AAe?$AAn?$AAt?$AA?5?$AA?$DN?$AA?$DN?$AA?5?$AA0?$AA?5?$AA?$CG@ ; `string'
PUBLIC	?__LINE__Var@?0??SetCurrentChannel@ImDrawListSplitter@@QAEXPAUImDrawList@@H@Z@4JA ; `ImDrawListSplitter::SetCurrentChannel'::`1'::__LINE__Var
PUBLIC	??_C@_1DC@ILGGLBID@?$AAi?$AAd?$AAx?$AA?5?$AA?$DO?$AA?$DN?$AA?5?$AA0?$AA?5?$AA?$CG?$AA?$CG?$AA?5?$AAi?$AAd?$AAx@ ; `string'
PUBLIC	?__LINE__Var@?0???1ImFontAtlas@@QAE@XZ@4JA	; `ImFontAtlas::~ImFontAtlas'::`1'::__LINE__Var
PUBLIC	??_C@_0EN@DLIEKEGM@Cannot?5modify?5a?5locked?5ImFontAt@ ; `string'
PUBLIC	??_C@_1LE@PGHOGCJ@?$AA?$CB?$AAL?$AAo?$AAc?$AAk?$AAe?$AAd?$AA?5?$AA?$CG?$AA?$CG?$AA?5?$AA?$CC?$AAC?$AAa?$AAn@ ; `string'
PUBLIC	?__LINE__Var@?0??ClearInputData@ImFontAtlas@@QAEXXZ@4JA ; `ImFontAtlas::ClearInputData'::`1'::__LINE__Var
PUBLIC	?__LINE__Var@?0??ClearTexData@ImFontAtlas@@QAEXXZ@4JA ; `ImFontAtlas::ClearTexData'::`1'::__LINE__Var
PUBLIC	?__LINE__Var@?0??ClearFonts@ImFontAtlas@@QAEXXZ@4JA ; `ImFontAtlas::ClearFonts'::`1'::__LINE__Var
PUBLIC	?__LINE__Var@?0??AddFont@ImFontAtlas@@QAEPAUImFont@@PBUImFontConfig@@@Z@4JA ; `ImFontAtlas::AddFont'::`1'::__LINE__Var
PUBLIC	??_C@_1GM@FAHJAOLI@?$AAf?$AAo?$AAn?$AAt?$AA_?$AAc?$AAf?$AAg?$AA?9?$AA?$DO?$AAF?$AAo?$AAn?$AAt?$AAD@ ; `string'
PUBLIC	??_C@_1DI@LEOIHPJH@?$AAf?$AAo?$AAn?$AAt?$AA_?$AAc?$AAf?$AAg?$AA?9?$AA?$DO?$AAS?$AAi?$AAz?$AAe?$AAP@ ; `string'
PUBLIC	??_C@_0CI@EDBCHFCN@Cannot?5use?5MergeMode?5for?5the?5fi@ ; `string'
PUBLIC	??_C@_1HI@KOOOLAEJ@?$AA?$CB?$AAF?$AAo?$AAn?$AAt?$AAs?$AA?4?$AAe?$AAm?$AAp?$AAt?$AAy?$AA?$CI?$AA?$CJ?$AA?5@ ; `string'
PUBLIC	??_C@_0BG@CONABPA@ProggyClean?4ttf?0?5?$CFdpx@	; `string'
PUBLIC	?__LINE__Var@?0??AddFontFromFileTTF@ImFontAtlas@@QAEPAUImFont@@PBDMPBUImFontConfig@@PBG@Z@4JA ; `ImFontAtlas::AddFontFromFileTTF'::`1'::__LINE__Var
PUBLIC	??_C@_02JDPG@rb@				; `string'
PUBLIC	??_C@_1EG@KCPDJPKE@?$AA?$CI?$AA0?$AA?$CJ?$AA?5?$AA?$CG?$AA?$CG?$AA?5?$AA?$CC?$AAC?$AAo?$AAu?$AAl?$AAd?$AA?5?$AAn@ ; `string'
PUBLIC	??_C@_0L@EPCGLJHG@?$CFs?0?5?$CF?40fpx@		; `string'
PUBLIC	?__LINE__Var@?0??AddFontFromMemoryTTF@ImFontAtlas@@QAEPAUImFont@@PAXHMPBUImFontConfig@@PBG@Z@4JA ; `ImFontAtlas::AddFontFromMemoryTTF'::`1'::__LINE__Var
PUBLIC	??_C@_1CO@ODFMNMML@?$AAf?$AAo?$AAn?$AAt?$AA_?$AAc?$AAf?$AAg?$AA?4?$AAF?$AAo?$AAn?$AAt?$AAD?$AAa@ ; `string'
PUBLIC	?__LINE__Var@?0??AddFontFromMemoryCompressedTTF@ImFontAtlas@@QAEPAUImFont@@PBXHMPBUImFontConfig@@PBG@Z@4JA ; `ImFontAtlas::AddFontFromMemoryCompressedTTF'::`1'::__LINE__Var
PUBLIC	?__LINE__Var@?0??AddCustomRectRegular@ImFontAtlas@@QAEHIHH@Z@4JA ; `ImFontAtlas::AddCustomRectRegular'::`1'::__LINE__Var
PUBLIC	??_C@_1BO@IFEPJNFF@?$AAi?$AAd?$AA?5?$AA?$DO?$AA?$DN?$AA?5?$AA0?$AAx?$AA1?$AA1?$AA0?$AA0?$AA0?$AA0@ ; `string'
PUBLIC	??_C@_1DK@GHLOFHKF@?$AAw?$AAi?$AAd?$AAt?$AAh?$AA?5?$AA?$DO?$AA?5?$AA0?$AA?5?$AA?$CG?$AA?$CG?$AA?5?$AAw?$AAi@ ; `string'
PUBLIC	??_C@_1DO@CAIIJEKF@?$AAh?$AAe?$AAi?$AAg?$AAh?$AAt?$AA?5?$AA?$DO?$AA?5?$AA0?$AA?5?$AA?$CG?$AA?$CG?$AA?5?$AAh@ ; `string'
PUBLIC	?__LINE__Var@?0??AddCustomRectFontGlyph@ImFontAtlas@@QAEHPAUImFont@@GHHMABUImVec2@@@Z@4JA ; `ImFontAtlas::AddCustomRectFontGlyph'::`1'::__LINE__Var
PUBLIC	??_C@_1BE@PBFICKNN@?$AAf?$AAo?$AAn?$AAt?$AA?5?$AA?$CB?$AA?$DN?$AA?5?$AA0@ ; `string'
PUBLIC	?__LINE__Var@?0??CalcCustomRectUV@ImFontAtlas@@QBEXPBUImFontAtlasCustomRect@@PAUImVec2@@1@Z@4JA ; `ImFontAtlas::CalcCustomRectUV'::`1'::__LINE__Var
PUBLIC	??_C@_1DM@CMBJAGBP@?$AAT?$AAe?$AAx?$AAW?$AAi?$AAd?$AAt?$AAh?$AA?5?$AA?$DO?$AA?5?$AA0?$AA?5?$AA?$CG?$AA?$CG@ ; `string'
PUBLIC	??_C@_1CC@DEJIAPCP@?$AAr?$AAe?$AAc?$AAt?$AA?9?$AA?$DO?$AAI?$AAs?$AAP?$AAa?$AAc?$AAk?$AAe?$AAd?$AA?$CI@ ; `string'
PUBLIC	?__LINE__Var@?0??GetMouseCursorTexData@ImFontAtlas@@QAE_NHPAUImVec2@@0QAU3@1@Z@4JA ; `ImFontAtlas::GetMouseCursorTexData'::`1'::__LINE__Var
PUBLIC	??_C@_1CO@OOJMDEAG@?$AAC?$AAu?$AAs?$AAt?$AAo?$AAm?$AAR?$AAe?$AAc?$AAt?$AAI?$AAd?$AAs?$AA?$FL?$AA0@ ; `string'
PUBLIC	??_C@_1EO@NGCKHELE@?$AAr?$AA?4?$AAI?$AAD?$AA?5?$AA?$DN?$AA?$DN?$AA?5?$AAF?$AAO?$AAN?$AAT?$AA_?$AAA?$AAT@ ; `string'
PUBLIC	?__LINE__Var@?0??Build@ImFontAtlas@@QAE_NXZ@4JA	; `ImFontAtlas::Build'::`1'::__LINE__Var
PUBLIC	?__LINE__Var@?0??ImFontAtlasBuildWithStbTruetype@@YA_NPAUImFontAtlas@@@Z@4JA ; `ImFontAtlasBuildWithStbTruetype'::`1'::__LINE__Var
PUBLIC	??_C@_1DG@BBHAKCJP@?$AAa?$AAt?$AAl?$AAa?$AAs?$AA?9?$AA?$DO?$AAC?$AAo?$AAn?$AAf?$AAi?$AAg?$AAD?$AAa@ ; `string'
PUBLIC	??_C@_1KE@NPGLPIC@?$AAc?$AAf?$AAg?$AA?4?$AAD?$AAs?$AAt?$AAF?$AAo?$AAn?$AAt?$AA?5?$AA?$CG?$AA?$CG?$AA?5@ ; `string'
PUBLIC	??_C@_1CO@NKKOCLPN@?$AAs?$AAr?$AAc?$AA_?$AAt?$AAm?$AAp?$AA?4?$AAD?$AAs?$AAt?$AAI?$AAn?$AAd?$AAe@ ; `string'
PUBLIC	??_C@_0DC@IFELKFNN@FontData?5is?5incorrect?0?5or?5FontN@ ; `string'
PUBLIC	??_C@_1JA@MENENCJI@?$AAf?$AAo?$AAn?$AAt?$AA_?$AAo?$AAf?$AAf?$AAs?$AAe?$AAt?$AA?5?$AA?$DO?$AA?$DN?$AA?5@ ; `string'
PUBLIC	??_C@_1FO@GJGKHCEN@?$AAs?$AAr?$AAc?$AA_?$AAt?$AAm?$AAp?$AA?4?$AAG?$AAl?$AAy?$AAp?$AAh?$AAs?$AAL@ ; `string'
PUBLIC	??_C@_1DC@ENBGOGEF@?$AAg?$AAl?$AAy?$AAp?$AAh?$AA_?$AAi?$AAn?$AAd?$AAe?$AAx?$AA_?$AAi?$AAn?$AA_@ ; `string'
PUBLIC	?__LINE__Var@?0??ImFontAtlasBuildPackCustomRects@@YAXPAUImFontAtlas@@PAX@Z@4JA ; `ImFontAtlasBuildPackCustomRects'::`1'::__LINE__Var
PUBLIC	??_C@_1CE@FMMHMDCM@?$AAp?$AAa?$AAc?$AAk?$AA_?$AAc?$AAo?$AAn?$AAt?$AAe?$AAx?$AAt?$AA?5?$AA?$CB?$AA?$DN@ ; `string'
PUBLIC	??_C@_1CK@POMOOFJC@?$AAu?$AAs?$AAe?$AAr?$AA_?$AAr?$AAe?$AAc?$AAt?$AAs?$AA?4?$AAS?$AAi?$AAz?$AAe@ ; `string'
PUBLIC	??_C@_1KE@CBAIECN@?$AAp?$AAa?$AAc?$AAk?$AA_?$AAr?$AAe?$AAc?$AAt?$AAs?$AA?$FL?$AAi?$AA?$FN?$AA?4?$AAw@ ; `string'
PUBLIC	?__LINE__Var@?0??ImFontAtlasBuildRenderDefaultTexData@@YAXPAUImFontAtlas@@@Z@4JA ; `ImFontAtlasBuildRenderDefaultTexData'::`1'::__LINE__Var
PUBLIC	??_C@_1DK@CIPOCJML@?$AAa?$AAt?$AAl?$AAa?$AAs?$AA?9?$AA?$DO?$AAC?$AAu?$AAs?$AAt?$AAo?$AAm?$AAR?$AAe@ ; `string'
PUBLIC	??_C@_1DI@LKIOFBD@?$AAa?$AAt?$AAl?$AAa?$AAs?$AA?9?$AA?$DO?$AAT?$AAe?$AAx?$AAP?$AAi?$AAx?$AAe?$AAl@ ; `string'
PUBLIC	??_C@_1BK@MDHNDFCJ@?$AAr?$AA?4?$AAI?$AAs?$AAP?$AAa?$AAc?$AAk?$AAe?$AAd?$AA?$CI?$AA?$CJ@ ; `string'
PUBLIC	??_C@_1MG@KMJKJDJG@?$AAr?$AA?4?$AAW?$AAi?$AAd?$AAt?$AAh?$AA?5?$AA?$DN?$AA?$DN?$AA?5?$AAF?$AAO?$AAN?$AAT@ ; `string'
PUBLIC	??_C@_1DM@OOPIKMMI@?$AAr?$AA?4?$AAW?$AAi?$AAd?$AAt?$AAh?$AA?5?$AA?$DN?$AA?$DN?$AA?5?$AA2?$AA?5?$AA?$CG?$AA?$CG@ ; `string'
PUBLIC	?__LINE__Var@?0??ImFontAtlasBuildFinish@@YAXPAUImFontAtlas@@@Z@4JA ; `ImFontAtlasBuildFinish'::`1'::__LINE__Var
PUBLIC	??_C@_1EA@GJDLMPMC@?$AAr?$AA?4?$AAF?$AAo?$AAn?$AAt?$AA?9?$AA?$DO?$AAC?$AAo?$AAn?$AAt?$AAa?$AAi?$AAn@ ; `string'
PUBLIC	?__LINE__Var@?0??BuildLookupTable@ImFont@@QAEXXZ@4JA ; `ImFont::BuildLookupTable'::`1'::__LINE__Var
PUBLIC	??_C@_1CK@FHBHHKB@?$AAG?$AAl?$AAy?$AAp?$AAh?$AAs?$AA?4?$AAS?$AAi?$AAz?$AAe?$AA?5?$AA?$DM?$AA?5?$AA0@ ; `string'
PUBLIC	?__LINE__Var@?0??GrowIndex@ImFont@@QAEXH@Z@4JA	; `ImFont::GrowIndex'::`1'::__LINE__Var
PUBLIC	??_C@_1EO@HLFAHELG@?$AAI?$AAn?$AAd?$AAe?$AAx?$AAA?$AAd?$AAv?$AAa?$AAn?$AAc?$AAe?$AAX?$AA?4?$AAS@ ; `string'
PUBLIC	?__LINE__Var@?0??AddRemapChar@ImFont@@QAEXGG_N@Z@4JA ; `ImFont::AddRemapChar'::`1'::__LINE__Var
PUBLIC	??_C@_1CK@OHOOGJPG@?$AAI?$AAn?$AAd?$AAe?$AAx?$AAL?$AAo?$AAo?$AAk?$AAu?$AAp?$AA?4?$AAS?$AAi?$AAz@ ; `string'
PUBLIC	?__LINE__Var@?0??RenderMouseCursor@ImGui@@YAXPAUImDrawList@@UImVec2@@MHIII@Z@4JA ; `ImGui::RenderMouseCursor'::`1'::__LINE__Var
PUBLIC	??_C@_1JM@LKKCKIOL@?$AAm?$AAo?$AAu?$AAs?$AAe?$AA_?$AAc?$AAu?$AAr?$AAs?$AAo?$AAr?$AA?5?$AA?$DO?$AA?5@ ; `string'
PUBLIC	?__LINE__Var@?0??stb__match@@YAXPBEI@Z@4JA	; `stb__match'::`1'::__LINE__Var
PUBLIC	??_C@_1FC@IADGHEAH@?$AAs?$AAt?$AAb?$AA_?$AA_?$AAd?$AAo?$AAu?$AAt?$AA?5?$AA?$CL?$AA?5?$AAl?$AAe?$AAn@ ; `string'
PUBLIC	?__LINE__Var@?0??stb__lit@@YAXPBEI@Z@4JA	; `stb__lit'::`1'::__LINE__Var
PUBLIC	?__LINE__Var@?0??stb_decompress@@YAIPAEPBEI@Z@4JA ; `stb_decompress'::`1'::__LINE__Var
PUBLIC	??_C@_1DG@GCANDLHA@?$AAs?$AAt?$AAb?$AA_?$AA_?$AAd?$AAo?$AAu?$AAt?$AA?5?$AA?$DN?$AA?$DN?$AA?5?$AAo?$AAu@ ; `string'
PUBLIC	??_C@_1DG@EGIPGKEG@?$AAs?$AAt?$AAb?$AA_?$AA_?$AAd?$AAo?$AAu?$AAt?$AA?5?$AA?$DM?$AA?$DN?$AA?5?$AAo?$AAu@ ; `string'
PUBLIC	??_C@_1BC@DCMHDKFO@?$AAi?$AA?5?$AA?$DM?$AA?5?$AAS?$AAi?$AAz?$AAe@ ; `string'
PUBLIC	??_C@_1BC@KCECIPDP@?$AAS?$AAi?$AAz?$AAe?$AA?5?$AA?$DO?$AA?5?$AA0@ ; `string'
PUBLIC	??_C@_1CC@BPLGCGDC@?$AAn?$AAe?$AAw?$AA_?$AAs?$AAi?$AAz?$AAe?$AA?5?$AA?$DM?$AA?$DN?$AA?5?$AAS?$AAi?$AAz@ ; `string'
PUBLIC	??_C@_1DK@JJGEFOJO@?$AAi?$AAt?$AA?5?$AA?$DO?$AA?$DN?$AA?5?$AAD?$AAa?$AAt?$AAa?$AA?5?$AA?$CG?$AA?$CG?$AA?5?$AAi@ ; `string'
PUBLIC	__real@00000000
PUBLIC	__real@3ca3d70a
PUBLIC	__real@3d23d70a
PUBLIC	__real@3d75c28f
PUBLIC	__real@3da3d70a
PUBLIC	__real@3dcccccd
PUBLIC	__real@3de147ae
PUBLIC	__real@3e0f5c29
PUBLIC	__real@3e23d70a
PUBLIC	__real@3e4ccccd
PUBLIC	__real@3e75c28f
PUBLIC	__real@3e800000
PUBLIC	__real@3e851eb8
PUBLIC	__real@3e8a3d71
PUBLIC	__real@3e947ae1
PUBLIC	__real@3e99999a
PUBLIC	__real@3e9eb852
PUBLIC	__real@3ea3d70a
PUBLIC	__real@3eb33333
PUBLIC	__real@3ec7ae14
PUBLIC	__real@3ecccccd
PUBLIC	__real@3ed1eb85
PUBLIC	__real@3ed70a3d
PUBLIC	__real@3edc28f6
PUBLIC	__real@3ee147ae
PUBLIC	__real@3ee66666
PUBLIC	__real@3eeb851f
PUBLIC	__real@3ef0a3d7
PUBLIC	__real@3ef5c28f
PUBLIC	__real@3efae148
PUBLIC	__real@3f000000
PUBLIC	__real@3f028f5c
PUBLIC	__real@3f051eb8
PUBLIC	__real@3f07ae14
PUBLIC	__real@3f0a3d71
PUBLIC	__real@3f0ccccd
PUBLIC	__real@3f0f5c29
PUBLIC	__real@3f170a3d
PUBLIC	__real@3f19999a
PUBLIC	__real@3f1c28f6
PUBLIC	__real@3f1eb852
PUBLIC	__real@3f2147ae
PUBLIC	__real@3f23d70a
PUBLIC	__real@3f2b851f
PUBLIC	__real@3f30a3d7
PUBLIC	__real@3f333333
PUBLIC	__real@3f35c28f
PUBLIC	__real@3f400000
PUBLIC	__real@3f47ae14
PUBLIC	__real@3f4a3d71
PUBLIC	__real@3f4ccccd
PUBLIC	__real@3f51eb85
PUBLIC	__real@3f547ae1
PUBLIC	__real@3f5c28f6
PUBLIC	__real@3f5eb852
PUBLIC	__real@3f6147ae
PUBLIC	__real@3f666666
PUBLIC	__real@3f6b851f
PUBLIC	__real@3f70a3d7
PUBLIC	__real@3f733333
PUBLIC	__real@3f75c28f
PUBLIC	__real@3f7ae148
PUBLIC	__real@3f800000
PUBLIC	__real@3f8147ae
PUBLIC	__real@3fc90fdb
PUBLIC	__real@3ffeb852
PUBLIC	__real@40000000
PUBLIC	__real@40400000
PUBLIC	__real@40490fdb
PUBLIC	__real@40800000
PUBLIC	__real@40a00000
PUBLIC	__real@40c90fdb
PUBLIC	__real@40e00000
PUBLIC	__real@41000000
PUBLIC	__real@41100000
PUBLIC	__real@41300000
PUBLIC	__real@41400000
PUBLIC	__real@41500000
PUBLIC	__real@41800000
PUBLIC	__real@41880000
PUBLIC	__real@41900000
PUBLIC	__real@41980000
PUBLIC	__real@41a80000
PUBLIC	__real@41b00000
PUBLIC	__real@41b80000
PUBLIC	__real@41f80000
PUBLIC	__real@425c0000
PUBLIC	__real@42920000
PUBLIC	__real@42b60000
PUBLIC	__real@42da0000
PUBLIC	__real@437f0000
PUBLIC	__real@44333333
PUBLIC	__real@44b33333
PUBLIC	__real@45333333
PUBLIC	__real@46000000
PUBLIC	__real@46800000
PUBLIC	__real@47800000
PUBLIC	__real@7f7fffff
PUBLIC	__real@bf800000
PUBLIC	__real@c6000000
PUBLIC	__xmm@41f00000000000000000000000000000
PUBLIC	__xmm@80000000800000008000000080000000
EXTRN	??3@YAXPAXI@Z:PROC				; operator delete
EXTRN	_memchr:PROC
EXTRN	_memcmp:PROC
EXTRN	_memcpy:PROC
EXTRN	_memmove:PROC
EXTRN	_memset:PROC
EXTRN	_strlen:PROC
EXTRN	__imp___wassert:PROC
EXTRN	?GetStyle@ImGui@@YAAAUImGuiStyle@@XZ:PROC	; ImGui::GetStyle
EXTRN	?MemAlloc@ImGui@@YAPAXI@Z:PROC			; ImGui::MemAlloc
EXTRN	?MemFree@ImGui@@YAXPAX@Z:PROC			; ImGui::MemFree
EXTRN	__imp__qsort:PROC
EXTRN	_acos:PROC
EXTRN	_cos:PROC
EXTRN	_fabs:PROC
EXTRN	_sin:PROC
EXTRN	_sqrt:PROC
EXTRN	__imp__ceil:PROC
EXTRN	__imp__floor:PROC
EXTRN	?ImFormatString@@YAHPADIPBDZZ:PROC		; ImFormatString
EXTRN	?ImTextCharFromUtf8@@YAHPAIPBD1@Z:PROC		; ImTextCharFromUtf8
EXTRN	?ImFileLoadToMemory@@YAPAXPBD0PAIH@Z:PROC	; ImFileLoadToMemory
EXTRN	@_RTC_AllocaHelper@12:PROC
EXTRN	@_RTC_CheckStackVars2@12:PROC
EXTRN	@_RTC_CheckStackVars@8:PROC
EXTRN	@__CheckForDebuggerJustMyCode@4:PROC
EXTRN	@__security_check_cookie@4:PROC
EXTRN	__RTC_CheckEsp:PROC
EXTRN	__RTC_InitBase:PROC
EXTRN	__RTC_Shutdown:PROC
EXTRN	___CxxFrameHandler3:PROC
EXTRN	__alloca_probe_16:PROC
EXTRN	__ftol2_sse:PROC
EXTRN	__ftoui3:PROC
EXTRN	_memset:PROC
EXTRN	___security_cookie:DWORD
EXTRN	__fltused:DWORD
_BSS	SEGMENT
?FONT_ATLAS_DEFAULT_TEX_CURSOR_DATA@@3QAY02$$CBUImVec2@@A DQ 01bH DUP (?) ; FONT_ATLAS_DEFAULT_TEX_CURSOR_DATA
?full_ranges@?1??GetGlyphRangesChineseSimplifiedCommon@ImFontAtlas@@QAEPBGXZ@4PAGA DW 01393H DUP (?) ; `ImFontAtlas::GetGlyphRangesChineseSimplifiedCommon'::`2'::full_ranges
	ALIGN	4

?full_ranges@?1??GetGlyphRangesJapanese@ImFontAtlas@@QAEPBGXZ@4PAGA DW 0f3dH DUP (?) ; `ImFontAtlas::GetGlyphRangesJapanese'::`2'::full_ranges
	ALIGN	4

?stb__barrier_out_e@@3PAEA DD 01H DUP (?)		; stb__barrier_out_e
?stb__barrier_out_b@@3PAEA DD 01H DUP (?)		; stb__barrier_out_b
?stb__barrier_in_b@@3PBEB DD 01H DUP (?)		; stb__barrier_in_b
?stb__dout@@3PAEA DD 01H DUP (?)			; stb__dout
_BSS	ENDS
CRT$XCU	SEGMENT
?FONT_ATLAS_DEFAULT_TEX_CURSOR_DATA$initializer$@@3P6AXXZA DD FLAT:??__EFONT_ATLAS_DEFAULT_TEX_CURSOR_DATA@@YAXXZ ; FONT_ATLAS_DEFAULT_TEX_CURSOR_DATA$initializer$
CRT$XCU	ENDS
;	COMDAT __xmm@80000000800000008000000080000000
CONST	SEGMENT
__xmm@80000000800000008000000080000000 DB 00H, 00H, 00H, 080H, 00H, 00H, 00H
	DB	080H, 00H, 00H, 00H, 080H, 00H, 00H, 00H, 080H
CONST	ENDS
;	COMDAT __xmm@41f00000000000000000000000000000
CONST	SEGMENT
__xmm@41f00000000000000000000000000000 DB 00H, 00H, 00H, 00H, 00H, 00H, 00H
	DB	00H, 00H, 00H, 00H, 00H, 00H, 00H, 0f0H, 'A'
CONST	ENDS
;	COMDAT __real@c6000000
CONST	SEGMENT
__real@c6000000 DD 0c6000000r			; -8192
CONST	ENDS
;	COMDAT __real@bf800000
CONST	SEGMENT
__real@bf800000 DD 0bf800000r			; -1
CONST	ENDS
;	COMDAT __real@7f7fffff
CONST	SEGMENT
__real@7f7fffff DD 07f7fffffr			; 3.40282e+38
CONST	ENDS
;	COMDAT __real@47800000
CONST	SEGMENT
__real@47800000 DD 047800000r			; 65536
CONST	ENDS
;	COMDAT __real@46800000
CONST	SEGMENT
__real@46800000 DD 046800000r			; 16384
CONST	ENDS
;	COMDAT __real@46000000
CONST	SEGMENT
__real@46000000 DD 046000000r			; 8192
CONST	ENDS
;	COMDAT __real@45333333
CONST	SEGMENT
__real@45333333 DD 045333333r			; 2867.2
CONST	ENDS
;	COMDAT __real@44b33333
CONST	SEGMENT
__real@44b33333 DD 044b33333r			; 1433.6
CONST	ENDS
;	COMDAT __real@44333333
CONST	SEGMENT
__real@44333333 DD 044333333r			; 716.8
CONST	ENDS
;	COMDAT __real@437f0000
CONST	SEGMENT
__real@437f0000 DD 0437f0000r			; 255
CONST	ENDS
;	COMDAT __real@42da0000
CONST	SEGMENT
__real@42da0000 DD 042da0000r			; 109
CONST	ENDS
;	COMDAT __real@42b60000
CONST	SEGMENT
__real@42b60000 DD 042b60000r			; 91
CONST	ENDS
;	COMDAT __real@42920000
CONST	SEGMENT
__real@42920000 DD 042920000r			; 73
CONST	ENDS
;	COMDAT __real@425c0000
CONST	SEGMENT
__real@425c0000 DD 0425c0000r			; 55
CONST	ENDS
;	COMDAT __real@41f80000
CONST	SEGMENT
__real@41f80000 DD 041f80000r			; 31
CONST	ENDS
;	COMDAT __real@41b80000
CONST	SEGMENT
__real@41b80000 DD 041b80000r			; 23
CONST	ENDS
;	COMDAT __real@41b00000
CONST	SEGMENT
__real@41b00000 DD 041b00000r			; 22
CONST	ENDS
;	COMDAT __real@41a80000
CONST	SEGMENT
__real@41a80000 DD 041a80000r			; 21
CONST	ENDS
;	COMDAT __real@41980000
CONST	SEGMENT
__real@41980000 DD 041980000r			; 19
CONST	ENDS
;	COMDAT __real@41900000
CONST	SEGMENT
__real@41900000 DD 041900000r			; 18
CONST	ENDS
;	COMDAT __real@41880000
CONST	SEGMENT
__real@41880000 DD 041880000r			; 17
CONST	ENDS
;	COMDAT __real@41800000
CONST	SEGMENT
__real@41800000 DD 041800000r			; 16
CONST	ENDS
;	COMDAT __real@41500000
CONST	SEGMENT
__real@41500000 DD 041500000r			; 13
CONST	ENDS
;	COMDAT __real@41400000
CONST	SEGMENT
__real@41400000 DD 041400000r			; 12
CONST	ENDS
;	COMDAT __real@41300000
CONST	SEGMENT
__real@41300000 DD 041300000r			; 11
CONST	ENDS
;	COMDAT __real@41100000
CONST	SEGMENT
__real@41100000 DD 041100000r			; 9
CONST	ENDS
;	COMDAT __real@41000000
CONST	SEGMENT
__real@41000000 DD 041000000r			; 8
CONST	ENDS
;	COMDAT __real@40e00000
CONST	SEGMENT
__real@40e00000 DD 040e00000r			; 7
CONST	ENDS
;	COMDAT __real@40c90fdb
CONST	SEGMENT
__real@40c90fdb DD 040c90fdbr			; 6.28319
CONST	ENDS
;	COMDAT __real@40a00000
CONST	SEGMENT
__real@40a00000 DD 040a00000r			; 5
CONST	ENDS
;	COMDAT __real@40800000
CONST	SEGMENT
__real@40800000 DD 040800000r			; 4
CONST	ENDS
;	COMDAT __real@40490fdb
CONST	SEGMENT
__real@40490fdb DD 040490fdbr			; 3.14159
CONST	ENDS
;	COMDAT __real@40400000
CONST	SEGMENT
__real@40400000 DD 040400000r			; 3
CONST	ENDS
;	COMDAT __real@40000000
CONST	SEGMENT
__real@40000000 DD 040000000r			; 2
CONST	ENDS
;	COMDAT __real@3ffeb852
CONST	SEGMENT
__real@3ffeb852 DD 03ffeb852r			; 1.99
CONST	ENDS
;	COMDAT __real@3fc90fdb
CONST	SEGMENT
__real@3fc90fdb DD 03fc90fdbr			; 1.5708
CONST	ENDS
;	COMDAT __real@3f8147ae
CONST	SEGMENT
__real@3f8147ae DD 03f8147aer			; 1.01
CONST	ENDS
;	COMDAT __real@3f800000
CONST	SEGMENT
__real@3f800000 DD 03f800000r			; 1
CONST	ENDS
;	COMDAT __real@3f7ae148
CONST	SEGMENT
__real@3f7ae148 DD 03f7ae148r			; 0.98
CONST	ENDS
;	COMDAT __real@3f75c28f
CONST	SEGMENT
__real@3f75c28f DD 03f75c28fr			; 0.96
CONST	ENDS
;	COMDAT __real@3f733333
CONST	SEGMENT
__real@3f733333 DD 03f733333r			; 0.95
CONST	ENDS
;	COMDAT __real@3f70a3d7
CONST	SEGMENT
__real@3f70a3d7 DD 03f70a3d7r			; 0.94
CONST	ENDS
;	COMDAT __real@3f6b851f
CONST	SEGMENT
__real@3f6b851f DD 03f6b851fr			; 0.92
CONST	ENDS
;	COMDAT __real@3f666666
CONST	SEGMENT
__real@3f666666 DD 03f666666r			; 0.9
CONST	ENDS
;	COMDAT __real@3f6147ae
CONST	SEGMENT
__real@3f6147ae DD 03f6147aer			; 0.88
CONST	ENDS
;	COMDAT __real@3f5eb852
CONST	SEGMENT
__real@3f5eb852 DD 03f5eb852r			; 0.87
CONST	ENDS
;	COMDAT __real@3f5c28f6
CONST	SEGMENT
__real@3f5c28f6 DD 03f5c28f6r			; 0.86
CONST	ENDS
;	COMDAT __real@3f547ae1
CONST	SEGMENT
__real@3f547ae1 DD 03f547ae1r			; 0.83
CONST	ENDS
;	COMDAT __real@3f51eb85
CONST	SEGMENT
__real@3f51eb85 DD 03f51eb85r			; 0.82
CONST	ENDS
;	COMDAT __real@3f4ccccd
CONST	SEGMENT
__real@3f4ccccd DD 03f4ccccdr			; 0.8
CONST	ENDS
;	COMDAT __real@3f4a3d71
CONST	SEGMENT
__real@3f4a3d71 DD 03f4a3d71r			; 0.79
CONST	ENDS
;	COMDAT __real@3f47ae14
CONST	SEGMENT
__real@3f47ae14 DD 03f47ae14r			; 0.78
CONST	ENDS
;	COMDAT __real@3f400000
CONST	SEGMENT
__real@3f400000 DD 03f400000r			; 0.75
CONST	ENDS
;	COMDAT __real@3f35c28f
CONST	SEGMENT
__real@3f35c28f DD 03f35c28fr			; 0.71
CONST	ENDS
;	COMDAT __real@3f333333
CONST	SEGMENT
__real@3f333333 DD 03f333333r			; 0.7
CONST	ENDS
;	COMDAT __real@3f30a3d7
CONST	SEGMENT
__real@3f30a3d7 DD 03f30a3d7r			; 0.69
CONST	ENDS
;	COMDAT __real@3f2b851f
CONST	SEGMENT
__real@3f2b851f DD 03f2b851fr			; 0.67
CONST	ENDS
;	COMDAT __real@3f23d70a
CONST	SEGMENT
__real@3f23d70a DD 03f23d70ar			; 0.64
CONST	ENDS
;	COMDAT __real@3f2147ae
CONST	SEGMENT
__real@3f2147ae DD 03f2147aer			; 0.63
CONST	ENDS
;	COMDAT __real@3f1eb852
CONST	SEGMENT
__real@3f1eb852 DD 03f1eb852r			; 0.62
CONST	ENDS
;	COMDAT __real@3f1c28f6
CONST	SEGMENT
__real@3f1c28f6 DD 03f1c28f6r			; 0.61
CONST	ENDS
;	COMDAT __real@3f19999a
CONST	SEGMENT
__real@3f19999a DD 03f19999ar			; 0.6
CONST	ENDS
;	COMDAT __real@3f170a3d
CONST	SEGMENT
__real@3f170a3d DD 03f170a3dr			; 0.59
CONST	ENDS
;	COMDAT __real@3f0f5c29
CONST	SEGMENT
__real@3f0f5c29 DD 03f0f5c29r			; 0.56
CONST	ENDS
;	COMDAT __real@3f0ccccd
CONST	SEGMENT
__real@3f0ccccd DD 03f0ccccdr			; 0.55
CONST	ENDS
;	COMDAT __real@3f0a3d71
CONST	SEGMENT
__real@3f0a3d71 DD 03f0a3d71r			; 0.54
CONST	ENDS
;	COMDAT __real@3f07ae14
CONST	SEGMENT
__real@3f07ae14 DD 03f07ae14r			; 0.53
CONST	ENDS
;	COMDAT __real@3f051eb8
CONST	SEGMENT
__real@3f051eb8 DD 03f051eb8r			; 0.52
CONST	ENDS
;	COMDAT __real@3f028f5c
CONST	SEGMENT
__real@3f028f5c DD 03f028f5cr			; 0.51
CONST	ENDS
;	COMDAT __real@3f000000
CONST	SEGMENT
__real@3f000000 DD 03f000000r			; 0.5
CONST	ENDS
;	COMDAT __real@3efae148
CONST	SEGMENT
__real@3efae148 DD 03efae148r			; 0.49
CONST	ENDS
;	COMDAT __real@3ef5c28f
CONST	SEGMENT
__real@3ef5c28f DD 03ef5c28fr			; 0.48
CONST	ENDS
;	COMDAT __real@3ef0a3d7
CONST	SEGMENT
__real@3ef0a3d7 DD 03ef0a3d7r			; 0.47
CONST	ENDS
;	COMDAT __real@3eeb851f
CONST	SEGMENT
__real@3eeb851f DD 03eeb851fr			; 0.46
CONST	ENDS
;	COMDAT __real@3ee66666
CONST	SEGMENT
__real@3ee66666 DD 03ee66666r			; 0.45
CONST	ENDS
;	COMDAT __real@3ee147ae
CONST	SEGMENT
__real@3ee147ae DD 03ee147aer			; 0.44
CONST	ENDS
;	COMDAT __real@3edc28f6
CONST	SEGMENT
__real@3edc28f6 DD 03edc28f6r			; 0.43
CONST	ENDS
;	COMDAT __real@3ed70a3d
CONST	SEGMENT
__real@3ed70a3d DD 03ed70a3dr			; 0.42
CONST	ENDS
;	COMDAT __real@3ed1eb85
CONST	SEGMENT
__real@3ed1eb85 DD 03ed1eb85r			; 0.41
CONST	ENDS
;	COMDAT __real@3ecccccd
CONST	SEGMENT
__real@3ecccccd DD 03ecccccdr			; 0.4
CONST	ENDS
;	COMDAT __real@3ec7ae14
CONST	SEGMENT
__real@3ec7ae14 DD 03ec7ae14r			; 0.39
CONST	ENDS
;	COMDAT __real@3eb33333
CONST	SEGMENT
__real@3eb33333 DD 03eb33333r			; 0.35
CONST	ENDS
;	COMDAT __real@3ea3d70a
CONST	SEGMENT
__real@3ea3d70a DD 03ea3d70ar			; 0.32
CONST	ENDS
;	COMDAT __real@3e9eb852
CONST	SEGMENT
__real@3e9eb852 DD 03e9eb852r			; 0.31
CONST	ENDS
;	COMDAT __real@3e99999a
CONST	SEGMENT
__real@3e99999a DD 03e99999ar			; 0.3
CONST	ENDS
;	COMDAT __real@3e947ae1
CONST	SEGMENT
__real@3e947ae1 DD 03e947ae1r			; 0.29
CONST	ENDS
;	COMDAT __real@3e8a3d71
CONST	SEGMENT
__real@3e8a3d71 DD 03e8a3d71r			; 0.27
CONST	ENDS
;	COMDAT __real@3e851eb8
CONST	SEGMENT
__real@3e851eb8 DD 03e851eb8r			; 0.26
CONST	ENDS
;	COMDAT __real@3e800000
CONST	SEGMENT
__real@3e800000 DD 03e800000r			; 0.25
CONST	ENDS
;	COMDAT __real@3e75c28f
CONST	SEGMENT
__real@3e75c28f DD 03e75c28fr			; 0.24
CONST	ENDS
;	COMDAT __real@3e4ccccd
CONST	SEGMENT
__real@3e4ccccd DD 03e4ccccdr			; 0.2
CONST	ENDS
;	COMDAT __real@3e23d70a
CONST	SEGMENT
__real@3e23d70a DD 03e23d70ar			; 0.16
CONST	ENDS
;	COMDAT __real@3e0f5c29
CONST	SEGMENT
__real@3e0f5c29 DD 03e0f5c29r			; 0.14
CONST	ENDS
;	COMDAT __real@3de147ae
CONST	SEGMENT
__real@3de147ae DD 03de147aer			; 0.11
CONST	ENDS
;	COMDAT __real@3dcccccd
CONST	SEGMENT
__real@3dcccccd DD 03dcccccdr			; 0.1
CONST	ENDS
;	COMDAT __real@3da3d70a
CONST	SEGMENT
__real@3da3d70a DD 03da3d70ar			; 0.08
CONST	ENDS
;	COMDAT __real@3d75c28f
CONST	SEGMENT
__real@3d75c28f DD 03d75c28fr			; 0.06
CONST	ENDS
;	COMDAT __real@3d23d70a
CONST	SEGMENT
__real@3d23d70a DD 03d23d70ar			; 0.04
CONST	ENDS
;	COMDAT __real@3ca3d70a
CONST	SEGMENT
__real@3ca3d70a DD 03ca3d70ar			; 0.02
CONST	ENDS
;	COMDAT __real@00000000
CONST	SEGMENT
__real@00000000 DD 000000000r			; 0
CONST	ENDS
;	COMDAT rtc$TMZ
rtc$TMZ	SEGMENT
__RTC_Shutdown.rtc$TMZ DD FLAT:__RTC_Shutdown
rtc$TMZ	ENDS
;	COMDAT rtc$IMZ
rtc$IMZ	SEGMENT
__RTC_InitBase.rtc$IMZ DD FLAT:__RTC_InitBase
rtc$IMZ	ENDS
;	COMDAT ??_C@_1DK@JJGEFOJO@?$AAi?$AAt?$AA?5?$AA?$DO?$AA?$DN?$AA?5?$AAD?$AAa?$AAt?$AAa?$AA?5?$AA?$CG?$AA?$CG?$AA?5?$AAi@
CONST	SEGMENT
??_C@_1DK@JJGEFOJO@?$AAi?$AAt?$AA?5?$AA?$DO?$AA?$DN?$AA?5?$AAD?$AAa?$AAt?$AAa?$AA?5?$AA?$CG?$AA?$CG?$AA?5?$AAi@ DB 'i'
	DB	00H, 't', 00H, ' ', 00H, '>', 00H, '=', 00H, ' ', 00H, 'D', 00H
	DB	'a', 00H, 't', 00H, 'a', 00H, ' ', 00H, '&', 00H, '&', 00H, ' '
	DB	00H, 'i', 00H, 't', 00H, ' ', 00H, '<', 00H, ' ', 00H, 'D', 00H
	DB	'a', 00H, 't', 00H, 'a', 00H, '+', 00H, 'S', 00H, 'i', 00H, 'z'
	DB	00H, 'e', 00H, 00H, 00H			; `string'
CONST	ENDS
;	COMDAT ??_C@_1CC@BPLGCGDC@?$AAn?$AAe?$AAw?$AA_?$AAs?$AAi?$AAz?$AAe?$AA?5?$AA?$DM?$AA?$DN?$AA?5?$AAS?$AAi?$AAz@
CONST	SEGMENT
??_C@_1CC@BPLGCGDC@?$AAn?$AAe?$AAw?$AA_?$AAs?$AAi?$AAz?$AAe?$AA?5?$AA?$DM?$AA?$DN?$AA?5?$AAS?$AAi?$AAz@ DB 'n'
	DB	00H, 'e', 00H, 'w', 00H, '_', 00H, 's', 00H, 'i', 00H, 'z', 00H
	DB	'e', 00H, ' ', 00H, '<', 00H, '=', 00H, ' ', 00H, 'S', 00H, 'i'
	DB	00H, 'z', 00H, 'e', 00H, 00H, 00H		; `string'
CONST	ENDS
;	COMDAT ??_C@_1BC@KCECIPDP@?$AAS?$AAi?$AAz?$AAe?$AA?5?$AA?$DO?$AA?5?$AA0@
CONST	SEGMENT
??_C@_1BC@KCECIPDP@?$AAS?$AAi?$AAz?$AAe?$AA?5?$AA?$DO?$AA?5?$AA0@ DB 'S', 00H
	DB	'i', 00H, 'z', 00H, 'e', 00H, ' ', 00H, '>', 00H, ' ', 00H, '0'
	DB	00H, 00H, 00H				; `string'
CONST	ENDS
;	COMDAT ??_C@_1BC@DCMHDKFO@?$AAi?$AA?5?$AA?$DM?$AA?5?$AAS?$AAi?$AAz?$AAe@
CONST	SEGMENT
??_C@_1BC@DCMHDKFO@?$AAi?$AA?5?$AA?$DM?$AA?5?$AAS?$AAi?$AAz?$AAe@ DB 'i', 00H
	DB	' ', 00H, '<', 00H, ' ', 00H, 'S', 00H, 'i', 00H, 'z', 00H, 'e'
	DB	00H, 00H, 00H				; `string'
CONST	ENDS
;	COMDAT ??_C@_1DG@EGIPGKEG@?$AAs?$AAt?$AAb?$AA_?$AA_?$AAd?$AAo?$AAu?$AAt?$AA?5?$AA?$DM?$AA?$DN?$AA?5?$AAo?$AAu@
CONST	SEGMENT
??_C@_1DG@EGIPGKEG@?$AAs?$AAt?$AAb?$AA_?$AA_?$AAd?$AAo?$AAu?$AAt?$AA?5?$AA?$DM?$AA?$DN?$AA?5?$AAo?$AAu@ DB 's'
	DB	00H, 't', 00H, 'b', 00H, '_', 00H, '_', 00H, 'd', 00H, 'o', 00H
	DB	'u', 00H, 't', 00H, ' ', 00H, '<', 00H, '=', 00H, ' ', 00H, 'o'
	DB	00H, 'u', 00H, 't', 00H, 'p', 00H, 'u', 00H, 't', 00H, ' ', 00H
	DB	'+', 00H, ' ', 00H, 'o', 00H, 'l', 00H, 'e', 00H, 'n', 00H, 00H
	DB	00H						; `string'
CONST	ENDS
;	COMDAT ??_C@_1DG@GCANDLHA@?$AAs?$AAt?$AAb?$AA_?$AA_?$AAd?$AAo?$AAu?$AAt?$AA?5?$AA?$DN?$AA?$DN?$AA?5?$AAo?$AAu@
CONST	SEGMENT
??_C@_1DG@GCANDLHA@?$AAs?$AAt?$AAb?$AA_?$AA_?$AAd?$AAo?$AAu?$AAt?$AA?5?$AA?$DN?$AA?$DN?$AA?5?$AAo?$AAu@ DB 's'
	DB	00H, 't', 00H, 'b', 00H, '_', 00H, '_', 00H, 'd', 00H, 'o', 00H
	DB	'u', 00H, 't', 00H, ' ', 00H, '=', 00H, '=', 00H, ' ', 00H, 'o'
	DB	00H, 'u', 00H, 't', 00H, 'p', 00H, 'u', 00H, 't', 00H, ' ', 00H
	DB	'+', 00H, ' ', 00H, 'o', 00H, 'l', 00H, 'e', 00H, 'n', 00H, 00H
	DB	00H						; `string'
CONST	ENDS
;	COMDAT ?__LINE__Var@?0??stb_decompress@@YAIPAEPBEI@Z@4JA
_DATA	SEGMENT
?__LINE__Var@?0??stb_decompress@@YAIPAEPBEI@Z@4JA DD 0cc7H ; `stb_decompress'::`1'::__LINE__Var
_DATA	ENDS
;	COMDAT ?__LINE__Var@?0??stb__lit@@YAXPBEI@Z@4JA
_DATA	SEGMENT
?__LINE__Var@?0??stb__lit@@YAXPBEI@Z@4JA DD 0c8aH	; `stb__lit'::`1'::__LINE__Var
_DATA	ENDS
;	COMDAT ??_C@_1FC@IADGHEAH@?$AAs?$AAt?$AAb?$AA_?$AA_?$AAd?$AAo?$AAu?$AAt?$AA?5?$AA?$CL?$AA?5?$AAl?$AAe?$AAn@
CONST	SEGMENT
??_C@_1FC@IADGHEAH@?$AAs?$AAt?$AAb?$AA_?$AA_?$AAd?$AAo?$AAu?$AAt?$AA?5?$AA?$CL?$AA?5?$AAl?$AAe?$AAn@ DB 's'
	DB	00H, 't', 00H, 'b', 00H, '_', 00H, '_', 00H, 'd', 00H, 'o', 00H
	DB	'u', 00H, 't', 00H, ' ', 00H, '+', 00H, ' ', 00H, 'l', 00H, 'e'
	DB	00H, 'n', 00H, 'g', 00H, 't', 00H, 'h', 00H, ' ', 00H, '<', 00H
	DB	'=', 00H, ' ', 00H, 's', 00H, 't', 00H, 'b', 00H, '_', 00H, '_'
	DB	00H, 'b', 00H, 'a', 00H, 'r', 00H, 'r', 00H, 'i', 00H, 'e', 00H
	DB	'r', 00H, '_', 00H, 'o', 00H, 'u', 00H, 't', 00H, '_', 00H, 'e'
	DB	00H, 00H, 00H				; `string'
CONST	ENDS
;	COMDAT ?__LINE__Var@?0??stb__match@@YAXPBEI@Z@4JA
_DATA	SEGMENT
?__LINE__Var@?0??stb__match@@YAXPBEI@Z@4JA DD 0c81H	; `stb__match'::`1'::__LINE__Var
_DATA	ENDS
;	COMDAT ??_C@_1JM@LKKCKIOL@?$AAm?$AAo?$AAu?$AAs?$AAe?$AA_?$AAc?$AAu?$AAr?$AAs?$AAo?$AAr?$AA?5?$AA?$DO?$AA?5@
CONST	SEGMENT
??_C@_1JM@LKKCKIOL@?$AAm?$AAo?$AAu?$AAs?$AAe?$AA_?$AAc?$AAu?$AAr?$AAs?$AAo?$AAr?$AA?5?$AA?$DO?$AA?5@ DB 'm'
	DB	00H, 'o', 00H, 'u', 00H, 's', 00H, 'e', 00H, '_', 00H, 'c', 00H
	DB	'u', 00H, 'r', 00H, 's', 00H, 'o', 00H, 'r', 00H, ' ', 00H, '>'
	DB	00H, ' ', 00H, 'I', 00H, 'm', 00H, 'G', 00H, 'u', 00H, 'i', 00H
	DB	'M', 00H, 'o', 00H, 'u', 00H, 's', 00H, 'e', 00H, 'C', 00H, 'u'
	DB	00H, 'r', 00H, 's', 00H, 'o', 00H, 'r', 00H, '_', 00H, 'N', 00H
	DB	'o', 00H, 'n', 00H, 'e', 00H, ' ', 00H, '&', 00H, '&', 00H, ' '
	DB	00H, 'm', 00H, 'o', 00H, 'u', 00H, 's', 00H, 'e', 00H, '_', 00H
	DB	'c', 00H, 'u', 00H, 'r', 00H, 's', 00H, 'o', 00H, 'r', 00H, ' '
	DB	00H, '<', 00H, ' ', 00H, 'I', 00H, 'm', 00H, 'G', 00H, 'u', 00H
	DB	'i', 00H, 'M', 00H, 'o', 00H, 'u', 00H, 's', 00H, 'e', 00H, 'C'
	DB	00H, 'u', 00H, 'r', 00H, 's', 00H, 'o', 00H, 'r', 00H, '_', 00H
	DB	'C', 00H, 'O', 00H, 'U', 00H, 'N', 00H, 'T', 00H, 00H, 00H ; `string'
CONST	ENDS
;	COMDAT ?__LINE__Var@?0??RenderMouseCursor@ImGui@@YAXPAUImDrawList@@UImVec2@@MHIII@Z@4JA
_DATA	SEGMENT
?__LINE__Var@?0??RenderMouseCursor@ImGui@@YAXPAUImDrawList@@UImVec2@@MHIII@Z@4JA DD 0c09H ; `ImGui::RenderMouseCursor'::`1'::__LINE__Var
_DATA	ENDS
;	COMDAT ??_C@_1CK@OHOOGJPG@?$AAI?$AAn?$AAd?$AAe?$AAx?$AAL?$AAo?$AAo?$AAk?$AAu?$AAp?$AA?4?$AAS?$AAi?$AAz@
CONST	SEGMENT
??_C@_1CK@OHOOGJPG@?$AAI?$AAn?$AAd?$AAe?$AAx?$AAL?$AAo?$AAo?$AAk?$AAu?$AAp?$AA?4?$AAS?$AAi?$AAz@ DB 'I'
	DB	00H, 'n', 00H, 'd', 00H, 'e', 00H, 'x', 00H, 'L', 00H, 'o', 00H
	DB	'o', 00H, 'k', 00H, 'u', 00H, 'p', 00H, '.', 00H, 'S', 00H, 'i'
	DB	00H, 'z', 00H, 'e', 00H, ' ', 00H, '>', 00H, ' ', 00H, '0', 00H
	DB	00H, 00H					; `string'
CONST	ENDS
;	COMDAT ?__LINE__Var@?0??AddRemapChar@ImFont@@QAEXGG_N@Z@4JA
_DATA	SEGMENT
?__LINE__Var@?0??AddRemapChar@ImFont@@QAEXGG_N@Z@4JA DD 0a51H ; `ImFont::AddRemapChar'::`1'::__LINE__Var
_DATA	ENDS
;	COMDAT ??_C@_1EO@HLFAHELG@?$AAI?$AAn?$AAd?$AAe?$AAx?$AAA?$AAd?$AAv?$AAa?$AAn?$AAc?$AAe?$AAX?$AA?4?$AAS@
CONST	SEGMENT
??_C@_1EO@HLFAHELG@?$AAI?$AAn?$AAd?$AAe?$AAx?$AAA?$AAd?$AAv?$AAa?$AAn?$AAc?$AAe?$AAX?$AA?4?$AAS@ DB 'I'
	DB	00H, 'n', 00H, 'd', 00H, 'e', 00H, 'x', 00H, 'A', 00H, 'd', 00H
	DB	'v', 00H, 'a', 00H, 'n', 00H, 'c', 00H, 'e', 00H, 'X', 00H, '.'
	DB	00H, 'S', 00H, 'i', 00H, 'z', 00H, 'e', 00H, ' ', 00H, '=', 00H
	DB	'=', 00H, ' ', 00H, 'I', 00H, 'n', 00H, 'd', 00H, 'e', 00H, 'x'
	DB	00H, 'L', 00H, 'o', 00H, 'o', 00H, 'k', 00H, 'u', 00H, 'p', 00H
	DB	'.', 00H, 'S', 00H, 'i', 00H, 'z', 00H, 'e', 00H, 00H, 00H ; `string'
CONST	ENDS
;	COMDAT ?__LINE__Var@?0??GrowIndex@ImFont@@QAEXH@Z@4JA
_DATA	SEGMENT
?__LINE__Var@?0??GrowIndex@ImFont@@QAEXH@Z@4JA DD 0a2fH	; `ImFont::GrowIndex'::`1'::__LINE__Var
_DATA	ENDS
;	COMDAT ??_C@_1CK@FHBHHKB@?$AAG?$AAl?$AAy?$AAp?$AAh?$AAs?$AA?4?$AAS?$AAi?$AAz?$AAe?$AA?5?$AA?$DM?$AA?5?$AA0@
CONST	SEGMENT
??_C@_1CK@FHBHHKB@?$AAG?$AAl?$AAy?$AAp?$AAh?$AAs?$AA?4?$AAS?$AAi?$AAz?$AAe?$AA?5?$AA?$DM?$AA?5?$AA0@ DB 'G'
	DB	00H, 'l', 00H, 'y', 00H, 'p', 00H, 'h', 00H, 's', 00H, '.', 00H
	DB	'S', 00H, 'i', 00H, 'z', 00H, 'e', 00H, ' ', 00H, '<', 00H, ' '
	DB	00H, '0', 00H, 'x', 00H, 'F', 00H, 'F', 00H, 'F', 00H, 'F', 00H
	DB	00H, 00H					; `string'
CONST	ENDS
;	COMDAT ?__LINE__Var@?0??BuildLookupTable@ImFont@@QAEXXZ@4JA
_DATA	SEGMENT
?__LINE__Var@?0??BuildLookupTable@ImFont@@QAEXXZ@4JA DD 0a02H ; `ImFont::BuildLookupTable'::`1'::__LINE__Var
_DATA	ENDS
_DATA	SEGMENT
?base_ranges@?1??GetGlyphRangesChineseSimplifiedCommon@ImFontAtlas@@QAEPBGXZ@4PAGA DW 020H ; `ImFontAtlas::GetGlyphRangesChineseSimplifiedCommon'::`2'::base_ranges
	DW	0ffH
	DW	02000H
	DW	0206fH
	DW	03000H
	DW	030ffH
	DW	031f0H
	DW	031ffH
	DW	0ff00H
	DW	0ffefH
?base_ranges@?1??GetGlyphRangesJapanese@ImFontAtlas@@QAEPBGXZ@4PAGA DW 020H ; `ImFontAtlas::GetGlyphRangesJapanese'::`2'::base_ranges
	DW	0ffH
	DW	03000H
	DW	030ffH
	DW	031f0H
	DW	031ffH
	DW	0ff00H
	DW	0ffefH
_DATA	ENDS
;	COMDAT ??_C@_1EA@GJDLMPMC@?$AAr?$AA?4?$AAF?$AAo?$AAn?$AAt?$AA?9?$AA?$DO?$AAC?$AAo?$AAn?$AAt?$AAa?$AAi?$AAn@
CONST	SEGMENT
??_C@_1EA@GJDLMPMC@?$AAr?$AA?4?$AAF?$AAo?$AAn?$AAt?$AA?9?$AA?$DO?$AAC?$AAo?$AAn?$AAt?$AAa?$AAi?$AAn@ DB 'r'
	DB	00H, '.', 00H, 'F', 00H, 'o', 00H, 'n', 00H, 't', 00H, '-', 00H
	DB	'>', 00H, 'C', 00H, 'o', 00H, 'n', 00H, 't', 00H, 'a', 00H, 'i'
	DB	00H, 'n', 00H, 'e', 00H, 'r', 00H, 'A', 00H, 't', 00H, 'l', 00H
	DB	'a', 00H, 's', 00H, ' ', 00H, '=', 00H, '=', 00H, ' ', 00H, 'a'
	DB	00H, 't', 00H, 'l', 00H, 'a', 00H, 's', 00H, 00H, 00H ; `string'
CONST	ENDS
;	COMDAT ?__LINE__Var@?0??ImFontAtlasBuildFinish@@YAXPAUImFontAtlas@@@Z@4JA
_DATA	SEGMENT
?__LINE__Var@?0??ImFontAtlasBuildFinish@@YAXPAUImFontAtlas@@@Z@4JA DD 08afH ; `ImFontAtlasBuildFinish'::`1'::__LINE__Var
_DATA	ENDS
;	COMDAT ??_C@_1DM@OOPIKMMI@?$AAr?$AA?4?$AAW?$AAi?$AAd?$AAt?$AAh?$AA?5?$AA?$DN?$AA?$DN?$AA?5?$AA2?$AA?5?$AA?$CG?$AA?$CG@
CONST	SEGMENT
??_C@_1DM@OOPIKMMI@?$AAr?$AA?4?$AAW?$AAi?$AAd?$AAt?$AAh?$AA?5?$AA?$DN?$AA?$DN?$AA?5?$AA2?$AA?5?$AA?$CG?$AA?$CG@ DB 'r'
	DB	00H, '.', 00H, 'W', 00H, 'i', 00H, 'd', 00H, 't', 00H, 'h', 00H
	DB	' ', 00H, '=', 00H, '=', 00H, ' ', 00H, '2', 00H, ' ', 00H, '&'
	DB	00H, '&', 00H, ' ', 00H, 'r', 00H, '.', 00H, 'H', 00H, 'e', 00H
	DB	'i', 00H, 'g', 00H, 'h', 00H, 't', 00H, ' ', 00H, '=', 00H, '='
	DB	00H, ' ', 00H, '2', 00H, 00H, 00H		; `string'
CONST	ENDS
;	COMDAT ??_C@_1MG@KMJKJDJG@?$AAr?$AA?4?$AAW?$AAi?$AAd?$AAt?$AAh?$AA?5?$AA?$DN?$AA?$DN?$AA?5?$AAF?$AAO?$AAN?$AAT@
CONST	SEGMENT
??_C@_1MG@KMJKJDJG@?$AAr?$AA?4?$AAW?$AAi?$AAd?$AAt?$AAh?$AA?5?$AA?$DN?$AA?$DN?$AA?5?$AAF?$AAO?$AAN?$AAT@ DB 'r'
	DB	00H, '.', 00H, 'W', 00H, 'i', 00H, 'd', 00H, 't', 00H, 'h', 00H
	DB	' ', 00H, '=', 00H, '=', 00H, ' ', 00H, 'F', 00H, 'O', 00H, 'N'
	DB	00H, 'T', 00H, '_', 00H, 'A', 00H, 'T', 00H, 'L', 00H, 'A', 00H
	DB	'S', 00H, '_', 00H, 'D', 00H, 'E', 00H, 'F', 00H, 'A', 00H, 'U'
	DB	00H, 'L', 00H, 'T', 00H, '_', 00H, 'T', 00H, 'E', 00H, 'X', 00H
	DB	'_', 00H, 'D', 00H, 'A', 00H, 'T', 00H, 'A', 00H, '_', 00H, 'W'
	DB	00H, '_', 00H, 'H', 00H, 'A', 00H, 'L', 00H, 'F', 00H, ' ', 00H
	DB	'*', 00H, ' ', 00H, '2', 00H, ' ', 00H, '+', 00H, ' ', 00H, '1'
	DB	00H, ' ', 00H, '&', 00H, '&', 00H, ' ', 00H, 'r', 00H, '.', 00H
	DB	'H', 00H, 'e', 00H, 'i', 00H, 'g', 00H, 'h', 00H, 't', 00H, ' '
	DB	00H, '=', 00H, '=', 00H, ' ', 00H, 'F', 00H, 'O', 00H, 'N', 00H
	DB	'T', 00H, '_', 00H, 'A', 00H, 'T', 00H, 'L', 00H, 'A', 00H, 'S'
	DB	00H, '_', 00H, 'D', 00H, 'E', 00H, 'F', 00H, 'A', 00H, 'U', 00H
	DB	'L', 00H, 'T', 00H, '_', 00H, 'T', 00H, 'E', 00H, 'X', 00H, '_'
	DB	00H, 'D', 00H, 'A', 00H, 'T', 00H, 'A', 00H, '_', 00H, 'H', 00H
	DB	00H, 00H					; `string'
CONST	ENDS
;	COMDAT ??_C@_1BK@MDHNDFCJ@?$AAr?$AA?4?$AAI?$AAs?$AAP?$AAa?$AAc?$AAk?$AAe?$AAd?$AA?$CI?$AA?$CJ@
CONST	SEGMENT
??_C@_1BK@MDHNDFCJ@?$AAr?$AA?4?$AAI?$AAs?$AAP?$AAa?$AAc?$AAk?$AAe?$AAd?$AA?$CI?$AA?$CJ@ DB 'r'
	DB	00H, '.', 00H, 'I', 00H, 's', 00H, 'P', 00H, 'a', 00H, 'c', 00H
	DB	'k', 00H, 'e', 00H, 'd', 00H, '(', 00H, ')', 00H, 00H, 00H ; `string'
CONST	ENDS
;	COMDAT ??_C@_1DI@LKIOFBD@?$AAa?$AAt?$AAl?$AAa?$AAs?$AA?9?$AA?$DO?$AAT?$AAe?$AAx?$AAP?$AAi?$AAx?$AAe?$AAl@
CONST	SEGMENT
??_C@_1DI@LKIOFBD@?$AAa?$AAt?$AAl?$AAa?$AAs?$AA?9?$AA?$DO?$AAT?$AAe?$AAx?$AAP?$AAi?$AAx?$AAe?$AAl@ DB 'a'
	DB	00H, 't', 00H, 'l', 00H, 'a', 00H, 's', 00H, '-', 00H, '>', 00H
	DB	'T', 00H, 'e', 00H, 'x', 00H, 'P', 00H, 'i', 00H, 'x', 00H, 'e'
	DB	00H, 'l', 00H, 's', 00H, 'A', 00H, 'l', 00H, 'p', 00H, 'h', 00H
	DB	'a', 00H, '8', 00H, ' ', 00H, '!', 00H, '=', 00H, ' ', 00H, '0'
	DB	00H, 00H, 00H				; `string'
CONST	ENDS
;	COMDAT ??_C@_1DK@CIPOCJML@?$AAa?$AAt?$AAl?$AAa?$AAs?$AA?9?$AA?$DO?$AAC?$AAu?$AAs?$AAt?$AAo?$AAm?$AAR?$AAe@
CONST	SEGMENT
??_C@_1DK@CIPOCJML@?$AAa?$AAt?$AAl?$AAa?$AAs?$AA?9?$AA?$DO?$AAC?$AAu?$AAs?$AAt?$AAo?$AAm?$AAR?$AAe@ DB 'a'
	DB	00H, 't', 00H, 'l', 00H, 'a', 00H, 's', 00H, '-', 00H, '>', 00H
	DB	'C', 00H, 'u', 00H, 's', 00H, 't', 00H, 'o', 00H, 'm', 00H, 'R'
	DB	00H, 'e', 00H, 'c', 00H, 't', 00H, 'I', 00H, 'd', 00H, 's', 00H
	DB	'[', 00H, '0', 00H, ']', 00H, ' ', 00H, '>', 00H, '=', 00H, ' '
	DB	00H, '0', 00H, 00H, 00H			; `string'
CONST	ENDS
;	COMDAT ?__LINE__Var@?0??ImFontAtlasBuildRenderDefaultTexData@@YAXPAUImFontAtlas@@@Z@4JA
_DATA	SEGMENT
?__LINE__Var@?0??ImFontAtlasBuildRenderDefaultTexData@@YAXPAUImFontAtlas@@@Z@4JA DD 0890H ; `ImFontAtlasBuildRenderDefaultTexData'::`1'::__LINE__Var
_DATA	ENDS
;	COMDAT ??_C@_1KE@CBAIECN@?$AAp?$AAa?$AAc?$AAk?$AA_?$AAr?$AAe?$AAc?$AAt?$AAs?$AA?$FL?$AAi?$AA?$FN?$AA?4?$AAw@
CONST	SEGMENT
??_C@_1KE@CBAIECN@?$AAp?$AAa?$AAc?$AAk?$AA_?$AAr?$AAe?$AAc?$AAt?$AAs?$AA?$FL?$AAi?$AA?$FN?$AA?4?$AAw@ DB 'p'
	DB	00H, 'a', 00H, 'c', 00H, 'k', 00H, '_', 00H, 'r', 00H, 'e', 00H
	DB	'c', 00H, 't', 00H, 's', 00H, '[', 00H, 'i', 00H, ']', 00H, '.'
	DB	00H, 'w', 00H, ' ', 00H, '=', 00H, '=', 00H, ' ', 00H, 'u', 00H
	DB	's', 00H, 'e', 00H, 'r', 00H, '_', 00H, 'r', 00H, 'e', 00H, 'c'
	DB	00H, 't', 00H, 's', 00H, '[', 00H, 'i', 00H, ']', 00H, '.', 00H
	DB	'W', 00H, 'i', 00H, 'd', 00H, 't', 00H, 'h', 00H, ' ', 00H, '&'
	DB	00H, '&', 00H, ' ', 00H, 'p', 00H, 'a', 00H, 'c', 00H, 'k', 00H
	DB	'_', 00H, 'r', 00H, 'e', 00H, 'c', 00H, 't', 00H, 's', 00H, '['
	DB	00H, 'i', 00H, ']', 00H, '.', 00H, 'h', 00H, ' ', 00H, '=', 00H
	DB	'=', 00H, ' ', 00H, 'u', 00H, 's', 00H, 'e', 00H, 'r', 00H, '_'
	DB	00H, 'r', 00H, 'e', 00H, 'c', 00H, 't', 00H, 's', 00H, '[', 00H
	DB	'i', 00H, ']', 00H, '.', 00H, 'H', 00H, 'e', 00H, 'i', 00H, 'g'
	DB	00H, 'h', 00H, 't', 00H, 00H, 00H		; `string'
CONST	ENDS
;	COMDAT ??_C@_1CK@POMOOFJC@?$AAu?$AAs?$AAe?$AAr?$AA_?$AAr?$AAe?$AAc?$AAt?$AAs?$AA?4?$AAS?$AAi?$AAz?$AAe@
CONST	SEGMENT
??_C@_1CK@POMOOFJC@?$AAu?$AAs?$AAe?$AAr?$AA_?$AAr?$AAe?$AAc?$AAt?$AAs?$AA?4?$AAS?$AAi?$AAz?$AAe@ DB 'u'
	DB	00H, 's', 00H, 'e', 00H, 'r', 00H, '_', 00H, 'r', 00H, 'e', 00H
	DB	'c', 00H, 't', 00H, 's', 00H, '.', 00H, 'S', 00H, 'i', 00H, 'z'
	DB	00H, 'e', 00H, ' ', 00H, '>', 00H, '=', 00H, ' ', 00H, '1', 00H
	DB	00H, 00H					; `string'
CONST	ENDS
;	COMDAT ??_C@_1CE@FMMHMDCM@?$AAp?$AAa?$AAc?$AAk?$AA_?$AAc?$AAo?$AAn?$AAt?$AAe?$AAx?$AAt?$AA?5?$AA?$CB?$AA?$DN@
CONST	SEGMENT
??_C@_1CE@FMMHMDCM@?$AAp?$AAa?$AAc?$AAk?$AA_?$AAc?$AAo?$AAn?$AAt?$AAe?$AAx?$AAt?$AA?5?$AA?$CB?$AA?$DN@ DB 'p'
	DB	00H, 'a', 00H, 'c', 00H, 'k', 00H, '_', 00H, 'c', 00H, 'o', 00H
	DB	'n', 00H, 't', 00H, 'e', 00H, 'x', 00H, 't', 00H, ' ', 00H, '!'
	DB	00H, '=', 00H, ' ', 00H, '0', 00H, 00H, 00H	; `string'
CONST	ENDS
;	COMDAT ?__LINE__Var@?0??ImFontAtlasBuildPackCustomRects@@YAXPAUImFontAtlas@@PAX@Z@4JA
_DATA	SEGMENT
?__LINE__Var@?0??ImFontAtlasBuildPackCustomRects@@YAXPAUImFontAtlas@@PAX@Z@4JA DD 0875H ; `ImFontAtlasBuildPackCustomRects'::`1'::__LINE__Var
_DATA	ENDS
;	COMDAT ??_C@_1DC@ENBGOGEF@?$AAg?$AAl?$AAy?$AAp?$AAh?$AA_?$AAi?$AAn?$AAd?$AAe?$AAx?$AA_?$AAi?$AAn?$AA_@
CONST	SEGMENT
??_C@_1DC@ENBGOGEF@?$AAg?$AAl?$AAy?$AAp?$AAh?$AA_?$AAi?$AAn?$AAd?$AAe?$AAx?$AA_?$AAi?$AAn?$AA_@ DB 'g'
	DB	00H, 'l', 00H, 'y', 00H, 'p', 00H, 'h', 00H, '_', 00H, 'i', 00H
	DB	'n', 00H, 'd', 00H, 'e', 00H, 'x', 00H, '_', 00H, 'i', 00H, 'n'
	DB	00H, '_', 00H, 'f', 00H, 'o', 00H, 'n', 00H, 't', 00H, ' ', 00H
	DB	'!', 00H, '=', 00H, ' ', 00H, '0', 00H, 00H, 00H ; `string'
CONST	ENDS
;	COMDAT ??_C@_1FO@GJGKHCEN@?$AAs?$AAr?$AAc?$AA_?$AAt?$AAm?$AAp?$AA?4?$AAG?$AAl?$AAy?$AAp?$AAh?$AAs?$AAL@
CONST	SEGMENT
??_C@_1FO@GJGKHCEN@?$AAs?$AAr?$AAc?$AA_?$AAt?$AAm?$AAp?$AA?4?$AAG?$AAl?$AAy?$AAp?$AAh?$AAs?$AAL@ DB 's'
	DB	00H, 'r', 00H, 'c', 00H, '_', 00H, 't', 00H, 'm', 00H, 'p', 00H
	DB	'.', 00H, 'G', 00H, 'l', 00H, 'y', 00H, 'p', 00H, 'h', 00H, 's'
	DB	00H, 'L', 00H, 'i', 00H, 's', 00H, 't', 00H, '.', 00H, 'S', 00H
	DB	'i', 00H, 'z', 00H, 'e', 00H, ' ', 00H, '=', 00H, '=', 00H, ' '
	DB	00H, 's', 00H, 'r', 00H, 'c', 00H, '_', 00H, 't', 00H, 'm', 00H
	DB	'p', 00H, '.', 00H, 'G', 00H, 'l', 00H, 'y', 00H, 'p', 00H, 'h'
	DB	00H, 's', 00H, 'C', 00H, 'o', 00H, 'u', 00H, 'n', 00H, 't', 00H
	DB	00H, 00H					; `string'
CONST	ENDS
;	COMDAT ??_C@_1JA@MENENCJI@?$AAf?$AAo?$AAn?$AAt?$AA_?$AAo?$AAf?$AAf?$AAs?$AAe?$AAt?$AA?5?$AA?$DO?$AA?$DN?$AA?5@
CONST	SEGMENT
??_C@_1JA@MENENCJI@?$AAf?$AAo?$AAn?$AAt?$AA_?$AAo?$AAf?$AAf?$AAs?$AAe?$AAt?$AA?5?$AA?$DO?$AA?$DN?$AA?5@ DB 'f'
	DB	00H, 'o', 00H, 'n', 00H, 't', 00H, '_', 00H, 'o', 00H, 'f', 00H
	DB	'f', 00H, 's', 00H, 'e', 00H, 't', 00H, ' ', 00H, '>', 00H, '='
	DB	00H, ' ', 00H, '0', 00H, ' ', 00H, '&', 00H, '&', 00H, ' ', 00H
	DB	'"', 00H, 'F', 00H, 'o', 00H, 'n', 00H, 't', 00H, 'D', 00H, 'a'
	DB	00H, 't', 00H, 'a', 00H, ' ', 00H, 'i', 00H, 's', 00H, ' ', 00H
	DB	'i', 00H, 'n', 00H, 'c', 00H, 'o', 00H, 'r', 00H, 'r', 00H, 'e'
	DB	00H, 'c', 00H, 't', 00H, ',', 00H, ' ', 00H, 'o', 00H, 'r', 00H
	DB	' ', 00H, 'F', 00H, 'o', 00H, 'n', 00H, 't', 00H, 'N', 00H, 'o'
	DB	00H, ' ', 00H, 'c', 00H, 'a', 00H, 'n', 00H, 'n', 00H, 'o', 00H
	DB	't', 00H, ' ', 00H, 'b', 00H, 'e', 00H, ' ', 00H, 'f', 00H, 'o'
	DB	00H, 'u', 00H, 'n', 00H, 'd', 00H, '.', 00H, '"', 00H, 00H, 00H ; `string'
CONST	ENDS
;	COMDAT ??_C@_0DC@IFELKFNN@FontData?5is?5incorrect?0?5or?5FontN@
CONST	SEGMENT
??_C@_0DC@IFELKFNN@FontData?5is?5incorrect?0?5or?5FontN@ DB 'FontData is '
	DB	'incorrect, or FontNo cannot be found.', 00H	; `string'
CONST	ENDS
;	COMDAT ??_C@_1CO@NKKOCLPN@?$AAs?$AAr?$AAc?$AA_?$AAt?$AAm?$AAp?$AA?4?$AAD?$AAs?$AAt?$AAI?$AAn?$AAd?$AAe@
CONST	SEGMENT
??_C@_1CO@NKKOCLPN@?$AAs?$AAr?$AAc?$AA_?$AAt?$AAm?$AAp?$AA?4?$AAD?$AAs?$AAt?$AAI?$AAn?$AAd?$AAe@ DB 's'
	DB	00H, 'r', 00H, 'c', 00H, '_', 00H, 't', 00H, 'm', 00H, 'p', 00H
	DB	'.', 00H, 'D', 00H, 's', 00H, 't', 00H, 'I', 00H, 'n', 00H, 'd'
	DB	00H, 'e', 00H, 'x', 00H, ' ', 00H, '!', 00H, '=', 00H, ' ', 00H
	DB	'-', 00H, '1', 00H, 00H, 00H			; `string'
CONST	ENDS
;	COMDAT ??_C@_1KE@NPGLPIC@?$AAc?$AAf?$AAg?$AA?4?$AAD?$AAs?$AAt?$AAF?$AAo?$AAn?$AAt?$AA?5?$AA?$CG?$AA?$CG?$AA?5@
CONST	SEGMENT
??_C@_1KE@NPGLPIC@?$AAc?$AAf?$AAg?$AA?4?$AAD?$AAs?$AAt?$AAF?$AAo?$AAn?$AAt?$AA?5?$AA?$CG?$AA?$CG?$AA?5@ DB 'c'
	DB	00H, 'f', 00H, 'g', 00H, '.', 00H, 'D', 00H, 's', 00H, 't', 00H
	DB	'F', 00H, 'o', 00H, 'n', 00H, 't', 00H, ' ', 00H, '&', 00H, '&'
	DB	00H, ' ', 00H, '(', 00H, '!', 00H, 'c', 00H, 'f', 00H, 'g', 00H
	DB	'.', 00H, 'D', 00H, 's', 00H, 't', 00H, 'F', 00H, 'o', 00H, 'n'
	DB	00H, 't', 00H, '-', 00H, '>', 00H, 'I', 00H, 's', 00H, 'L', 00H
	DB	'o', 00H, 'a', 00H, 'd', 00H, 'e', 00H, 'd', 00H, '(', 00H, ')'
	DB	00H, ' ', 00H, '|', 00H, '|', 00H, ' ', 00H, 'c', 00H, 'f', 00H
	DB	'g', 00H, '.', 00H, 'D', 00H, 's', 00H, 't', 00H, 'F', 00H, 'o'
	DB	00H, 'n', 00H, 't', 00H, '-', 00H, '>', 00H, 'C', 00H, 'o', 00H
	DB	'n', 00H, 't', 00H, 'a', 00H, 'i', 00H, 'n', 00H, 'e', 00H, 'r'
	DB	00H, 'A', 00H, 't', 00H, 'l', 00H, 'a', 00H, 's', 00H, ' ', 00H
	DB	'=', 00H, '=', 00H, ' ', 00H, 'a', 00H, 't', 00H, 'l', 00H, 'a'
	DB	00H, 's', 00H, ')', 00H, 00H, 00H		; `string'
CONST	ENDS
;	COMDAT ??_C@_1DG@BBHAKCJP@?$AAa?$AAt?$AAl?$AAa?$AAs?$AA?9?$AA?$DO?$AAC?$AAo?$AAn?$AAf?$AAi?$AAg?$AAD?$AAa@
CONST	SEGMENT
??_C@_1DG@BBHAKCJP@?$AAa?$AAt?$AAl?$AAa?$AAs?$AA?9?$AA?$DO?$AAC?$AAo?$AAn?$AAf?$AAi?$AAg?$AAD?$AAa@ DB 'a'
	DB	00H, 't', 00H, 'l', 00H, 'a', 00H, 's', 00H, '-', 00H, '>', 00H
	DB	'C', 00H, 'o', 00H, 'n', 00H, 'f', 00H, 'i', 00H, 'g', 00H, 'D'
	DB	00H, 'a', 00H, 't', 00H, 'a', 00H, '.', 00H, 'S', 00H, 'i', 00H
	DB	'z', 00H, 'e', 00H, ' ', 00H, '>', 00H, ' ', 00H, '0', 00H, 00H
	DB	00H						; `string'
CONST	ENDS
;	COMDAT ?__LINE__Var@?0??ImFontAtlasBuildWithStbTruetype@@YA_NPAUImFontAtlas@@@Z@4JA
_DATA	SEGMENT
?__LINE__Var@?0??ImFontAtlasBuildWithStbTruetype@@YA_NPAUImFontAtlas@@@Z@4JA DD 075dH ; `ImFontAtlasBuildWithStbTruetype'::`1'::__LINE__Var
_DATA	ENDS
;	COMDAT ?__LINE__Var@?0??Build@ImFontAtlas@@QAE_NXZ@4JA
_DATA	SEGMENT
?__LINE__Var@?0??Build@ImFontAtlas@@QAE_NXZ@4JA DD 0721H ; `ImFontAtlas::Build'::`1'::__LINE__Var
_DATA	ENDS
;	COMDAT ??_C@_1EO@NGCKHELE@?$AAr?$AA?4?$AAI?$AAD?$AA?5?$AA?$DN?$AA?$DN?$AA?5?$AAF?$AAO?$AAN?$AAT?$AA_?$AAA?$AAT@
CONST	SEGMENT
??_C@_1EO@NGCKHELE@?$AAr?$AA?4?$AAI?$AAD?$AA?5?$AA?$DN?$AA?$DN?$AA?5?$AAF?$AAO?$AAN?$AAT?$AA_?$AAA?$AAT@ DB 'r'
	DB	00H, '.', 00H, 'I', 00H, 'D', 00H, ' ', 00H, '=', 00H, '=', 00H
	DB	' ', 00H, 'F', 00H, 'O', 00H, 'N', 00H, 'T', 00H, '_', 00H, 'A'
	DB	00H, 'T', 00H, 'L', 00H, 'A', 00H, 'S', 00H, '_', 00H, 'D', 00H
	DB	'E', 00H, 'F', 00H, 'A', 00H, 'U', 00H, 'L', 00H, 'T', 00H, '_'
	DB	00H, 'T', 00H, 'E', 00H, 'X', 00H, '_', 00H, 'D', 00H, 'A', 00H
	DB	'T', 00H, 'A', 00H, '_', 00H, 'I', 00H, 'D', 00H, 00H, 00H ; `string'
CONST	ENDS
;	COMDAT ??_C@_1CO@OOJMDEAG@?$AAC?$AAu?$AAs?$AAt?$AAo?$AAm?$AAR?$AAe?$AAc?$AAt?$AAI?$AAd?$AAs?$AA?$FL?$AA0@
CONST	SEGMENT
??_C@_1CO@OOJMDEAG@?$AAC?$AAu?$AAs?$AAt?$AAo?$AAm?$AAR?$AAe?$AAc?$AAt?$AAI?$AAd?$AAs?$AA?$FL?$AA0@ DB 'C'
	DB	00H, 'u', 00H, 's', 00H, 't', 00H, 'o', 00H, 'm', 00H, 'R', 00H
	DB	'e', 00H, 'c', 00H, 't', 00H, 'I', 00H, 'd', 00H, 's', 00H, '['
	DB	00H, '0', 00H, ']', 00H, ' ', 00H, '!', 00H, '=', 00H, ' ', 00H
	DB	'-', 00H, '1', 00H, 00H, 00H			; `string'
CONST	ENDS
;	COMDAT ?__LINE__Var@?0??GetMouseCursorTexData@ImFontAtlas@@QAE_NHPAUImVec2@@0QAU3@1@Z@4JA
_DATA	SEGMENT
?__LINE__Var@?0??GetMouseCursorTexData@ImFontAtlas@@QAE_NHPAUImVec2@@0QAU3@1@Z@4JA DD 070bH ; `ImFontAtlas::GetMouseCursorTexData'::`1'::__LINE__Var
_DATA	ENDS
;	COMDAT ??_C@_1CC@DEJIAPCP@?$AAr?$AAe?$AAc?$AAt?$AA?9?$AA?$DO?$AAI?$AAs?$AAP?$AAa?$AAc?$AAk?$AAe?$AAd?$AA?$CI@
CONST	SEGMENT
??_C@_1CC@DEJIAPCP@?$AAr?$AAe?$AAc?$AAt?$AA?9?$AA?$DO?$AAI?$AAs?$AAP?$AAa?$AAc?$AAk?$AAe?$AAd?$AA?$CI@ DB 'r'
	DB	00H, 'e', 00H, 'c', 00H, 't', 00H, '-', 00H, '>', 00H, 'I', 00H
	DB	's', 00H, 'P', 00H, 'a', 00H, 'c', 00H, 'k', 00H, 'e', 00H, 'd'
	DB	00H, '(', 00H, ')', 00H, 00H, 00H		; `string'
CONST	ENDS
;	COMDAT ??_C@_1DM@CMBJAGBP@?$AAT?$AAe?$AAx?$AAW?$AAi?$AAd?$AAt?$AAh?$AA?5?$AA?$DO?$AA?5?$AA0?$AA?5?$AA?$CG?$AA?$CG@
CONST	SEGMENT
??_C@_1DM@CMBJAGBP@?$AAT?$AAe?$AAx?$AAW?$AAi?$AAd?$AAt?$AAh?$AA?5?$AA?$DO?$AA?5?$AA0?$AA?5?$AA?$CG?$AA?$CG@ DB 'T'
	DB	00H, 'e', 00H, 'x', 00H, 'W', 00H, 'i', 00H, 'd', 00H, 't', 00H
	DB	'h', 00H, ' ', 00H, '>', 00H, ' ', 00H, '0', 00H, ' ', 00H, '&'
	DB	00H, '&', 00H, ' ', 00H, 'T', 00H, 'e', 00H, 'x', 00H, 'H', 00H
	DB	'e', 00H, 'i', 00H, 'g', 00H, 'h', 00H, 't', 00H, ' ', 00H, '>'
	DB	00H, ' ', 00H, '0', 00H, 00H, 00H		; `string'
CONST	ENDS
;	COMDAT ?__LINE__Var@?0??CalcCustomRectUV@ImFontAtlas@@QBEXPBUImFontAtlasCustomRect@@PAUImVec2@@1@Z@4JA
_DATA	SEGMENT
?__LINE__Var@?0??CalcCustomRectUV@ImFontAtlas@@QBEXPBUImFontAtlasCustomRect@@PAUImVec2@@1@Z@4JA DD 0703H ; `ImFontAtlas::CalcCustomRectUV'::`1'::__LINE__Var
_DATA	ENDS
;	COMDAT ??_C@_1BE@PBFICKNN@?$AAf?$AAo?$AAn?$AAt?$AA?5?$AA?$CB?$AA?$DN?$AA?5?$AA0@
CONST	SEGMENT
??_C@_1BE@PBFICKNN@?$AAf?$AAo?$AAn?$AAt?$AA?5?$AA?$CB?$AA?$DN?$AA?5?$AA0@ DB 'f'
	DB	00H, 'o', 00H, 'n', 00H, 't', 00H, ' ', 00H, '!', 00H, '=', 00H
	DB	' ', 00H, '0', 00H, 00H, 00H			; `string'
CONST	ENDS
;	COMDAT ?__LINE__Var@?0??AddCustomRectFontGlyph@ImFontAtlas@@QAEHPAUImFont@@GHHMABUImVec2@@@Z@4JA
_DATA	SEGMENT
?__LINE__Var@?0??AddCustomRectFontGlyph@ImFontAtlas@@QAEHPAUImFont@@GHHMABUImVec2@@@Z@4JA DD 06f3H ; `ImFontAtlas::AddCustomRectFontGlyph'::`1'::__LINE__Var
_DATA	ENDS
;	COMDAT ??_C@_1DO@CAIIJEKF@?$AAh?$AAe?$AAi?$AAg?$AAh?$AAt?$AA?5?$AA?$DO?$AA?5?$AA0?$AA?5?$AA?$CG?$AA?$CG?$AA?5?$AAh@
CONST	SEGMENT
??_C@_1DO@CAIIJEKF@?$AAh?$AAe?$AAi?$AAg?$AAh?$AAt?$AA?5?$AA?$DO?$AA?5?$AA0?$AA?5?$AA?$CG?$AA?$CG?$AA?5?$AAh@ DB 'h'
	DB	00H, 'e', 00H, 'i', 00H, 'g', 00H, 'h', 00H, 't', 00H, ' ', 00H
	DB	'>', 00H, ' ', 00H, '0', 00H, ' ', 00H, '&', 00H, '&', 00H, ' '
	DB	00H, 'h', 00H, 'e', 00H, 'i', 00H, 'g', 00H, 'h', 00H, 't', 00H
	DB	' ', 00H, '<', 00H, '=', 00H, ' ', 00H, '0', 00H, 'x', 00H, 'F'
	DB	00H, 'F', 00H, 'F', 00H, 'F', 00H, 00H, 00H	; `string'
CONST	ENDS
;	COMDAT ??_C@_1DK@GHLOFHKF@?$AAw?$AAi?$AAd?$AAt?$AAh?$AA?5?$AA?$DO?$AA?5?$AA0?$AA?5?$AA?$CG?$AA?$CG?$AA?5?$AAw?$AAi@
CONST	SEGMENT
??_C@_1DK@GHLOFHKF@?$AAw?$AAi?$AAd?$AAt?$AAh?$AA?5?$AA?$DO?$AA?5?$AA0?$AA?5?$AA?$CG?$AA?$CG?$AA?5?$AAw?$AAi@ DB 'w'
	DB	00H, 'i', 00H, 'd', 00H, 't', 00H, 'h', 00H, ' ', 00H, '>', 00H
	DB	' ', 00H, '0', 00H, ' ', 00H, '&', 00H, '&', 00H, ' ', 00H, 'w'
	DB	00H, 'i', 00H, 'd', 00H, 't', 00H, 'h', 00H, ' ', 00H, '<', 00H
	DB	'=', 00H, ' ', 00H, '0', 00H, 'x', 00H, 'F', 00H, 'F', 00H, 'F'
	DB	00H, 'F', 00H, 00H, 00H			; `string'
CONST	ENDS
;	COMDAT ??_C@_1BO@IFEPJNFF@?$AAi?$AAd?$AA?5?$AA?$DO?$AA?$DN?$AA?5?$AA0?$AAx?$AA1?$AA1?$AA0?$AA0?$AA0?$AA0@
CONST	SEGMENT
??_C@_1BO@IFEPJNFF@?$AAi?$AAd?$AA?5?$AA?$DO?$AA?$DN?$AA?5?$AA0?$AAx?$AA1?$AA1?$AA0?$AA0?$AA0?$AA0@ DB 'i'
	DB	00H, 'd', 00H, ' ', 00H, '>', 00H, '=', 00H, ' ', 00H, '0', 00H
	DB	'x', 00H, '1', 00H, '1', 00H, '0', 00H, '0', 00H, '0', 00H, '0'
	DB	00H, 00H, 00H				; `string'
CONST	ENDS
;	COMDAT ?__LINE__Var@?0??AddCustomRectRegular@ImFontAtlas@@QAEHIHH@Z@4JA
_DATA	SEGMENT
?__LINE__Var@?0??AddCustomRectRegular@ImFontAtlas@@QAEHIHH@Z@4JA DD 06e5H ; `ImFontAtlas::AddCustomRectRegular'::`1'::__LINE__Var
_DATA	ENDS
;	COMDAT ?__LINE__Var@?0??AddFontFromMemoryCompressedTTF@ImFontAtlas@@QAEPAUImFont@@PBXHMPBUImFontConfig@@PBG@Z@4JA
_DATA	SEGMENT
?__LINE__Var@?0??AddFontFromMemoryCompressedTTF@ImFontAtlas@@QAEPAUImFont@@PBXHMPBUImFontConfig@@PBG@Z@4JA DD 06cfH ; `ImFontAtlas::AddFontFromMemoryCompressedTTF'::`1'::__LINE__Var
_DATA	ENDS
;	COMDAT ??_C@_1CO@ODFMNMML@?$AAf?$AAo?$AAn?$AAt?$AA_?$AAc?$AAf?$AAg?$AA?4?$AAF?$AAo?$AAn?$AAt?$AAD?$AAa@
CONST	SEGMENT
??_C@_1CO@ODFMNMML@?$AAf?$AAo?$AAn?$AAt?$AA_?$AAc?$AAf?$AAg?$AA?4?$AAF?$AAo?$AAn?$AAt?$AAD?$AAa@ DB 'f'
	DB	00H, 'o', 00H, 'n', 00H, 't', 00H, '_', 00H, 'c', 00H, 'f', 00H
	DB	'g', 00H, '.', 00H, 'F', 00H, 'o', 00H, 'n', 00H, 't', 00H, 'D'
	DB	00H, 'a', 00H, 't', 00H, 'a', 00H, ' ', 00H, '=', 00H, '=', 00H
	DB	' ', 00H, '0', 00H, 00H, 00H			; `string'
CONST	ENDS
;	COMDAT ?__LINE__Var@?0??AddFontFromMemoryTTF@ImFontAtlas@@QAEPAUImFont@@PAXHMPBUImFontConfig@@PBG@Z@4JA
_DATA	SEGMENT
?__LINE__Var@?0??AddFontFromMemoryTTF@ImFontAtlas@@QAEPAUImFont@@PAXHMPBUImFontConfig@@PBG@Z@4JA DD 06c2H ; `ImFontAtlas::AddFontFromMemoryTTF'::`1'::__LINE__Var
_DATA	ENDS
;	COMDAT ??_C@_0L@EPCGLJHG@?$CFs?0?5?$CF?40fpx@
CONST	SEGMENT
??_C@_0L@EPCGLJHG@?$CFs?0?5?$CF?40fpx@ DB '%s, %.0fpx', 00H ; `string'
CONST	ENDS
;	COMDAT ??_C@_1EG@KCPDJPKE@?$AA?$CI?$AA0?$AA?$CJ?$AA?5?$AA?$CG?$AA?$CG?$AA?5?$AA?$CC?$AAC?$AAo?$AAu?$AAl?$AAd?$AA?5?$AAn@
CONST	SEGMENT
??_C@_1EG@KCPDJPKE@?$AA?$CI?$AA0?$AA?$CJ?$AA?5?$AA?$CG?$AA?$CG?$AA?5?$AA?$CC?$AAC?$AAo?$AAu?$AAl?$AAd?$AA?5?$AAn@ DB '('
	DB	00H, '0', 00H, ')', 00H, ' ', 00H, '&', 00H, '&', 00H, ' ', 00H
	DB	'"', 00H, 'C', 00H, 'o', 00H, 'u', 00H, 'l', 00H, 'd', 00H, ' '
	DB	00H, 'n', 00H, 'o', 00H, 't', 00H, ' ', 00H, 'l', 00H, 'o', 00H
	DB	'a', 00H, 'd', 00H, ' ', 00H, 'f', 00H, 'o', 00H, 'n', 00H, 't'
	DB	00H, ' ', 00H, 'f', 00H, 'i', 00H, 'l', 00H, 'e', 00H, '!', 00H
	DB	'"', 00H, 00H, 00H				; `string'
CONST	ENDS
;	COMDAT ??_C@_02JDPG@rb@
CONST	SEGMENT
??_C@_02JDPG@rb@ DB 'rb', 00H				; `string'
CONST	ENDS
;	COMDAT ?__LINE__Var@?0??AddFontFromFileTTF@ImFontAtlas@@QAEPAUImFont@@PBDMPBUImFontConfig@@PBG@Z@4JA
_DATA	SEGMENT
?__LINE__Var@?0??AddFontFromFileTTF@ImFontAtlas@@QAEPAUImFont@@PBDMPBUImFontConfig@@PBG@Z@4JA DD 06acH ; `ImFontAtlas::AddFontFromFileTTF'::`1'::__LINE__Var
_DATA	ENDS
;	COMDAT ??_C@_0BG@CONABPA@ProggyClean?4ttf?0?5?$CFdpx@
CONST	SEGMENT
??_C@_0BG@CONABPA@ProggyClean?4ttf?0?5?$CFdpx@ DB 'ProggyClean.ttf, %dpx', 00H ; `string'
CONST	ENDS
;	COMDAT ??_C@_1HI@KOOOLAEJ@?$AA?$CB?$AAF?$AAo?$AAn?$AAt?$AAs?$AA?4?$AAe?$AAm?$AAp?$AAt?$AAy?$AA?$CI?$AA?$CJ?$AA?5@
CONST	SEGMENT
??_C@_1HI@KOOOLAEJ@?$AA?$CB?$AAF?$AAo?$AAn?$AAt?$AAs?$AA?4?$AAe?$AAm?$AAp?$AAt?$AAy?$AA?$CI?$AA?$CJ?$AA?5@ DB '!'
	DB	00H, 'F', 00H, 'o', 00H, 'n', 00H, 't', 00H, 's', 00H, '.', 00H
	DB	'e', 00H, 'm', 00H, 'p', 00H, 't', 00H, 'y', 00H, '(', 00H, ')'
	DB	00H, ' ', 00H, '&', 00H, '&', 00H, ' ', 00H, '"', 00H, 'C', 00H
	DB	'a', 00H, 'n', 00H, 'n', 00H, 'o', 00H, 't', 00H, ' ', 00H, 'u'
	DB	00H, 's', 00H, 'e', 00H, ' ', 00H, 'M', 00H, 'e', 00H, 'r', 00H
	DB	'g', 00H, 'e', 00H, 'M', 00H, 'o', 00H, 'd', 00H, 'e', 00H, ' '
	DB	00H, 'f', 00H, 'o', 00H, 'r', 00H, ' ', 00H, 't', 00H, 'h', 00H
	DB	'e', 00H, ' ', 00H, 'f', 00H, 'i', 00H, 'r', 00H, 's', 00H, 't'
	DB	00H, ' ', 00H, 'f', 00H, 'o', 00H, 'n', 00H, 't', 00H, '"', 00H
	DB	00H, 00H					; `string'
CONST	ENDS
;	COMDAT ??_C@_0CI@EDBCHFCN@Cannot?5use?5MergeMode?5for?5the?5fi@
CONST	SEGMENT
??_C@_0CI@EDBCHFCN@Cannot?5use?5MergeMode?5for?5the?5fi@ DB 'Cannot use M'
	DB	'ergeMode for the first font', 00H		; `string'
CONST	ENDS
;	COMDAT ??_C@_1DI@LEOIHPJH@?$AAf?$AAo?$AAn?$AAt?$AA_?$AAc?$AAf?$AAg?$AA?9?$AA?$DO?$AAS?$AAi?$AAz?$AAe?$AAP@
CONST	SEGMENT
??_C@_1DI@LEOIHPJH@?$AAf?$AAo?$AAn?$AAt?$AA_?$AAc?$AAf?$AAg?$AA?9?$AA?$DO?$AAS?$AAi?$AAz?$AAe?$AAP@ DB 'f'
	DB	00H, 'o', 00H, 'n', 00H, 't', 00H, '_', 00H, 'c', 00H, 'f', 00H
	DB	'g', 00H, '-', 00H, '>', 00H, 'S', 00H, 'i', 00H, 'z', 00H, 'e'
	DB	00H, 'P', 00H, 'i', 00H, 'x', 00H, 'e', 00H, 'l', 00H, 's', 00H
	DB	' ', 00H, '>', 00H, ' ', 00H, '0', 00H, '.', 00H, '0', 00H, 'f'
	DB	00H, 00H, 00H				; `string'
CONST	ENDS
;	COMDAT ??_C@_1GM@FAHJAOLI@?$AAf?$AAo?$AAn?$AAt?$AA_?$AAc?$AAf?$AAg?$AA?9?$AA?$DO?$AAF?$AAo?$AAn?$AAt?$AAD@
CONST	SEGMENT
??_C@_1GM@FAHJAOLI@?$AAf?$AAo?$AAn?$AAt?$AA_?$AAc?$AAf?$AAg?$AA?9?$AA?$DO?$AAF?$AAo?$AAn?$AAt?$AAD@ DB 'f'
	DB	00H, 'o', 00H, 'n', 00H, 't', 00H, '_', 00H, 'c', 00H, 'f', 00H
	DB	'g', 00H, '-', 00H, '>', 00H, 'F', 00H, 'o', 00H, 'n', 00H, 't'
	DB	00H, 'D', 00H, 'a', 00H, 't', 00H, 'a', 00H, ' ', 00H, '!', 00H
	DB	'=', 00H, ' ', 00H, '0', 00H, ' ', 00H, '&', 00H, '&', 00H, ' '
	DB	00H, 'f', 00H, 'o', 00H, 'n', 00H, 't', 00H, '_', 00H, 'c', 00H
	DB	'f', 00H, 'g', 00H, '-', 00H, '>', 00H, 'F', 00H, 'o', 00H, 'n'
	DB	00H, 't', 00H, 'D', 00H, 'a', 00H, 't', 00H, 'a', 00H, 'S', 00H
	DB	'i', 00H, 'z', 00H, 'e', 00H, ' ', 00H, '>', 00H, ' ', 00H, '0'
	DB	00H, 00H, 00H				; `string'
CONST	ENDS
;	COMDAT ?__LINE__Var@?0??AddFont@ImFontAtlas@@QAEPAUImFont@@PBUImFontConfig@@@Z@4JA
_DATA	SEGMENT
?__LINE__Var@?0??AddFont@ImFontAtlas@@QAEPAUImFont@@PBUImFontConfig@@@Z@4JA DD 0667H ; `ImFontAtlas::AddFont'::`1'::__LINE__Var
_DATA	ENDS
;	COMDAT ?__LINE__Var@?0??ClearFonts@ImFontAtlas@@QAEXXZ@4JA
_DATA	SEGMENT
?__LINE__Var@?0??ClearFonts@ImFontAtlas@@QAEXXZ@4JA DD 0630H ; `ImFontAtlas::ClearFonts'::`1'::__LINE__Var
_DATA	ENDS
;	COMDAT ?__LINE__Var@?0??ClearTexData@ImFontAtlas@@QAEXXZ@4JA
_DATA	SEGMENT
?__LINE__Var@?0??ClearTexData@ImFontAtlas@@QAEXXZ@4JA DD 0625H ; `ImFontAtlas::ClearTexData'::`1'::__LINE__Var
_DATA	ENDS
;	COMDAT ?__LINE__Var@?0??ClearInputData@ImFontAtlas@@QAEXXZ@4JA
_DATA	SEGMENT
?__LINE__Var@?0??ClearInputData@ImFontAtlas@@QAEXXZ@4JA DD 060eH ; `ImFontAtlas::ClearInputData'::`1'::__LINE__Var
_DATA	ENDS
;	COMDAT ??_C@_1LE@PGHOGCJ@?$AA?$CB?$AAL?$AAo?$AAc?$AAk?$AAe?$AAd?$AA?5?$AA?$CG?$AA?$CG?$AA?5?$AA?$CC?$AAC?$AAa?$AAn@
CONST	SEGMENT
??_C@_1LE@PGHOGCJ@?$AA?$CB?$AAL?$AAo?$AAc?$AAk?$AAe?$AAd?$AA?5?$AA?$CG?$AA?$CG?$AA?5?$AA?$CC?$AAC?$AAa?$AAn@ DB '!'
	DB	00H, 'L', 00H, 'o', 00H, 'c', 00H, 'k', 00H, 'e', 00H, 'd', 00H
	DB	' ', 00H, '&', 00H, '&', 00H, ' ', 00H, '"', 00H, 'C', 00H, 'a'
	DB	00H, 'n', 00H, 'n', 00H, 'o', 00H, 't', 00H, ' ', 00H, 'm', 00H
	DB	'o', 00H, 'd', 00H, 'i', 00H, 'f', 00H, 'y', 00H, ' ', 00H, 'a'
	DB	00H, ' ', 00H, 'l', 00H, 'o', 00H, 'c', 00H, 'k', 00H, 'e', 00H
	DB	'd', 00H, ' ', 00H, 'I', 00H, 'm', 00H, 'F', 00H, 'o', 00H, 'n'
	DB	00H, 't', 00H, 'A', 00H, 't', 00H, 'l', 00H, 'a', 00H, 's', 00H
	DB	' ', 00H, 'b', 00H, 'e', 00H, 't', 00H, 'w', 00H, 'e', 00H, 'e'
	DB	00H, 'n', 00H, ' ', 00H, 'N', 00H, 'e', 00H, 'w', 00H, 'F', 00H
	DB	'r', 00H, 'a', 00H, 'm', 00H, 'e', 00H, '(', 00H, ')', 00H, ' '
	DB	00H, 'a', 00H, 'n', 00H, 'd', 00H, ' ', 00H, 'E', 00H, 'n', 00H
	DB	'd', 00H, 'F', 00H, 'r', 00H, 'a', 00H, 'm', 00H, 'e', 00H, '/'
	DB	00H, 'R', 00H, 'e', 00H, 'n', 00H, 'd', 00H, 'e', 00H, 'r', 00H
	DB	'(', 00H, ')', 00H, '!', 00H, '"', 00H, 00H, 00H ; `string'
CONST	ENDS
;	COMDAT ??_C@_0EN@DLIEKEGM@Cannot?5modify?5a?5locked?5ImFontAt@
CONST	SEGMENT
??_C@_0EN@DLIEKEGM@Cannot?5modify?5a?5locked?5ImFontAt@ DB 'Cannot modify'
	DB	' a locked ImFontAtlas between NewFrame() and EndFrame/Render('
	DB	')!', 00H					; `string'
CONST	ENDS
;	COMDAT ?__LINE__Var@?0???1ImFontAtlas@@QAE@XZ@4JA
_DATA	SEGMENT
?__LINE__Var@?0???1ImFontAtlas@@QAE@XZ@4JA DD 0608H	; `ImFontAtlas::~ImFontAtlas'::`1'::__LINE__Var
_DATA	ENDS
;	COMDAT ??_C@_1DC@ILGGLBID@?$AAi?$AAd?$AAx?$AA?5?$AA?$DO?$AA?$DN?$AA?5?$AA0?$AA?5?$AA?$CG?$AA?$CG?$AA?5?$AAi?$AAd?$AAx@
CONST	SEGMENT
??_C@_1DC@ILGGLBID@?$AAi?$AAd?$AAx?$AA?5?$AA?$DO?$AA?$DN?$AA?5?$AA0?$AA?5?$AA?$CG?$AA?$CG?$AA?5?$AAi?$AAd?$AAx@ DB 'i'
	DB	00H, 'd', 00H, 'x', 00H, ' ', 00H, '>', 00H, '=', 00H, ' ', 00H
	DB	'0', 00H, ' ', 00H, '&', 00H, '&', 00H, ' ', 00H, 'i', 00H, 'd'
	DB	00H, 'x', 00H, ' ', 00H, '<', 00H, ' ', 00H, '_', 00H, 'C', 00H
	DB	'o', 00H, 'u', 00H, 'n', 00H, 't', 00H, 00H, 00H ; `string'
CONST	ENDS
;	COMDAT ?__LINE__Var@?0??SetCurrentChannel@ImDrawListSplitter@@QAEXPAUImDrawList@@H@Z@4JA
_DATA	SEGMENT
?__LINE__Var@?0??SetCurrentChannel@ImDrawListSplitter@@QAEXPAUImDrawList@@H@Z@4JA DD 0543H ; `ImDrawListSplitter::SetCurrentChannel'::`1'::__LINE__Var
_DATA	ENDS
;	COMDAT ??_C@_1DK@EHEALEDG@?$AA_?$AAC?$AAu?$AAr?$AAr?$AAe?$AAn?$AAt?$AA?5?$AA?$DN?$AA?$DN?$AA?5?$AA0?$AA?5?$AA?$CG@
CONST	SEGMENT
??_C@_1DK@EHEALEDG@?$AA_?$AAC?$AAu?$AAr?$AAr?$AAe?$AAn?$AAt?$AA?5?$AA?$DN?$AA?$DN?$AA?5?$AA0?$AA?5?$AA?$CG@ DB '_'
	DB	00H, 'C', 00H, 'u', 00H, 'r', 00H, 'r', 00H, 'e', 00H, 'n', 00H
	DB	't', 00H, ' ', 00H, '=', 00H, '=', 00H, ' ', 00H, '0', 00H, ' '
	DB	00H, '&', 00H, '&', 00H, ' ', 00H, '_', 00H, 'C', 00H, 'o', 00H
	DB	'u', 00H, 'n', 00H, 't', 00H, ' ', 00H, '<', 00H, '=', 00H, ' '
	DB	00H, '1', 00H, 00H, 00H			; `string'
CONST	ENDS
;	COMDAT ?__LINE__Var@?0??Split@ImDrawListSplitter@@QAEXPAUImDrawList@@H@Z@4JA
_DATA	SEGMENT
?__LINE__Var@?0??Split@ImDrawListSplitter@@QAEXPAUImDrawList@@H@Z@4JA DD 04e6H ; `ImDrawListSplitter::Split'::`1'::__LINE__Var
_DATA	ENDS
;	COMDAT ??_C@_1GM@DGBHKFGF@?$AAf?$AAo?$AAn?$AAt?$AA?9?$AA?$DO?$AAC?$AAo?$AAn?$AAt?$AAa?$AAi?$AAn?$AAe?$AAr@
CONST	SEGMENT
??_C@_1GM@DGBHKFGF@?$AAf?$AAo?$AAn?$AAt?$AA?9?$AA?$DO?$AAC?$AAo?$AAn?$AAt?$AAa?$AAi?$AAn?$AAe?$AAr@ DB 'f'
	DB	00H, 'o', 00H, 'n', 00H, 't', 00H, '-', 00H, '>', 00H, 'C', 00H
	DB	'o', 00H, 'n', 00H, 't', 00H, 'a', 00H, 'i', 00H, 'n', 00H, 'e'
	DB	00H, 'r', 00H, 'A', 00H, 't', 00H, 'l', 00H, 'a', 00H, 's', 00H
	DB	'-', 00H, '>', 00H, 'T', 00H, 'e', 00H, 'x', 00H, 'I', 00H, 'D'
	DB	00H, ' ', 00H, '=', 00H, '=', 00H, ' ', 00H, '_', 00H, 'T', 00H
	DB	'e', 00H, 'x', 00H, 't', 00H, 'u', 00H, 'r', 00H, 'e', 00H, 'I'
	DB	00H, 'd', 00H, 'S', 00H, 't', 00H, 'a', 00H, 'c', 00H, 'k', 00H
	DB	'.', 00H, 'b', 00H, 'a', 00H, 'c', 00H, 'k', 00H, '(', 00H, ')'
	DB	00H, 00H, 00H				; `string'
CONST	ENDS
;	COMDAT ?__LINE__Var@?0??AddText@ImDrawList@@QAEXPBUImFont@@MABUImVec2@@IPBD2MPBUImVec4@@@Z@4JA
_DATA	SEGMENT
?__LINE__Var@?0??AddText@ImDrawList@@QAEXPBUImFont@@MABUImVec2@@IPBD2MPBUImVec4@@@Z@4JA DD 0476H ; `ImDrawList::AddText'::`1'::__LINE__Var
_DATA	ENDS
;	COMDAT ??_C@_1DC@CKLENJON@?$AA_?$AAT?$AAe?$AAx?$AAt?$AAu?$AAr?$AAe?$AAI?$AAd?$AAS?$AAt?$AAa?$AAc?$AAk@
CONST	SEGMENT
??_C@_1DC@CKLENJON@?$AA_?$AAT?$AAe?$AAx?$AAt?$AAu?$AAr?$AAe?$AAI?$AAd?$AAS?$AAt?$AAa?$AAc?$AAk@ DB '_'
	DB	00H, 'T', 00H, 'e', 00H, 'x', 00H, 't', 00H, 'u', 00H, 'r', 00H
	DB	'e', 00H, 'I', 00H, 'd', 00H, 'S', 00H, 't', 00H, 'a', 00H, 'c'
	DB	00H, 'k', 00H, '.', 00H, 'S', 00H, 'i', 00H, 'z', 00H, 'e', 00H
	DB	' ', 00H, '>', 00H, ' ', 00H, '0', 00H, 00H, 00H ; `string'
CONST	ENDS
;	COMDAT ?__LINE__Var@?0??PopTextureID@ImDrawList@@QAEXXZ@4JA
_DATA	SEGMENT
?__LINE__Var@?0??PopTextureID@ImDrawList@@QAEXXZ@4JA DD 0201H ; `ImDrawList::PopTextureID'::`1'::__LINE__Var
_DATA	ENDS
;	COMDAT ??_C@_1DA@MJAOFGMF@?$AA_?$AAC?$AAl?$AAi?$AAp?$AAR?$AAe?$AAc?$AAt?$AAS?$AAt?$AAa?$AAc?$AAk?$AA?4@
CONST	SEGMENT
??_C@_1DA@MJAOFGMF@?$AA_?$AAC?$AAl?$AAi?$AAp?$AAR?$AAe?$AAc?$AAt?$AAS?$AAt?$AAa?$AAc?$AAk?$AA?4@ DB '_'
	DB	00H, 'C', 00H, 'l', 00H, 'i', 00H, 'p', 00H, 'R', 00H, 'e', 00H
	DB	'c', 00H, 't', 00H, 'S', 00H, 't', 00H, 'a', 00H, 'c', 00H, 'k'
	DB	00H, '.', 00H, 'S', 00H, 'i', 00H, 'z', 00H, 'e', 00H, ' ', 00H
	DB	'>', 00H, ' ', 00H, '0', 00H, 00H, 00H	; `string'
CONST	ENDS
;	COMDAT ?__LINE__Var@?0??PopClipRect@ImDrawList@@QAEXXZ@4JA
_DATA	SEGMENT
?__LINE__Var@?0??PopClipRect@ImDrawList@@QAEXXZ@4JA DD 01f4H ; `ImDrawList::PopClipRect'::`1'::__LINE__Var
_DATA	ENDS
;	COMDAT ??_C@_1LC@MAEAJCLC@?$AAd?$AAr?$AAa?$AAw?$AA_?$AAc?$AAm?$AAd?$AA?4?$AAC?$AAl?$AAi?$AAp?$AAR?$AAe@
CONST	SEGMENT
??_C@_1LC@MAEAJCLC@?$AAd?$AAr?$AAa?$AAw?$AA_?$AAc?$AAm?$AAd?$AA?4?$AAC?$AAl?$AAi?$AAp?$AAR?$AAe@ DB 'd'
	DB	00H, 'r', 00H, 'a', 00H, 'w', 00H, '_', 00H, 'c', 00H, 'm', 00H
	DB	'd', 00H, '.', 00H, 'C', 00H, 'l', 00H, 'i', 00H, 'p', 00H, 'R'
	DB	00H, 'e', 00H, 'c', 00H, 't', 00H, '.', 00H, 'x', 00H, ' ', 00H
	DB	'<', 00H, '=', 00H, ' ', 00H, 'd', 00H, 'r', 00H, 'a', 00H, 'w'
	DB	00H, '_', 00H, 'c', 00H, 'm', 00H, 'd', 00H, '.', 00H, 'C', 00H
	DB	'l', 00H, 'i', 00H, 'p', 00H, 'R', 00H, 'e', 00H, 'c', 00H, 't'
	DB	00H, '.', 00H, 'z', 00H, ' ', 00H, '&', 00H, '&', 00H, ' ', 00H
	DB	'd', 00H, 'r', 00H, 'a', 00H, 'w', 00H, '_', 00H, 'c', 00H, 'm'
	DB	00H, 'd', 00H, '.', 00H, 'C', 00H, 'l', 00H, 'i', 00H, 'p', 00H
	DB	'R', 00H, 'e', 00H, 'c', 00H, 't', 00H, '.', 00H, 'y', 00H, ' '
	DB	00H, '<', 00H, '=', 00H, ' ', 00H, 'd', 00H, 'r', 00H, 'a', 00H
	DB	'w', 00H, '_', 00H, 'c', 00H, 'm', 00H, 'd', 00H, '.', 00H, 'C'
	DB	00H, 'l', 00H, 'i', 00H, 'p', 00H, 'R', 00H, 'e', 00H, 'c', 00H
	DB	't', 00H, '.', 00H, 'w', 00H, 00H, 00H	; `string'
CONST	ENDS
;	COMDAT ??_C@_1LA@MPFJCAF@?$AAD?$AA?3?$AA?2?$AAP?$AAr?$AAo?$AAg?$AAr?$AAa?$AAm?$AAm?$AAi?$AAe?$AAr?$AAe@
CONST	SEGMENT
??_C@_1LA@MPFJCAF@?$AAD?$AA?3?$AA?2?$AAP?$AAr?$AAo?$AAg?$AAr?$AAa?$AAm?$AAm?$AAi?$AAe?$AAr?$AAe@ DB 'D'
	DB	00H, ':', 00H, '\', 00H, 'P', 00H, 'r', 00H, 'o', 00H, 'g', 00H
	DB	'r', 00H, 'a', 00H, 'm', 00H, 'm', 00H, 'i', 00H, 'e', 00H, 'r'
	DB	00H, 'e', 00H, 'n', 00H, '\', 00H, 'c', 00H, 's', 00H, 'g', 00H
	DB	'o', 00H, 'H', 00H, 'a', 00H, 'c', 00H, 'k', 00H, '\', 00H, 'P'
	DB	00H, 'r', 00H, 'o', 00H, 'j', 00H, 'e', 00H, 'k', 00H, 't', 00H
	DB	'W', 00H, 'o', 00H, 'l', 00H, 'f', 00H, '\', 00H, 'I', 00H, 'm'
	DB	00H, 'G', 00H, 'u', 00H, 'i', 00H, ' ', 00H, 'D', 00H, 'i', 00H
	DB	'r', 00H, 'e', 00H, 'c', 00H, 't', 00H, 'X', 00H, ' ', 00H, '9'
	DB	00H, ' ', 00H, 'K', 00H, 'i', 00H, 'e', 00H, 'r', 00H, 'o', 00H
	DB	' ', 00H, 'H', 00H, 'o', 00H, 'o', 00H, 'k', 00H, ' ', 00H, '2'
	DB	00H, '\', 00H, 'i', 00H, 'm', 00H, 'g', 00H, 'u', 00H, 'i', 00H
	DB	'\', 00H, 'i', 00H, 'm', 00H, 'g', 00H, 'u', 00H, 'i', 00H, '_'
	DB	00H, 'd', 00H, 'r', 00H, 'a', 00H, 'w', 00H, '.', 00H, 'c', 00H
	DB	'p', 00H, 'p', 00H, 00H, 00H			; `string'
CONST	ENDS
;	COMDAT ?__LINE__Var@?0??AddDrawCmd@ImDrawList@@QAEXXZ@4JA
_DATA	SEGMENT
?__LINE__Var@?0??AddDrawCmd@ImDrawList@@QAEXXZ@4JA DD 0197H ; `ImDrawList::AddDrawCmd'::`1'::__LINE__Var
_DATA	ENDS
;	COMDAT ??_C@_1DO@LAPBLJ@?$AAp?$AAi?$AAx?$AAe?$AAl?$AAs?$AA?$FL?$AAi?$AA?$CK?$AAs?$AAt?$AAr?$AAi?$AAd?$AAe@
CONST	SEGMENT
??_C@_1DO@LAPBLJ@?$AAp?$AAi?$AAx?$AAe?$AAl?$AAs?$AA?$FL?$AAi?$AA?$CK?$AAs?$AAt?$AAr?$AAi?$AAd?$AAe@ DB 'p'
	DB	00H, 'i', 00H, 'x', 00H, 'e', 00H, 'l', 00H, 's', 00H, '[', 00H
	DB	'i', 00H, '*', 00H, 's', 00H, 't', 00H, 'r', 00H, 'i', 00H, 'd'
	DB	00H, 'e', 00H, '_', 00H, 'i', 00H, 'n', 00H, '_', 00H, 'b', 00H
	DB	'y', 00H, 't', 00H, 'e', 00H, 's', 00H, ']', 00H, ' ', 00H, '='
	DB	00H, '=', 00H, ' ', 00H, '0', 00H, 00H, 00H	; `string'
CONST	ENDS
;	COMDAT ?__LINE__Var@?0??stbtt__v_prefilter@@YAXPAEHHHI@Z@4JA
_DATA	SEGMENT
?__LINE__Var@?0??stbtt__v_prefilter@@YAXPAEHHHI@Z@4JA DD 0f4bH ; `stbtt__v_prefilter'::`1'::__LINE__Var
_DATA	ENDS
;	COMDAT ??_C@_1BO@BDJAMAMF@?$AAp?$AAi?$AAx?$AAe?$AAl?$AAs?$AA?$FL?$AAi?$AA?$FN?$AA?5?$AA?$DN?$AA?$DN?$AA?5?$AA0@
CONST	SEGMENT
??_C@_1BO@BDJAMAMF@?$AAp?$AAi?$AAx?$AAe?$AAl?$AAs?$AA?$FL?$AAi?$AA?$FN?$AA?5?$AA?$DN?$AA?$DN?$AA?5?$AA0@ DB 'p'
	DB	00H, 'i', 00H, 'x', 00H, 'e', 00H, 'l', 00H, 's', 00H, '[', 00H
	DB	'i', 00H, ']', 00H, ' ', 00H, '=', 00H, '=', 00H, ' ', 00H, '0'
	DB	00H, 00H, 00H				; `string'
CONST	ENDS
;	COMDAT ?__LINE__Var@?0??stbtt__h_prefilter@@YAXPAEHHHI@Z@4JA
_DATA	SEGMENT
?__LINE__Var@?0??stbtt__h_prefilter@@YAXPAEHHHI@Z@4JA DD 0f0dH ; `stbtt__h_prefilter'::`1'::__LINE__Var
_DATA	ENDS
;	COMDAT ??_C@_1CI@PMJHELI@?$AAz?$AA?9?$AA?$DO?$AAe?$AAy?$AA?5?$AA?$DO?$AA?$DN?$AA?5?$AAs?$AAc?$AAa?$AAn?$AA_?$AAy@
CONST	SEGMENT
??_C@_1CI@PMJHELI@?$AAz?$AA?9?$AA?$DO?$AAe?$AAy?$AA?5?$AA?$DO?$AA?$DN?$AA?5?$AAs?$AAc?$AAa?$AAn?$AA_?$AAy@ DB 'z'
	DB	00H, '-', 00H, '>', 00H, 'e', 00H, 'y', 00H, ' ', 00H, '>', 00H
	DB	'=', 00H, ' ', 00H, 's', 00H, 'c', 00H, 'a', 00H, 'n', 00H, '_'
	DB	00H, 'y', 00H, '_', 00H, 't', 00H, 'o', 00H, 'p', 00H, 00H, 00H ; `string'
CONST	ENDS
;	COMDAT ??_C@_1BK@LMAHJHLI@?$AAz?$AA?9?$AA?$DO?$AAd?$AAi?$AAr?$AAe?$AAc?$AAt?$AAi?$AAo?$AAn@
CONST	SEGMENT
??_C@_1BK@LMAHJHLI@?$AAz?$AA?9?$AA?$DO?$AAd?$AAi?$AAr?$AAe?$AAc?$AAt?$AAi?$AAo?$AAn@ DB 'z'
	DB	00H, '-', 00H, '>', 00H, 'd', 00H, 'i', 00H, 'r', 00H, 'e', 00H
	DB	'c', 00H, 't', 00H, 'i', 00H, 'o', 00H, 'n', 00H, 00H, 00H ; `string'
CONST	ENDS
;	COMDAT ?__LINE__Var@?0??stbtt__rasterize_sorted_edges@@YAXPAUstbtt__bitmap@@PAUstbtt__edge@@HHHHPAX@Z@4JA
_DATA	SEGMENT
?__LINE__Var@?0??stbtt__rasterize_sorted_edges@@YAXPAUstbtt__bitmap@@PAUstbtt__edge@@HHHHPAX@Z@4JA DD 0c42H ; `stbtt__rasterize_sorted_edges'::`1'::__LINE__Var
_DATA	ENDS
;	COMDAT ??_C@_1CM@OJNMKDLP@?$AAI?$AAm?$AAF?$AAa?$AAb?$AAs?$AA?$CI?$AAa?$AAr?$AAe?$AAa?$AA?$CJ?$AA?5?$AA?$DM?$AA?$DN@
CONST	SEGMENT
??_C@_1CM@OJNMKDLP@?$AAI?$AAm?$AAF?$AAa?$AAb?$AAs?$AA?$CI?$AAa?$AAr?$AAe?$AAa?$AA?$CJ?$AA?5?$AA?$DM?$AA?$DN@ DB 'I'
	DB	00H, 'm', 00H, 'F', 00H, 'a', 00H, 'b', 00H, 's', 00H, '(', 00H
	DB	'a', 00H, 'r', 00H, 'e', 00H, 'a', 00H, ')', 00H, ' ', 00H, '<'
	DB	00H, '=', 00H, ' ', 00H, '1', 00H, '.', 00H, '0', 00H, '1', 00H
	DB	'f', 00H, 00H, 00H				; `string'
CONST	ENDS
;	COMDAT ??_C@_1CE@GDDDMDCC@?$AAx?$AA?5?$AA?$DO?$AA?$DN?$AA?5?$AA0?$AA?5?$AA?$CG?$AA?$CG?$AA?5?$AAx?$AA?5?$AA?$DM?$AA?5?$AAl@
CONST	SEGMENT
??_C@_1CE@GDDDMDCC@?$AAx?$AA?5?$AA?$DO?$AA?$DN?$AA?5?$AA0?$AA?5?$AA?$CG?$AA?$CG?$AA?5?$AAx?$AA?5?$AA?$DM?$AA?5?$AAl@ DB 'x'
	DB	00H, ' ', 00H, '>', 00H, '=', 00H, ' ', 00H, '0', 00H, ' ', 00H
	DB	'&', 00H, '&', 00H, ' ', 00H, 'x', 00H, ' ', 00H, '<', 00H, ' '
	DB	00H, 'l', 00H, 'e', 00H, 'n', 00H, 00H, 00H	; `string'
CONST	ENDS
;	COMDAT ??_C@_1EI@KOIFPDFH@?$AAe?$AA?9?$AA?$DO?$AAs?$AAy?$AA?5?$AA?$DM?$AA?$DN?$AA?5?$AAy?$AA_?$AAb?$AAo?$AAt?$AAt@
CONST	SEGMENT
??_C@_1EI@KOIFPDFH@?$AAe?$AA?9?$AA?$DO?$AAs?$AAy?$AA?5?$AA?$DM?$AA?$DN?$AA?5?$AAy?$AA_?$AAb?$AAo?$AAt?$AAt@ DB 'e'
	DB	00H, '-', 00H, '>', 00H, 's', 00H, 'y', 00H, ' ', 00H, '<', 00H
	DB	'=', 00H, ' ', 00H, 'y', 00H, '_', 00H, 'b', 00H, 'o', 00H, 't'
	DB	00H, 't', 00H, 'o', 00H, 'm', 00H, ' ', 00H, '&', 00H, '&', 00H
	DB	' ', 00H, 'e', 00H, '-', 00H, '>', 00H, 'e', 00H, 'y', 00H, ' '
	DB	00H, '>', 00H, '=', 00H, ' ', 00H, 'y', 00H, '_', 00H, 't', 00H
	DB	'o', 00H, 'p', 00H, 00H, 00H			; `string'
CONST	ENDS
;	COMDAT ??_C@_1BO@MDBOACOJ@?$AAe?$AA?9?$AA?$DO?$AAe?$AAy?$AA?5?$AA?$DO?$AA?$DN?$AA?5?$AAy?$AA_?$AAt?$AAo?$AAp@
CONST	SEGMENT
??_C@_1BO@MDBOACOJ@?$AAe?$AA?9?$AA?$DO?$AAe?$AAy?$AA?5?$AA?$DO?$AA?$DN?$AA?5?$AAy?$AA_?$AAt?$AAo?$AAp@ DB 'e'
	DB	00H, '-', 00H, '>', 00H, 'e', 00H, 'y', 00H, ' ', 00H, '>', 00H
	DB	'=', 00H, ' ', 00H, 'y', 00H, '_', 00H, 't', 00H, 'o', 00H, 'p'
	DB	00H, 00H, 00H				; `string'
CONST	ENDS
;	COMDAT ?__LINE__Var@?0??stbtt__fill_active_edges_new@@YAXPAM0HPAUstbtt__active_edge@@M@Z@4JA
_DATA	SEGMENT
?__LINE__Var@?0??stbtt__fill_active_edges_new@@YAXPAM0HPAUstbtt__active_edge@@M@Z@4JA DD 0b9eH ; `stbtt__fill_active_edges_new'::`1'::__LINE__Var
_DATA	ENDS
;	COMDAT ??_C@_1FK@JPMIPNJF@?$AAx?$AA0?$AA?5?$AA?$DO?$AA?$DN?$AA?5?$AAx?$AA?5?$AA?$CG?$AA?$CG?$AA?5?$AAx?$AA0?$AA?5?$AA?$DM@
CONST	SEGMENT
??_C@_1FK@JPMIPNJF@?$AAx?$AA0?$AA?5?$AA?$DO?$AA?$DN?$AA?5?$AAx?$AA?5?$AA?$CG?$AA?$CG?$AA?5?$AAx?$AA0?$AA?5?$AA?$DM@ DB 'x'
	DB	00H, '0', 00H, ' ', 00H, '>', 00H, '=', 00H, ' ', 00H, 'x', 00H
	DB	' ', 00H, '&', 00H, '&', 00H, ' ', 00H, 'x', 00H, '0', 00H, ' '
	DB	00H, '<', 00H, '=', 00H, ' ', 00H, 'x', 00H, '+', 00H, '1', 00H
	DB	' ', 00H, '&', 00H, '&', 00H, ' ', 00H, 'x', 00H, '1', 00H, ' '
	DB	00H, '>', 00H, '=', 00H, ' ', 00H, 'x', 00H, ' ', 00H, '&', 00H
	DB	'&', 00H, ' ', 00H, 'x', 00H, '1', 00H, ' ', 00H, '<', 00H, '='
	DB	00H, ' ', 00H, 'x', 00H, '+', 00H, '1', 00H, 00H, 00H ; `string'
CONST	ENDS
;	COMDAT ??_C@_1CK@NILBPPPH@?$AAx?$AA1?$AA?5?$AA?$DO?$AA?$DN?$AA?5?$AAx?$AA?5?$AA?$CG?$AA?$CG?$AA?5?$AAx?$AA1?$AA?5?$AA?$DM@
CONST	SEGMENT
??_C@_1CK@NILBPPPH@?$AAx?$AA1?$AA?5?$AA?$DO?$AA?$DN?$AA?5?$AAx?$AA?5?$AA?$CG?$AA?$CG?$AA?5?$AAx?$AA1?$AA?5?$AA?$DM@ DB 'x'
	DB	00H, '1', 00H, ' ', 00H, '>', 00H, '=', 00H, ' ', 00H, 'x', 00H
	DB	' ', 00H, '&', 00H, '&', 00H, ' ', 00H, 'x', 00H, '1', 00H, ' '
	DB	00H, '<', 00H, '=', 00H, ' ', 00H, 'x', 00H, '+', 00H, '1', 00H
	DB	00H, 00H					; `string'
CONST	ENDS
;	COMDAT ??_C@_1BE@NGGEAFFG@?$AAx?$AA1?$AA?5?$AA?$DO?$AA?$DN?$AA?5?$AAx?$AA?$CL?$AA1@
CONST	SEGMENT
??_C@_1BE@NGGEAFFG@?$AAx?$AA1?$AA?5?$AA?$DO?$AA?$DN?$AA?5?$AAx?$AA?$CL?$AA1@ DB 'x'
	DB	00H, '1', 00H, ' ', 00H, '>', 00H, '=', 00H, ' ', 00H, 'x', 00H
	DB	'+', 00H, '1', 00H, 00H, 00H			; `string'
CONST	ENDS
;	COMDAT ??_C@_1BA@FEPJEPJJ@?$AAx?$AA1?$AA?5?$AA?$DM?$AA?$DN?$AA?5?$AAx@
CONST	SEGMENT
??_C@_1BA@FEPJEPJJ@?$AAx?$AA1?$AA?5?$AA?$DM?$AA?$DN?$AA?5?$AAx@ DB 'x', 00H
	DB	'1', 00H, ' ', 00H, '<', 00H, '=', 00H, ' ', 00H, 'x', 00H, 00H
	DB	00H						; `string'
CONST	ENDS
;	COMDAT ??_C@_1BA@FAAMJPKE@?$AAx?$AA1?$AA?5?$AA?$DO?$AA?$DN?$AA?5?$AAx@
CONST	SEGMENT
??_C@_1BA@FAAMJPKE@?$AAx?$AA1?$AA?5?$AA?$DO?$AA?$DN?$AA?5?$AAx@ DB 'x', 00H
	DB	'1', 00H, ' ', 00H, '>', 00H, '=', 00H, ' ', 00H, 'x', 00H, 00H
	DB	00H						; `string'
CONST	ENDS
;	COMDAT ??_C@_1BE@DHAKMBPL@?$AAx?$AA1?$AA?5?$AA?$DM?$AA?$DN?$AA?5?$AAx?$AA?$CL?$AA1@
CONST	SEGMENT
??_C@_1BE@DHAKMBPL@?$AAx?$AA1?$AA?5?$AA?$DM?$AA?$DN?$AA?5?$AAx?$AA?$CL?$AA1@ DB 'x'
	DB	00H, '1', 00H, ' ', 00H, '<', 00H, '=', 00H, ' ', 00H, 'x', 00H
	DB	'+', 00H, '1', 00H, 00H, 00H			; `string'
CONST	ENDS
;	COMDAT ??_C@_1BO@JGPMADBG@?$AAe?$AA?9?$AA?$DO?$AAs?$AAy?$AA?5?$AA?$DM?$AA?$DN?$AA?5?$AAe?$AA?9?$AA?$DO?$AAe?$AAy@
CONST	SEGMENT
??_C@_1BO@JGPMADBG@?$AAe?$AA?9?$AA?$DO?$AAs?$AAy?$AA?5?$AA?$DM?$AA?$DN?$AA?5?$AAe?$AA?9?$AA?$DO?$AAe?$AAy@ DB 'e'
	DB	00H, '-', 00H, '>', 00H, 's', 00H, 'y', 00H, ' ', 00H, '<', 00H
	DB	'=', 00H, ' ', 00H, 'e', 00H, '-', 00H, '>', 00H, 'e', 00H, 'y'
	DB	00H, 00H, 00H				; `string'
CONST	ENDS
;	COMDAT ??_C@_1BA@ENLNFFAM@?$AAy?$AA0?$AA?5?$AA?$DM?$AA?5?$AAy?$AA1@
CONST	SEGMENT
??_C@_1BA@ENLNFFAM@?$AAy?$AA0?$AA?5?$AA?$DM?$AA?5?$AAy?$AA1@ DB 'y', 00H, '0'
	DB	00H, ' ', 00H, '<', 00H, ' ', 00H, 'y', 00H, '1', 00H, 00H, 00H ; `string'
CONST	ENDS
;	COMDAT ?__LINE__Var@?0??stbtt__handle_clipped_edge@@YAXPAMHPAUstbtt__active_edge@@MMMM@Z@4JA
_DATA	SEGMENT
?__LINE__Var@?0??stbtt__handle_clipped_edge@@YAXPAMHPAUstbtt__active_edge@@MMMM@Z@4JA DD 0b79H ; `stbtt__handle_clipped_edge'::`1'::__LINE__Var
_DATA	ENDS
;	COMDAT ??_C@_1O@EHPNOHML@?$AAz?$AA?5?$AA?$CB?$AA?$DN?$AA?5?$AA0@
CONST	SEGMENT
??_C@_1O@EHPNOHML@?$AAz?$AA?5?$AA?$CB?$AA?$DN?$AA?5?$AA0@ DB 'z', 00H, ' '
	DB	00H, '!', 00H, '=', 00H, ' ', 00H, '0', 00H, 00H, 00H ; `string'
CONST	ENDS
;	COMDAT ?__LINE__Var@?0??stbtt__new_active@@YAPAUstbtt__active_edge@@PAUstbtt__hheap@@PAUstbtt__edge@@HMPAX@Z@4JA
_DATA	SEGMENT
?__LINE__Var@?0??stbtt__new_active@@YAPAUstbtt__active_edge@@PAUstbtt__hheap@@PAUstbtt__edge@@HMPAX@Z@4JA DD 0aceH ; `stbtt__new_active'::`1'::__LINE__Var
_DATA	ENDS
;	COMDAT ??_C@_1GE@KABFAMEA@?$AAo?$AAu?$AAt?$AAp?$AAu?$AAt?$AA_?$AAc?$AAt?$AAx?$AA?4?$AAn?$AAu?$AAm?$AA_@
CONST	SEGMENT
??_C@_1GE@KABFAMEA@?$AAo?$AAu?$AAt?$AAp?$AAu?$AAt?$AA_?$AAc?$AAt?$AAx?$AA?4?$AAn?$AAu?$AAm?$AA_@ DB 'o'
	DB	00H, 'u', 00H, 't', 00H, 'p', 00H, 'u', 00H, 't', 00H, '_', 00H
	DB	'c', 00H, 't', 00H, 'x', 00H, '.', 00H, 'n', 00H, 'u', 00H, 'm'
	DB	00H, '_', 00H, 'v', 00H, 'e', 00H, 'r', 00H, 't', 00H, 'i', 00H
	DB	'c', 00H, 'e', 00H, 's', 00H, ' ', 00H, '=', 00H, '=', 00H, ' '
	DB	00H, 'c', 00H, 'o', 00H, 'u', 00H, 'n', 00H, 't', 00H, '_', 00H
	DB	'c', 00H, 't', 00H, 'x', 00H, '.', 00H, 'n', 00H, 'u', 00H, 'm'
	DB	00H, '_', 00H, 'v', 00H, 'e', 00H, 'r', 00H, 't', 00H, 'i', 00H
	DB	'c', 00H, 'e', 00H, 's', 00H, 00H, 00H	; `string'
CONST	ENDS
;	COMDAT ?__LINE__Var@?0??stbtt__GetGlyphShapeT2@@YAHPBUstbtt_fontinfo@@HPAPAUstbtt_vertex@@@Z@4JA
_DATA	SEGMENT
?__LINE__Var@?0??stbtt__GetGlyphShapeT2@@YAHPBUstbtt_fontinfo@@HPAPAUstbtt_vertex@@@Z@4JA DD 08beH ; `stbtt__GetGlyphShapeT2'::`1'::__LINE__Var
_DATA	ENDS
;	COMDAT ?__LINE__Var@?0??stbtt__GetGlyphShapeTT@@YAHPBUstbtt_fontinfo@@HPAPAUstbtt_vertex@@@Z@4JA
_DATA	SEGMENT
?__LINE__Var@?0??stbtt__GetGlyphShapeTT@@YAHPBUstbtt_fontinfo@@HPAPAUstbtt_vertex@@@Z@4JA DD 0668H ; `stbtt__GetGlyphShapeTT'::`1'::__LINE__Var
_DATA	ENDS
;	COMDAT ??_C@_1CA@MDABGEPC@?$AA?$CB?$AAi?$AAn?$AAf?$AAo?$AA?9?$AA?$DO?$AAc?$AAf?$AAf?$AA?4?$AAs?$AAi?$AAz?$AAe@
CONST	SEGMENT
??_C@_1CA@MDABGEPC@?$AA?$CB?$AAi?$AAn?$AAf?$AAo?$AA?9?$AA?$DO?$AAc?$AAf?$AAf?$AA?4?$AAs?$AAi?$AAz?$AAe@ DB '!'
	DB	00H, 'i', 00H, 'n', 00H, 'f', 00H, 'o', 00H, '-', 00H, '>', 00H
	DB	'c', 00H, 'f', 00H, 'f', 00H, '.', 00H, 's', 00H, 'i', 00H, 'z'
	DB	00H, 'e', 00H, 00H, 00H			; `string'
CONST	ENDS
;	COMDAT ?__LINE__Var@?0??stbtt__GetGlyfOffset@@YAHPBUstbtt_fontinfo@@H@Z@4JA
_DATA	SEGMENT
?__LINE__Var@?0??stbtt__GetGlyfOffset@@YAHPBUstbtt_fontinfo@@H@Z@4JA DD 0621H ; `stbtt__GetGlyfOffset'::`1'::__LINE__Var
_DATA	ENDS
;	COMDAT ??_C@_1HA@EBGBJFDE@?$AAu?$AAn?$AAi?$AAc?$AAo?$AAd?$AAe?$AA_?$AAc?$AAo?$AAd?$AAe?$AAp?$AAo?$AAi@
CONST	SEGMENT
??_C@_1HA@EBGBJFDE@?$AAu?$AAn?$AAi?$AAc?$AAo?$AAd?$AAe?$AA_?$AAc?$AAo?$AAd?$AAe?$AAp?$AAo?$AAi@ DB 'u'
	DB	00H, 'n', 00H, 'i', 00H, 'c', 00H, 'o', 00H, 'd', 00H, 'e', 00H
	DB	'_', 00H, 'c', 00H, 'o', 00H, 'd', 00H, 'e', 00H, 'p', 00H, 'o'
	DB	00H, 'i', 00H, 'n', 00H, 't', 00H, ' ', 00H, '<', 00H, '=', 00H
	DB	' ', 00H, 't', 00H, 't', 00H, 'U', 00H, 'S', 00H, 'H', 00H, 'O'
	DB	00H, 'R', 00H, 'T', 00H, '(', 00H, 'd', 00H, 'a', 00H, 't', 00H
	DB	'a', 00H, ' ', 00H, '+', 00H, ' ', 00H, 'e', 00H, 'n', 00H, 'd'
	DB	00H, 'C', 00H, 'o', 00H, 'u', 00H, 'n', 00H, 't', 00H, ' ', 00H
	DB	'+', 00H, ' ', 00H, '2', 00H, '*', 00H, 'i', 00H, 't', 00H, 'e'
	DB	00H, 'm', 00H, ')', 00H, 00H, 00H		; `string'
CONST	ENDS
;	COMDAT ?__LINE__Var@?0??stbtt_FindGlyphIndex@@9@4JA
_DATA	SEGMENT
?__LINE__Var@?0??stbtt_FindGlyphIndex@@9@4JA DD 05b6H	; `stbtt_FindGlyphIndex'::`1'::__LINE__Var
_DATA	ENDS
;	COMDAT ??_C@_04KODIGLGG@maxp@
CONST	SEGMENT
??_C@_04KODIGLGG@maxp@ DB 'maxp', 00H			; `string'
CONST	ENDS
;	COMDAT ??_C@_04HJGCPIEK@CFF?5@
CONST	SEGMENT
??_C@_04HJGCPIEK@CFF?5@ DB 'CFF ', 00H			; `string'
CONST	ENDS
;	COMDAT ??_C@_04PCFDEHHD@GPOS@
CONST	SEGMENT
??_C@_04PCFDEHHD@GPOS@ DB 'GPOS', 00H			; `string'
CONST	ENDS
;	COMDAT ??_C@_04HHMMLDJI@kern@
CONST	SEGMENT
??_C@_04HHMMLDJI@kern@ DB 'kern', 00H			; `string'
CONST	ENDS
;	COMDAT ??_C@_04ONMNCIMC@hmtx@
CONST	SEGMENT
??_C@_04ONMNCIMC@hmtx@ DB 'hmtx', 00H			; `string'
CONST	ENDS
;	COMDAT ??_C@_04FMPHLIKP@hhea@
CONST	SEGMENT
??_C@_04FMPHLIKP@hhea@ DB 'hhea', 00H			; `string'
CONST	ENDS
;	COMDAT ??_C@_04LLIHEPK@glyf@
CONST	SEGMENT
??_C@_04LLIHEPK@glyf@ DB 'glyf', 00H			; `string'
CONST	ENDS
;	COMDAT ??_C@_04NEODDMOL@head@
CONST	SEGMENT
??_C@_04NEODDMOL@head@ DB 'head', 00H			; `string'
CONST	ENDS
;	COMDAT ??_C@_04DACNFKGE@loca@
CONST	SEGMENT
??_C@_04DACNFKGE@loca@ DB 'loca', 00H			; `string'
CONST	ENDS
;	COMDAT ??_C@_04EICJPCEA@cmap@
CONST	SEGMENT
??_C@_04EICJPCEA@cmap@ DB 'cmap', 00H			; `string'
CONST	ENDS
;	COMDAT ??_C@_04KIOEMAHO@ttcf@
CONST	SEGMENT
??_C@_04KIOEMAHO@ttcf@ DB 'ttcf', 00H			; `string'
CONST	ENDS
;	COMDAT ??_C@_04LOAJBDKD@true@
CONST	SEGMENT
??_C@_04LOAJBDKD@true@ DB 'true', 00H			; `string'
CONST	ENDS
;	COMDAT ??_C@_04LLEFIKCJ@OTTO@
CONST	SEGMENT
??_C@_04LLEFIKCJ@OTTO@ DB 'OTTO', 00H			; `string'
CONST	ENDS
;	COMDAT ??_C@_04LBBEMOBJ@typ1@
CONST	SEGMENT
??_C@_04LBBEMOBJ@typ1@ DB 'typ1', 00H			; `string'
CONST	ENDS
;	COMDAT ??_C@_1CI@PFMEGAIA@?$AAi?$AA?5?$AA?$DO?$AA?$DN?$AA?5?$AA0?$AA?5?$AA?$CG?$AA?$CG?$AA?5?$AAi?$AA?5?$AA?$DM?$AA?5?$AAc@
CONST	SEGMENT
??_C@_1CI@PFMEGAIA@?$AAi?$AA?5?$AA?$DO?$AA?$DN?$AA?5?$AA0?$AA?5?$AA?$CG?$AA?$CG?$AA?5?$AAi?$AA?5?$AA?$DM?$AA?5?$AAc@ DB 'i'
	DB	00H, ' ', 00H, '>', 00H, '=', 00H, ' ', 00H, '0', 00H, ' ', 00H
	DB	'&', 00H, '&', 00H, ' ', 00H, 'i', 00H, ' ', 00H, '<', 00H, ' '
	DB	00H, 'c', 00H, 'o', 00H, 'u', 00H, 'n', 00H, 't', 00H, 00H, 00H ; `string'
CONST	ENDS
;	COMDAT ?__LINE__Var@?0??stbtt__cff_index_get@@YA?AUstbtt__buf@@U2@H@Z@4JA
_DATA	SEGMENT
?__LINE__Var@?0??stbtt__cff_index_get@@YA?AUstbtt__buf@@U2@H@Z@4JA DD 04dcH ; `stbtt__cff_index_get'::`1'::__LINE__Var
_DATA	ENDS
;	COMDAT ??_C@_1BC@KDMJFGHG@?$AAb?$AA0?$AA?5?$AA?$DO?$AA?$DN?$AA?5?$AA2?$AA8@
CONST	SEGMENT
??_C@_1BC@KDMJFGHG@?$AAb?$AA0?$AA?5?$AA?$DO?$AA?$DN?$AA?5?$AA2?$AA8@ DB 'b'
	DB	00H, '0', 00H, ' ', 00H, '>', 00H, '=', 00H, ' ', 00H, '2', 00H
	DB	'8', 00H, 00H, 00H				; `string'
CONST	ENDS
;	COMDAT ?__LINE__Var@?0??stbtt__cff_skip_operand@@YAXPAUstbtt__buf@@@Z@4JA
_DATA	SEGMENT
?__LINE__Var@?0??stbtt__cff_skip_operand@@YAXPAUstbtt__buf@@@Z@4JA DD 04afH ; `stbtt__cff_skip_operand'::`1'::__LINE__Var
_DATA	ENDS
;	COMDAT ?__LINE__Var@?0??stbtt__cff_int@@YAIPAUstbtt__buf@@@Z@4JA
_DATA	SEGMENT
?__LINE__Var@?0??stbtt__cff_int@@YAIPAUstbtt__buf@@@Z@4JA DD 04a4H ; `stbtt__cff_int'::`1'::__LINE__Var
_DATA	ENDS
;	COMDAT ??_C@_1DK@IJDIOPHB@?$AAo?$AAf?$AAf?$AAs?$AAi?$AAz?$AAe?$AA?5?$AA?$DO?$AA?$DN?$AA?5?$AA1?$AA?5?$AA?$CG?$AA?$CG@
CONST	SEGMENT
??_C@_1DK@IJDIOPHB@?$AAo?$AAf?$AAf?$AAs?$AAi?$AAz?$AAe?$AA?5?$AA?$DO?$AA?$DN?$AA?5?$AA1?$AA?5?$AA?$CG?$AA?$CG@ DB 'o'
	DB	00H, 'f', 00H, 'f', 00H, 's', 00H, 'i', 00H, 'z', 00H, 'e', 00H
	DB	' ', 00H, '>', 00H, '=', 00H, ' ', 00H, '1', 00H, ' ', 00H, '&'
	DB	00H, '&', 00H, ' ', 00H, 'o', 00H, 'f', 00H, 'f', 00H, 's', 00H
	DB	'i', 00H, 'z', 00H, 'e', 00H, ' ', 00H, '<', 00H, '=', 00H, ' '
	DB	00H, '4', 00H, 00H, 00H			; `string'
CONST	ENDS
;	COMDAT ?__LINE__Var@?0??stbtt__cff_get_index@@YA?AUstbtt__buf@@PAU2@@Z@4JA
_DATA	SEGMENT
?__LINE__Var@?0??stbtt__cff_get_index@@YA?AUstbtt__buf@@PAU2@@Z@4JA DD 0496H ; `stbtt__cff_get_index'::`1'::__LINE__Var
_DATA	ENDS
;	COMDAT ??_C@_1CE@EPOLDKHI@?$AAs?$AAi?$AAz?$AAe?$AA?5?$AA?$DM?$AA?5?$AA0?$AAx?$AA4?$AA0?$AA0?$AA0?$AA0?$AA0@
CONST	SEGMENT
??_C@_1CE@EPOLDKHI@?$AAs?$AAi?$AAz?$AAe?$AA?5?$AA?$DM?$AA?5?$AA0?$AAx?$AA4?$AA0?$AA0?$AA0?$AA0?$AA0@ DB 's'
	DB	00H, 'i', 00H, 'z', 00H, 'e', 00H, ' ', 00H, '<', 00H, ' ', 00H
	DB	'0', 00H, 'x', 00H, '4', 00H, '0', 00H, '0', 00H, '0', 00H, '0'
	DB	00H, '0', 00H, '0', 00H, '0', 00H, 00H, 00H	; `string'
CONST	ENDS
;	COMDAT ?__LINE__Var@?0??stbtt__new_buf@@YA?AUstbtt__buf@@PBXI@Z@4JA
_DATA	SEGMENT
?__LINE__Var@?0??stbtt__new_buf@@YA?AUstbtt__buf@@PBXI@Z@4JA DD 0480H ; `stbtt__new_buf'::`1'::__LINE__Var
_DATA	ENDS
;	COMDAT ??_C@_1CC@OMFGMKMB@?$AAn?$AA?5?$AA?$DO?$AA?$DN?$AA?5?$AA1?$AA?5?$AA?$CG?$AA?$CG?$AA?5?$AAn?$AA?5?$AA?$DM?$AA?$DN?$AA?5@
CONST	SEGMENT
??_C@_1CC@OMFGMKMB@?$AAn?$AA?5?$AA?$DO?$AA?$DN?$AA?5?$AA1?$AA?5?$AA?$CG?$AA?$CG?$AA?5?$AAn?$AA?5?$AA?$DM?$AA?$DN?$AA?5@ DB 'n'
	DB	00H, ' ', 00H, '>', 00H, '=', 00H, ' ', 00H, '1', 00H, ' ', 00H
	DB	'&', 00H, '&', 00H, ' ', 00H, 'n', 00H, ' ', 00H, '<', 00H, '='
	DB	00H, ' ', 00H, '4', 00H, 00H, 00H		; `string'
CONST	ENDS
;	COMDAT ?__LINE__Var@?0??stbtt__buf_get@@YAIPAUstbtt__buf@@H@Z@4JA
_DATA	SEGMENT
?__LINE__Var@?0??stbtt__buf_get@@YAIPAUstbtt__buf@@H@Z@4JA DD 0476H ; `stbtt__buf_get'::`1'::__LINE__Var
_DATA	ENDS
;	COMDAT ??_C@_1DA@CPAEOPEI@?$AA?$CB?$AA?$CI?$AAo?$AA?5?$AA?$DO?$AA?5?$AAb?$AA?9?$AA?$DO?$AAs?$AAi?$AAz?$AAe?$AA?5?$AA?$HM@
CONST	SEGMENT
??_C@_1DA@CPAEOPEI@?$AA?$CB?$AA?$CI?$AAo?$AA?5?$AA?$DO?$AA?5?$AAb?$AA?9?$AA?$DO?$AAs?$AAi?$AAz?$AAe?$AA?5?$AA?$HM@ DB '!'
	DB	00H, '(', 00H, 'o', 00H, ' ', 00H, '>', 00H, ' ', 00H, 'b', 00H
	DB	'-', 00H, '>', 00H, 's', 00H, 'i', 00H, 'z', 00H, 'e', 00H, ' '
	DB	00H, '|', 00H, '|', 00H, ' ', 00H, 'o', 00H, ' ', 00H, '<', 00H
	DB	' ', 00H, '0', 00H, ')', 00H, 00H, 00H	; `string'
CONST	ENDS
;	COMDAT ??_C@_1LE@IHJHACNI@?$AAD?$AA?3?$AA?2?$AAP?$AAr?$AAo?$AAg?$AAr?$AAa?$AAm?$AAm?$AAi?$AAe?$AAr?$AAe@
CONST	SEGMENT
??_C@_1LE@IHJHACNI@?$AAD?$AA?3?$AA?2?$AAP?$AAr?$AAo?$AAg?$AAr?$AAa?$AAm?$AAm?$AAi?$AAe?$AAr?$AAe@ DB 'D'
	DB	00H, ':', 00H, '\', 00H, 'P', 00H, 'r', 00H, 'o', 00H, 'g', 00H
	DB	'r', 00H, 'a', 00H, 'm', 00H, 'm', 00H, 'i', 00H, 'e', 00H, 'r'
	DB	00H, 'e', 00H, 'n', 00H, '\', 00H, 'c', 00H, 's', 00H, 'g', 00H
	DB	'o', 00H, 'H', 00H, 'a', 00H, 'c', 00H, 'k', 00H, '\', 00H, 'P'
	DB	00H, 'r', 00H, 'o', 00H, 'j', 00H, 'e', 00H, 'k', 00H, 't', 00H
	DB	'W', 00H, 'o', 00H, 'l', 00H, 'f', 00H, '\', 00H, 'I', 00H, 'm'
	DB	00H, 'G', 00H, 'u', 00H, 'i', 00H, ' ', 00H, 'D', 00H, 'i', 00H
	DB	'r', 00H, 'e', 00H, 'c', 00H, 't', 00H, 'X', 00H, ' ', 00H, '9'
	DB	00H, ' ', 00H, 'K', 00H, 'i', 00H, 'e', 00H, 'r', 00H, 'o', 00H
	DB	' ', 00H, 'H', 00H, 'o', 00H, 'o', 00H, 'k', 00H, ' ', 00H, '2'
	DB	00H, '\', 00H, 'i', 00H, 'm', 00H, 'g', 00H, 'u', 00H, 'i', 00H
	DB	'\', 00H, 'i', 00H, 'm', 00H, 's', 00H, 't', 00H, 'b', 00H, '_'
	DB	00H, 't', 00H, 'r', 00H, 'u', 00H, 'e', 00H, 't', 00H, 'y', 00H
	DB	'p', 00H, 'e', 00H, '.', 00H, 'h', 00H, 00H, 00H ; `string'
CONST	ENDS
;	COMDAT ?__LINE__Var@?0??stbtt__buf_seek@@YAXPAUstbtt__buf@@H@Z@4JA
_DATA	SEGMENT
?__LINE__Var@?0??stbtt__buf_seek@@YAXPAUstbtt__buf@@H@Z@4JA DD 046bH ; `stbtt__buf_seek'::`1'::__LINE__Var
_DATA	ENDS
;	COMDAT ??_C@_1DM@MABMKAHD@?$AAc?$AAo?$AAu?$AAn?$AAt?$AA?5?$AA?$DN?$AA?$DN?$AA?5?$AAc?$AAo?$AAn?$AAt?$AAe?$AAx@
CONST	SEGMENT
??_C@_1DM@MABMKAHD@?$AAc?$AAo?$AAu?$AAn?$AAt?$AA?5?$AA?$DN?$AA?$DN?$AA?5?$AAc?$AAo?$AAn?$AAt?$AAe?$AAx@ DB 'c'
	DB	00H, 'o', 00H, 'u', 00H, 'n', 00H, 't', 00H, ' ', 00H, '=', 00H
	DB	'=', 00H, ' ', 00H, 'c', 00H, 'o', 00H, 'n', 00H, 't', 00H, 'e'
	DB	00H, 'x', 00H, 't', 00H, '-', 00H, '>', 00H, 'n', 00H, 'u', 00H
	DB	'm', 00H, '_', 00H, 'n', 00H, 'o', 00H, 'd', 00H, 'e', 00H, 's'
	DB	00H, '+', 00H, '2', 00H, 00H, 00H		; `string'
CONST	ENDS
;	COMDAT ??_C@_1BO@NJIDGHPD@?$AAc?$AAu?$AAr?$AA?9?$AA?$DO?$AAn?$AAe?$AAx?$AAt?$AA?5?$AA?$DN?$AA?$DN?$AA?5?$AA0@
CONST	SEGMENT
??_C@_1BO@NJIDGHPD@?$AAc?$AAu?$AAr?$AA?9?$AA?$DO?$AAn?$AAe?$AAx?$AAt?$AA?5?$AA?$DN?$AA?$DN?$AA?5?$AA0@ DB 'c'
	DB	00H, 'u', 00H, 'r', 00H, '-', 00H, '>', 00H, 'n', 00H, 'e', 00H
	DB	'x', 00H, 't', 00H, ' ', 00H, '=', 00H, '=', 00H, ' ', 00H, '0'
	DB	00H, 00H, 00H				; `string'
CONST	ENDS
;	COMDAT ??_C@_1CM@NCKIDPDA@?$AAc?$AAu?$AAr?$AA?9?$AA?$DO?$AAx?$AA?5?$AA?$DM?$AA?5?$AAc?$AAu?$AAr?$AA?9?$AA?$DO?$AAn@
CONST	SEGMENT
??_C@_1CM@NCKIDPDA@?$AAc?$AAu?$AAr?$AA?9?$AA?$DO?$AAx?$AA?5?$AA?$DM?$AA?5?$AAc?$AAu?$AAr?$AA?9?$AA?$DO?$AAn@ DB 'c'
	DB	00H, 'u', 00H, 'r', 00H, '-', 00H, '>', 00H, 'x', 00H, ' ', 00H
	DB	'<', 00H, ' ', 00H, 'c', 00H, 'u', 00H, 'r', 00H, '-', 00H, '>'
	DB	00H, 'n', 00H, 'e', 00H, 'x', 00H, 't', 00H, '-', 00H, '>', 00H
	DB	'x', 00H, 00H, 00H				; `string'
CONST	ENDS
;	COMDAT ?__LINE__Var@?0??stbrp__skyline_pack_rectangle@@YA?AUstbrp__findresult@@PAUstbrp_context@@HH@Z@4JA
_DATA	SEGMENT
?__LINE__Var@?0??stbrp__skyline_pack_rectangle@@YA?AUstbrp__findresult@@PAUstbrp_context@@HH@Z@4JA DD 01c6H ; `stbrp__skyline_pack_rectangle'::`1'::__LINE__Var
_DATA	ENDS
;	COMDAT ??_C@_1BI@JNFMLHFF@?$AAy?$AA?5?$AA?$DM?$AA?$DN?$AA?5?$AAb?$AAe?$AAs?$AAt?$AA_?$AAy@
CONST	SEGMENT
??_C@_1BI@JNFMLHFF@?$AAy?$AA?5?$AA?$DM?$AA?$DN?$AA?5?$AAb?$AAe?$AAs?$AAt?$AA_?$AAy@ DB 'y'
	DB	00H, ' ', 00H, '<', 00H, '=', 00H, ' ', 00H, 'b', 00H, 'e', 00H
	DB	's', 00H, 't', 00H, '_', 00H, 'y', 00H, 00H, 00H ; `string'
CONST	ENDS
;	COMDAT ??_C@_1FA@GPDJEJHP@?$AAn?$AAo?$AAd?$AAe?$AA?9?$AA?$DO?$AAn?$AAe?$AAx?$AAt?$AA?9?$AA?$DO?$AAx?$AA?5?$AA?$DO@
CONST	SEGMENT
??_C@_1FA@GPDJEJHP@?$AAn?$AAo?$AAd?$AAe?$AA?9?$AA?$DO?$AAn?$AAe?$AAx?$AAt?$AA?9?$AA?$DO?$AAx?$AA?5?$AA?$DO@ DB 'n'
	DB	00H, 'o', 00H, 'd', 00H, 'e', 00H, '-', 00H, '>', 00H, 'n', 00H
	DB	'e', 00H, 'x', 00H, 't', 00H, '-', 00H, '>', 00H, 'x', 00H, ' '
	DB	00H, '>', 00H, ' ', 00H, 'x', 00H, 'p', 00H, 'o', 00H, 's', 00H
	DB	' ', 00H, '&', 00H, '&', 00H, ' ', 00H, 'n', 00H, 'o', 00H, 'd'
	DB	00H, 'e', 00H, '-', 00H, '>', 00H, 'x', 00H, ' ', 00H, '<', 00H
	DB	'=', 00H, ' ', 00H, 'x', 00H, 'p', 00H, 'o', 00H, 's', 00H, 00H
	DB	00H						; `string'
CONST	ENDS
;	COMDAT ??_C@_1BE@MNLKNDNL@?$AAx?$AAp?$AAo?$AAs?$AA?5?$AA?$DO?$AA?$DN?$AA?5?$AA0@
CONST	SEGMENT
??_C@_1BE@MNLKNDNL@?$AAx?$AAp?$AAo?$AAs?$AA?5?$AA?$DO?$AA?$DN?$AA?5?$AA0@ DB 'x'
	DB	00H, 'p', 00H, 'o', 00H, 's', 00H, ' ', 00H, '>', 00H, '=', 00H
	DB	' ', 00H, '0', 00H, 00H, 00H			; `string'
CONST	ENDS
;	COMDAT ??_C@_1CM@LEHAODMI@?$AAw?$AAi?$AAd?$AAt?$AAh?$AA?5?$AA?$CF?$AA?5?$AAc?$AA?9?$AA?$DO?$AAa?$AAl?$AAi?$AAg@
CONST	SEGMENT
??_C@_1CM@LEHAODMI@?$AAw?$AAi?$AAd?$AAt?$AAh?$AA?5?$AA?$CF?$AA?5?$AAc?$AA?9?$AA?$DO?$AAa?$AAl?$AAi?$AAg@ DB 'w'
	DB	00H, 'i', 00H, 'd', 00H, 't', 00H, 'h', 00H, ' ', 00H, '%', 00H
	DB	' ', 00H, 'c', 00H, '-', 00H, '>', 00H, 'a', 00H, 'l', 00H, 'i'
	DB	00H, 'g', 00H, 'n', 00H, ' ', 00H, '=', 00H, '=', 00H, ' ', 00H
	DB	'0', 00H, 00H, 00H				; `string'
CONST	ENDS
;	COMDAT ?__LINE__Var@?0??stbrp__skyline_find_best_pos@@YA?AUstbrp__findresult@@PAUstbrp_context@@HH@Z@4JA
_DATA	SEGMENT
?__LINE__Var@?0??stbrp__skyline_find_best_pos@@YA?AUstbrp__findresult@@PAUstbrp_context@@HH@Z@4JA DD 0160H ; `stbrp__skyline_find_best_pos'::`1'::__LINE__Var
_DATA	ENDS
;	COMDAT ??_C@_1BM@JHJLEEND@?$AAn?$AAo?$AAd?$AAe?$AA?9?$AA?$DO?$AAx?$AA?5?$AA?$DM?$AA?$DN?$AA?5?$AAx?$AA0@
CONST	SEGMENT
??_C@_1BM@JHJLEEND@?$AAn?$AAo?$AAd?$AAe?$AA?9?$AA?$DO?$AAx?$AA?5?$AA?$DM?$AA?$DN?$AA?5?$AAx?$AA0@ DB 'n'
	DB	00H, 'o', 00H, 'd', 00H, 'e', 00H, '-', 00H, '>', 00H, 'x', 00H
	DB	' ', 00H, '<', 00H, '=', 00H, ' ', 00H, 'x', 00H, '0', 00H, 00H
	DB	00H						; `string'
CONST	ENDS
;	COMDAT ??_C@_1CG@BDIGDJGP@?$AAn?$AAo?$AAd?$AAe?$AA?9?$AA?$DO?$AAn?$AAe?$AAx?$AAt?$AA?9?$AA?$DO?$AAx?$AA?5?$AA?$DO@
CONST	SEGMENT
??_C@_1CG@BDIGDJGP@?$AAn?$AAo?$AAd?$AAe?$AA?9?$AA?$DO?$AAn?$AAe?$AAx?$AAt?$AA?9?$AA?$DO?$AAx?$AA?5?$AA?$DO@ DB 'n'
	DB	00H, 'o', 00H, 'd', 00H, 'e', 00H, '-', 00H, '>', 00H, 'n', 00H
	DB	'e', 00H, 'x', 00H, 't', 00H, '-', 00H, '>', 00H, 'x', 00H, ' '
	DB	00H, '>', 00H, ' ', 00H, 'x', 00H, '0', 00H, 00H, 00H ; `string'
CONST	ENDS
;	COMDAT ??_C@_1BO@KBODBKOH@?$AAf?$AAi?$AAr?$AAs?$AAt?$AA?9?$AA?$DO?$AAx?$AA?5?$AA?$DM?$AA?$DN?$AA?5?$AAx?$AA0@
CONST	SEGMENT
??_C@_1BO@KBODBKOH@?$AAf?$AAi?$AAr?$AAs?$AAt?$AA?9?$AA?$DO?$AAx?$AA?5?$AA?$DM?$AA?$DN?$AA?5?$AAx?$AA0@ DB 'f'
	DB	00H, 'i', 00H, 'r', 00H, 's', 00H, 't', 00H, '-', 00H, '>', 00H
	DB	'x', 00H, ' ', 00H, '<', 00H, '=', 00H, ' ', 00H, 'x', 00H, '0'
	DB	00H, 00H, 00H				; `string'
CONST	ENDS
;	COMDAT ?__LINE__Var@?0??stbrp__skyline_find_min_y@@YAHPAUstbrp_context@@PAUstbrp_node@@HHPAH@Z@4JA
_DATA	SEGMENT
?__LINE__Var@?0??stbrp__skyline_find_min_y@@YAHPAUstbrp_context@@PAUstbrp_node@@HHPAH@Z@4JA DD 0128H ; `stbrp__skyline_find_min_y'::`1'::__LINE__Var
_DATA	ENDS
;	COMDAT ??_C@_1EI@NNJKMECF@?$AAw?$AAi?$AAd?$AAt?$AAh?$AA?5?$AA?$DM?$AA?$DN?$AA?5?$AA0?$AAx?$AAf?$AAf?$AAf?$AAf@
CONST	SEGMENT
??_C@_1EI@NNJKMECF@?$AAw?$AAi?$AAd?$AAt?$AAh?$AA?5?$AA?$DM?$AA?$DN?$AA?5?$AA0?$AAx?$AAf?$AAf?$AAf?$AAf@ DB 'w'
	DB	00H, 'i', 00H, 'd', 00H, 't', 00H, 'h', 00H, ' ', 00H, '<', 00H
	DB	'=', 00H, ' ', 00H, '0', 00H, 'x', 00H, 'f', 00H, 'f', 00H, 'f'
	DB	00H, 'f', 00H, ' ', 00H, '&', 00H, '&', 00H, ' ', 00H, 'h', 00H
	DB	'e', 00H, 'i', 00H, 'g', 00H, 'h', 00H, 't', 00H, ' ', 00H, '<'
	DB	00H, '=', 00H, ' ', 00H, '0', 00H, 'x', 00H, 'f', 00H, 'f', 00H
	DB	'f', 00H, 'f', 00H, 00H, 00H			; `string'
CONST	ENDS
;	COMDAT ?__LINE__Var@?0??stbrp_init_target@@9@4JA
_DATA	SEGMENT
?__LINE__Var@?0??stbrp_init_target@@9@4JA DD 0107H	; `stbrp_init_target'::`1'::__LINE__Var
_DATA	ENDS
;	COMDAT ??_C@_1LE@FGNPCGLM@?$AAD?$AA?3?$AA?2?$AAP?$AAr?$AAo?$AAg?$AAr?$AAa?$AAm?$AAm?$AAi?$AAe?$AAr?$AAe@
CONST	SEGMENT
??_C@_1LE@FGNPCGLM@?$AAD?$AA?3?$AA?2?$AAP?$AAr?$AAo?$AAg?$AAr?$AAa?$AAm?$AAm?$AAi?$AAe?$AAr?$AAe@ DB 'D'
	DB	00H, ':', 00H, '\', 00H, 'P', 00H, 'r', 00H, 'o', 00H, 'g', 00H
	DB	'r', 00H, 'a', 00H, 'm', 00H, 'm', 00H, 'i', 00H, 'e', 00H, 'r'
	DB	00H, 'e', 00H, 'n', 00H, '\', 00H, 'c', 00H, 's', 00H, 'g', 00H
	DB	'o', 00H, 'H', 00H, 'a', 00H, 'c', 00H, 'k', 00H, '\', 00H, 'P'
	DB	00H, 'r', 00H, 'o', 00H, 'j', 00H, 'e', 00H, 'k', 00H, 't', 00H
	DB	'W', 00H, 'o', 00H, 'l', 00H, 'f', 00H, '\', 00H, 'I', 00H, 'm'
	DB	00H, 'G', 00H, 'u', 00H, 'i', 00H, ' ', 00H, 'D', 00H, 'i', 00H
	DB	'r', 00H, 'e', 00H, 'c', 00H, 't', 00H, 'X', 00H, ' ', 00H, '9'
	DB	00H, ' ', 00H, 'K', 00H, 'i', 00H, 'e', 00H, 'r', 00H, 'o', 00H
	DB	' ', 00H, 'H', 00H, 'o', 00H, 'o', 00H, 'k', 00H, ' ', 00H, '2'
	DB	00H, '\', 00H, 'i', 00H, 'm', 00H, 'g', 00H, 'u', 00H, 'i', 00H
	DB	'\', 00H, 'i', 00H, 'm', 00H, 's', 00H, 't', 00H, 'b', 00H, '_'
	DB	00H, 'r', 00H, 'e', 00H, 'c', 00H, 't', 00H, 'p', 00H, 'a', 00H
	DB	'c', 00H, 'k', 00H, '.', 00H, 'h', 00H, 00H, 00H ; `string'
CONST	ENDS
;	COMDAT ??_C@_13COJANIEC@?$AA0@
CONST	SEGMENT
??_C@_13COJANIEC@?$AA0@ DB '0', 00H, 00H, 00H		; `string'
CONST	ENDS
;	COMDAT ??_C@_1KC@LHOPDKO@?$AAD?$AA?3?$AA?2?$AAP?$AAr?$AAo?$AAg?$AAr?$AAa?$AAm?$AAm?$AAi?$AAe?$AAr?$AAe@
CONST	SEGMENT
??_C@_1KC@LHOPDKO@?$AAD?$AA?3?$AA?2?$AAP?$AAr?$AAo?$AAg?$AAr?$AAa?$AAm?$AAm?$AAi?$AAe?$AAr?$AAe@ DB 'D'
	DB	00H, ':', 00H, '\', 00H, 'P', 00H, 'r', 00H, 'o', 00H, 'g', 00H
	DB	'r', 00H, 'a', 00H, 'm', 00H, 'm', 00H, 'i', 00H, 'e', 00H, 'r'
	DB	00H, 'e', 00H, 'n', 00H, '\', 00H, 'c', 00H, 's', 00H, 'g', 00H
	DB	'o', 00H, 'H', 00H, 'a', 00H, 'c', 00H, 'k', 00H, '\', 00H, 'P'
	DB	00H, 'r', 00H, 'o', 00H, 'j', 00H, 'e', 00H, 'k', 00H, 't', 00H
	DB	'W', 00H, 'o', 00H, 'l', 00H, 'f', 00H, '\', 00H, 'I', 00H, 'm'
	DB	00H, 'G', 00H, 'u', 00H, 'i', 00H, ' ', 00H, 'D', 00H, 'i', 00H
	DB	'r', 00H, 'e', 00H, 'c', 00H, 't', 00H, 'X', 00H, ' ', 00H, '9'
	DB	00H, ' ', 00H, 'K', 00H, 'i', 00H, 'e', 00H, 'r', 00H, 'o', 00H
	DB	' ', 00H, 'H', 00H, 'o', 00H, 'o', 00H, 'k', 00H, ' ', 00H, '2'
	DB	00H, '\', 00H, 'i', 00H, 'm', 00H, 'g', 00H, 'u', 00H, 'i', 00H
	DB	'\', 00H, 'i', 00H, 'm', 00H, 'g', 00H, 'u', 00H, 'i', 00H, '.'
	DB	00H, 'h', 00H, 00H, 00H			; `string'
CONST	ENDS
;	COMDAT xdata$x
xdata$x	SEGMENT
__ehfuncinfo$??1?$ImVector@Ustbtt_packedchar@@@@QAE@XZ DD 019930522H
	DD	00H
	DD	00H
	DD	2 DUP(00H)
	DD	2 DUP(00H)
	DD	00H
	DD	05H
xdata$x	ENDS
;	COMDAT xdata$x
xdata$x	SEGMENT
__ehfuncinfo$??1?$ImVector@Ustbrp_rect@@@@QAE@XZ DD 019930522H
	DD	00H
	DD	00H
	DD	2 DUP(00H)
	DD	2 DUP(00H)
	DD	00H
	DD	05H
xdata$x	ENDS
;	COMDAT xdata$x
xdata$x	SEGMENT
__ehfuncinfo$??1?$ImVector@UImFontBuildDstData@@@@QAE@XZ DD 019930522H
	DD	00H
	DD	00H
	DD	2 DUP(00H)
	DD	2 DUP(00H)
	DD	00H
	DD	05H
xdata$x	ENDS
;	COMDAT xdata$x
xdata$x	SEGMENT
__ehfuncinfo$??1?$ImVector@UImFontBuildSrcData@@@@QAE@XZ DD 019930522H
	DD	00H
	DD	00H
	DD	2 DUP(00H)
	DD	2 DUP(00H)
	DD	00H
	DD	05H
xdata$x	ENDS
;	COMDAT xdata$x
xdata$x	SEGMENT
__unwindtable$?ImFontAtlasBuildPackCustomRects@@YAXPAUImFontAtlas@@PAX@Z DD 0ffffffffH
	DD	FLAT:__unwindfunclet$?ImFontAtlasBuildPackCustomRects@@YAXPAUImFontAtlas@@PAX@Z$0
__ehfuncinfo$?ImFontAtlasBuildPackCustomRects@@YAXPAUImFontAtlas@@PAX@Z DD 019930522H
	DD	01H
	DD	FLAT:__unwindtable$?ImFontAtlasBuildPackCustomRects@@YAXPAUImFontAtlas@@PAX@Z
	DD	2 DUP(00H)
	DD	2 DUP(00H)
	DD	00H
	DD	01H
xdata$x	ENDS
;	COMDAT xdata$x
xdata$x	SEGMENT
__unwindtable$?ImFontAtlasBuildWithStbTruetype@@YA_NPAUImFontAtlas@@@Z DD 0ffffffffH
	DD	FLAT:__unwindfunclet$?ImFontAtlasBuildWithStbTruetype@@YA_NPAUImFontAtlas@@@Z$0
	DD	00H
	DD	FLAT:__unwindfunclet$?ImFontAtlasBuildWithStbTruetype@@YA_NPAUImFontAtlas@@@Z$1
	DD	01H
	DD	FLAT:__unwindfunclet$?ImFontAtlasBuildWithStbTruetype@@YA_NPAUImFontAtlas@@@Z$2
	DD	02H
	DD	FLAT:__unwindfunclet$?ImFontAtlasBuildWithStbTruetype@@YA_NPAUImFontAtlas@@@Z$3
__ehfuncinfo$?ImFontAtlasBuildWithStbTruetype@@YA_NPAUImFontAtlas@@@Z DD 019930522H
	DD	04H
	DD	FLAT:__unwindtable$?ImFontAtlasBuildWithStbTruetype@@YA_NPAUImFontAtlas@@@Z
	DD	2 DUP(00H)
	DD	2 DUP(00H)
	DD	00H
	DD	01H
xdata$x	ENDS
;	COMDAT xdata$x
xdata$x	SEGMENT
__ehfuncinfo$??1?$ImVector@H@@QAE@XZ DD 019930522H
	DD	00H
	DD	00H
	DD	2 DUP(00H)
	DD	2 DUP(00H)
	DD	00H
	DD	05H
xdata$x	ENDS
;	COMDAT xdata$x
xdata$x	SEGMENT
__ehfuncinfo$??1ImFont@@QAE@XZ DD 019930522H
	DD	00H
	DD	00H
	DD	2 DUP(00H)
	DD	2 DUP(00H)
	DD	00H
	DD	05H
xdata$x	ENDS
;	COMDAT xdata$x
xdata$x	SEGMENT
__unwindtable$??0ImFont@@QAE@XZ DD 0ffffffffH
	DD	FLAT:__unwindfunclet$??0ImFont@@QAE@XZ$0
	DD	00H
	DD	FLAT:__unwindfunclet$??0ImFont@@QAE@XZ$1
	DD	01H
	DD	FLAT:__unwindfunclet$??0ImFont@@QAE@XZ$2
__ehfuncinfo$??0ImFont@@QAE@XZ DD 019930522H
	DD	03H
	DD	FLAT:__unwindtable$??0ImFont@@QAE@XZ
	DD	2 DUP(00H)
	DD	2 DUP(00H)
	DD	00H
	DD	01H
xdata$x	ENDS
;	COMDAT xdata$x
xdata$x	SEGMENT
__ehfuncinfo$??1?$ImVector@UImFontGlyph@@@@QAE@XZ DD 019930522H
	DD	00H
	DD	00H
	DD	2 DUP(00H)
	DD	2 DUP(00H)
	DD	00H
	DD	05H
xdata$x	ENDS
;	COMDAT xdata$x
xdata$x	SEGMENT
__ehfuncinfo$??1?$ImVector@M@@QAE@XZ DD 019930522H
	DD	00H
	DD	00H
	DD	2 DUP(00H)
	DD	2 DUP(00H)
	DD	00H
	DD	05H
xdata$x	ENDS
;	COMDAT xdata$x
xdata$x	SEGMENT
__ehfuncinfo$??1?$ImVector@UImFontConfig@@@@QAE@XZ DD 019930522H
	DD	00H
	DD	00H
	DD	2 DUP(00H)
	DD	2 DUP(00H)
	DD	00H
	DD	05H
xdata$x	ENDS
;	COMDAT xdata$x
xdata$x	SEGMENT
__ehfuncinfo$??1?$ImVector@UImFontAtlasCustomRect@@@@QAE@XZ DD 019930522H
	DD	00H
	DD	00H
	DD	2 DUP(00H)
	DD	2 DUP(00H)
	DD	00H
	DD	05H
xdata$x	ENDS
;	COMDAT xdata$x
xdata$x	SEGMENT
__ehfuncinfo$??1?$ImVector@PAUImFont@@@@QAE@XZ DD 019930522H
	DD	00H
	DD	00H
	DD	2 DUP(00H)
	DD	2 DUP(00H)
	DD	00H
	DD	05H
xdata$x	ENDS
;	COMDAT xdata$x
xdata$x	SEGMENT
__unwindtable$?AddFont@ImFontAtlas@@QAEPAUImFont@@PBUImFontConfig@@@Z DD 0ffffffffH
	DD	FLAT:__unwindfunclet$?AddFont@ImFontAtlas@@QAEPAUImFont@@PBUImFontConfig@@@Z$0
__ehfuncinfo$?AddFont@ImFontAtlas@@QAEPAUImFont@@PBUImFontConfig@@@Z DD 019930522H
	DD	01H
	DD	FLAT:__unwindtable$?AddFont@ImFontAtlas@@QAEPAUImFont@@PBUImFontConfig@@@Z
	DD	2 DUP(00H)
	DD	2 DUP(00H)
	DD	00H
	DD	01H
xdata$x	ENDS
;	COMDAT xdata$x
xdata$x	SEGMENT
__ehfuncinfo$??1ImFontAtlas@@QAE@XZ DD 019930522H
	DD	00H
	DD	00H
	DD	2 DUP(00H)
	DD	2 DUP(00H)
	DD	00H
	DD	05H
xdata$x	ENDS
;	COMDAT xdata$x
xdata$x	SEGMENT
__unwindtable$??0ImFontAtlas@@QAE@XZ DD 0ffffffffH
	DD	FLAT:__unwindfunclet$??0ImFontAtlas@@QAE@XZ$0
	DD	00H
	DD	FLAT:__unwindfunclet$??0ImFontAtlas@@QAE@XZ$1
	DD	01H
	DD	FLAT:__unwindfunclet$??0ImFontAtlas@@QAE@XZ$2
__ehfuncinfo$??0ImFontAtlas@@QAE@XZ DD 019930522H
	DD	03H
	DD	FLAT:__unwindtable$??0ImFontAtlas@@QAE@XZ
	DD	2 DUP(00H)
	DD	2 DUP(00H)
	DD	00H
	DD	01H
xdata$x	ENDS
;	COMDAT xdata$x
xdata$x	SEGMENT
__unwindtable$?DeIndexAllBuffers@ImDrawData@@QAEXXZ DD 0ffffffffH
	DD	FLAT:__unwindfunclet$?DeIndexAllBuffers@ImDrawData@@QAEXXZ$0
__ehfuncinfo$?DeIndexAllBuffers@ImDrawData@@QAEXXZ DD 019930522H
	DD	01H
	DD	FLAT:__unwindtable$?DeIndexAllBuffers@ImDrawData@@QAEXXZ
	DD	2 DUP(00H)
	DD	2 DUP(00H)
	DD	00H
	DD	01H
xdata$x	ENDS
;	COMDAT xdata$x
xdata$x	SEGMENT
__unwindtable$?CloneOutput@ImDrawList@@QBEPAU1@XZ DD 0ffffffffH
	DD	FLAT:__unwindfunclet$?CloneOutput@ImDrawList@@QBEPAU1@XZ$0
__ehfuncinfo$?CloneOutput@ImDrawList@@QBEPAU1@XZ DD 019930522H
	DD	01H
	DD	FLAT:__unwindtable$?CloneOutput@ImDrawList@@QBEPAU1@XZ
	DD	2 DUP(00H)
	DD	2 DUP(00H)
	DD	00H
	DD	01H
xdata$x	ENDS
;	COMDAT xdata$x
xdata$x	SEGMENT
__ehfuncinfo$??0ImDrawList@@QAE@PBUImDrawListSharedData@@@Z DD 019930522H
	DD	07H
	DD	FLAT:__unwindtable$??0ImDrawList@@QAE@PBUImDrawListSharedData@@@Z
	DD	2 DUP(00H)
	DD	2 DUP(00H)
	DD	00H
	DD	01H
__unwindtable$??0ImDrawList@@QAE@PBUImDrawListSharedData@@@Z DD 0ffffffffH
	DD	FLAT:__unwindfunclet$??0ImDrawList@@QAE@PBUImDrawListSharedData@@@Z$0
	DD	00H
	DD	FLAT:__unwindfunclet$??0ImDrawList@@QAE@PBUImDrawListSharedData@@@Z$1
	DD	01H
	DD	FLAT:__unwindfunclet$??0ImDrawList@@QAE@PBUImDrawListSharedData@@@Z$2
	DD	02H
	DD	FLAT:__unwindfunclet$??0ImDrawList@@QAE@PBUImDrawListSharedData@@@Z$3
	DD	03H
	DD	FLAT:__unwindfunclet$??0ImDrawList@@QAE@PBUImDrawListSharedData@@@Z$4
	DD	04H
	DD	FLAT:__unwindfunclet$??0ImDrawList@@QAE@PBUImDrawListSharedData@@@Z$5
	DD	05H
	DD	FLAT:__unwindfunclet$??0ImDrawList@@QAE@PBUImDrawListSharedData@@@Z$6
xdata$x	ENDS
;	COMDAT xdata$x
xdata$x	SEGMENT
__ehfuncinfo$??1?$ImVector@UImVec2@@@@QAE@XZ DD 019930522H
	DD	00H
	DD	00H
	DD	2 DUP(00H)
	DD	2 DUP(00H)
	DD	00H
	DD	05H
xdata$x	ENDS
;	COMDAT xdata$x
xdata$x	SEGMENT
__ehfuncinfo$??1?$ImVector@PAX@@QAE@XZ DD 019930522H
	DD	00H
	DD	00H
	DD	2 DUP(00H)
	DD	2 DUP(00H)
	DD	00H
	DD	05H
xdata$x	ENDS
;	COMDAT xdata$x
xdata$x	SEGMENT
__ehfuncinfo$??1?$ImVector@UImVec4@@@@QAE@XZ DD 019930522H
	DD	00H
	DD	00H
	DD	2 DUP(00H)
	DD	2 DUP(00H)
	DD	00H
	DD	05H
xdata$x	ENDS
;	COMDAT xdata$x
xdata$x	SEGMENT
__ehfuncinfo$??1?$ImVector@UImDrawVert@@@@QAE@XZ DD 019930522H
	DD	00H
	DD	00H
	DD	2 DUP(00H)
	DD	2 DUP(00H)
	DD	00H
	DD	05H
xdata$x	ENDS
;	COMDAT xdata$x
xdata$x	SEGMENT
__unwindtable$?Split@ImDrawListSplitter@@QAEXPAUImDrawList@@H@Z DD 0ffffffffH
	DD	FLAT:__unwindfunclet$?Split@ImDrawListSplitter@@QAEXPAUImDrawList@@H@Z$0
__ehfuncinfo$?Split@ImDrawListSplitter@@QAEXPAUImDrawList@@H@Z DD 019930522H
	DD	01H
	DD	FLAT:__unwindtable$?Split@ImDrawListSplitter@@QAEXPAUImDrawList@@H@Z
	DD	2 DUP(00H)
	DD	2 DUP(00H)
	DD	00H
	DD	01H
xdata$x	ENDS
;	COMDAT xdata$x
xdata$x	SEGMENT
__ehfuncinfo$??1ImDrawListSplitter@@QAE@XZ DD 019930522H
	DD	00H
	DD	00H
	DD	2 DUP(00H)
	DD	2 DUP(00H)
	DD	00H
	DD	05H
xdata$x	ENDS
;	COMDAT xdata$x
xdata$x	SEGMENT
__unwindtable$??0ImDrawListSplitter@@QAE@XZ DD 0ffffffffH
	DD	FLAT:__unwindfunclet$??0ImDrawListSplitter@@QAE@XZ$0
__ehfuncinfo$??0ImDrawListSplitter@@QAE@XZ DD 019930522H
	DD	01H
	DD	FLAT:__unwindtable$??0ImDrawListSplitter@@QAE@XZ
	DD	2 DUP(00H)
	DD	2 DUP(00H)
	DD	00H
	DD	01H
xdata$x	ENDS
;	COMDAT xdata$x
xdata$x	SEGMENT
__ehfuncinfo$??1?$ImVector@UImDrawChannel@@@@QAE@XZ DD 019930522H
	DD	00H
	DD	00H
	DD	2 DUP(00H)
	DD	2 DUP(00H)
	DD	00H
	DD	05H
xdata$x	ENDS
;	COMDAT xdata$x
xdata$x	SEGMENT
__unwindtable$??0ImDrawChannel@@QAE@XZ DD 0ffffffffH
	DD	FLAT:__unwindfunclet$??0ImDrawChannel@@QAE@XZ$0
__ehfuncinfo$??0ImDrawChannel@@QAE@XZ DD 019930522H
	DD	01H
	DD	FLAT:__unwindtable$??0ImDrawChannel@@QAE@XZ
	DD	2 DUP(00H)
	DD	2 DUP(00H)
	DD	00H
	DD	01H
xdata$x	ENDS
;	COMDAT xdata$x
xdata$x	SEGMENT
__ehfuncinfo$??1?$ImVector@UImDrawCmd@@@@QAE@XZ DD 019930522H
	DD	00H
	DD	00H
	DD	2 DUP(00H)
	DD	2 DUP(00H)
	DD	00H
	DD	05H
xdata$x	ENDS
;	COMDAT xdata$x
xdata$x	SEGMENT
__ehfuncinfo$??1?$ImVector@G@@QAE@XZ DD 019930522H
	DD	00H
	DD	00H
	DD	2 DUP(00H)
	DD	2 DUP(00H)
	DD	00H
	DD	05H
xdata$x	ENDS
;	COMDAT xdata$x
xdata$x	SEGMENT
__ehfuncinfo$??3@YAXPAXUImNewDummy@@0@Z DD 019930522H
	DD	00H
	DD	00H
	DD	2 DUP(00H)
	DD	2 DUP(00H)
	DD	00H
	DD	05H
xdata$x	ENDS
; Function compile flags: /Odt
;	COMDAT __JustMyCode_Default
_TEXT	SEGMENT
__JustMyCode_Default PROC				; COMDAT
  00000	55		 push	 ebp
  00001	8b ec		 mov	 ebp, esp
  00003	5d		 pop	 ebp
  00004	c3		 ret	 0
__JustMyCode_Default ENDP
_TEXT	ENDS
; Function compile flags: /Odtp /RTCsu /ZI
; File D:\Programmieren\csgoHack\ProjektWolf\ImGui DirectX 9 Kiero Hook 2\imgui\imgui_draw.cpp
;	COMDAT ?stb_adler32@@YAIIPAEI@Z
_TEXT	SEGMENT
_i$ = -56						; size = 4
_blocklen$ = -44					; size = 4
_s2$ = -32						; size = 4
_s1$ = -20						; size = 4
_ADLER_MOD$ = -8					; size = 4
_adler32$ = 8						; size = 4
_buffer$ = 12						; size = 4
_buflen$ = 16						; size = 4
?stb_adler32@@YAIIPAEI@Z PROC				; stb_adler32, COMDAT

; 3240 : {

  00000	55		 push	 ebp
  00001	8b ec		 mov	 ebp, esp
  00003	81 ec fc 00 00
	00		 sub	 esp, 252		; 000000fcH
  00009	53		 push	 ebx
  0000a	56		 push	 esi
  0000b	57		 push	 edi
  0000c	8d bd 04 ff ff
	ff		 lea	 edi, DWORD PTR [ebp-252]
  00012	b9 3f 00 00 00	 mov	 ecx, 63			; 0000003fH
  00017	b8 cc cc cc cc	 mov	 eax, -858993460		; ccccccccH
  0001c	f3 ab		 rep stosd
  0001e	b9 00 00 00 00	 mov	 ecx, OFFSET __C693DA93_imgui_draw@cpp
  00023	e8 00 00 00 00	 call	 @__CheckForDebuggerJustMyCode@4

; 3241 :     const unsigned long ADLER_MOD = 65521;

  00028	c7 45 f8 f1 ff
	00 00		 mov	 DWORD PTR _ADLER_MOD$[ebp], 65521 ; 0000fff1H

; 3242 :     unsigned long s1 = adler32 & 0xffff, s2 = adler32 >> 16;

  0002f	8b 45 08	 mov	 eax, DWORD PTR _adler32$[ebp]
  00032	25 ff ff 00 00	 and	 eax, 65535		; 0000ffffH
  00037	89 45 ec	 mov	 DWORD PTR _s1$[ebp], eax
  0003a	8b 45 08	 mov	 eax, DWORD PTR _adler32$[ebp]
  0003d	c1 e8 10	 shr	 eax, 16			; 00000010H
  00040	89 45 e0	 mov	 DWORD PTR _s2$[ebp], eax

; 3243 :     unsigned long blocklen = buflen % 5552;

  00043	8b 45 10	 mov	 eax, DWORD PTR _buflen$[ebp]
  00046	33 d2		 xor	 edx, edx
  00048	b9 b0 15 00 00	 mov	 ecx, 5552		; 000015b0H
  0004d	f7 f1		 div	 ecx
  0004f	89 55 d4	 mov	 DWORD PTR _blocklen$[ebp], edx
$LN2@stb_adler3:

; 3244 : 
; 3245 :     unsigned long i;
; 3246 :     while (buflen) {

  00052	83 7d 10 00	 cmp	 DWORD PTR _buflen$[ebp], 0
  00056	0f 84 84 01 00
	00		 je	 $LN3@stb_adler3

; 3247 :         for (i=0; i + 7 < blocklen; i += 8) {

  0005c	c7 45 c8 00 00
	00 00		 mov	 DWORD PTR _i$[ebp], 0
  00063	eb 09		 jmp	 SHORT $LN6@stb_adler3
$LN4@stb_adler3:
  00065	8b 45 c8	 mov	 eax, DWORD PTR _i$[ebp]
  00068	83 c0 08	 add	 eax, 8
  0006b	89 45 c8	 mov	 DWORD PTR _i$[ebp], eax
$LN6@stb_adler3:
  0006e	8b 45 c8	 mov	 eax, DWORD PTR _i$[ebp]
  00071	83 c0 07	 add	 eax, 7
  00074	3b 45 d4	 cmp	 eax, DWORD PTR _blocklen$[ebp]
  00077	0f 83 fd 00 00
	00		 jae	 $LN5@stb_adler3

; 3248 :             s1 += buffer[0], s2 += s1;

  0007d	b8 01 00 00 00	 mov	 eax, 1
  00082	6b c8 00	 imul	 ecx, eax, 0
  00085	8b 55 0c	 mov	 edx, DWORD PTR _buffer$[ebp]
  00088	0f b6 04 0a	 movzx	 eax, BYTE PTR [edx+ecx]
  0008c	03 45 ec	 add	 eax, DWORD PTR _s1$[ebp]
  0008f	89 45 ec	 mov	 DWORD PTR _s1$[ebp], eax
  00092	8b 4d e0	 mov	 ecx, DWORD PTR _s2$[ebp]
  00095	03 4d ec	 add	 ecx, DWORD PTR _s1$[ebp]
  00098	89 4d e0	 mov	 DWORD PTR _s2$[ebp], ecx

; 3249 :             s1 += buffer[1], s2 += s1;

  0009b	b8 01 00 00 00	 mov	 eax, 1
  000a0	c1 e0 00	 shl	 eax, 0
  000a3	8b 4d 0c	 mov	 ecx, DWORD PTR _buffer$[ebp]
  000a6	0f b6 14 01	 movzx	 edx, BYTE PTR [ecx+eax]
  000aa	03 55 ec	 add	 edx, DWORD PTR _s1$[ebp]
  000ad	89 55 ec	 mov	 DWORD PTR _s1$[ebp], edx
  000b0	8b 45 e0	 mov	 eax, DWORD PTR _s2$[ebp]
  000b3	03 45 ec	 add	 eax, DWORD PTR _s1$[ebp]
  000b6	89 45 e0	 mov	 DWORD PTR _s2$[ebp], eax

; 3250 :             s1 += buffer[2], s2 += s1;

  000b9	b8 01 00 00 00	 mov	 eax, 1
  000be	d1 e0		 shl	 eax, 1
  000c0	8b 4d 0c	 mov	 ecx, DWORD PTR _buffer$[ebp]
  000c3	0f b6 14 01	 movzx	 edx, BYTE PTR [ecx+eax]
  000c7	03 55 ec	 add	 edx, DWORD PTR _s1$[ebp]
  000ca	89 55 ec	 mov	 DWORD PTR _s1$[ebp], edx
  000cd	8b 45 e0	 mov	 eax, DWORD PTR _s2$[ebp]
  000d0	03 45 ec	 add	 eax, DWORD PTR _s1$[ebp]
  000d3	89 45 e0	 mov	 DWORD PTR _s2$[ebp], eax

; 3251 :             s1 += buffer[3], s2 += s1;

  000d6	b8 01 00 00 00	 mov	 eax, 1
  000db	6b c8 03	 imul	 ecx, eax, 3
  000de	8b 55 0c	 mov	 edx, DWORD PTR _buffer$[ebp]
  000e1	0f b6 04 0a	 movzx	 eax, BYTE PTR [edx+ecx]
  000e5	03 45 ec	 add	 eax, DWORD PTR _s1$[ebp]
  000e8	89 45 ec	 mov	 DWORD PTR _s1$[ebp], eax
  000eb	8b 4d e0	 mov	 ecx, DWORD PTR _s2$[ebp]
  000ee	03 4d ec	 add	 ecx, DWORD PTR _s1$[ebp]
  000f1	89 4d e0	 mov	 DWORD PTR _s2$[ebp], ecx

; 3252 :             s1 += buffer[4], s2 += s1;

  000f4	b8 01 00 00 00	 mov	 eax, 1
  000f9	c1 e0 02	 shl	 eax, 2
  000fc	8b 4d 0c	 mov	 ecx, DWORD PTR _buffer$[ebp]
  000ff	0f b6 14 01	 movzx	 edx, BYTE PTR [ecx+eax]
  00103	03 55 ec	 add	 edx, DWORD PTR _s1$[ebp]
  00106	89 55 ec	 mov	 DWORD PTR _s1$[ebp], edx
  00109	8b 45 e0	 mov	 eax, DWORD PTR _s2$[ebp]
  0010c	03 45 ec	 add	 eax, DWORD PTR _s1$[ebp]
  0010f	89 45 e0	 mov	 DWORD PTR _s2$[ebp], eax

; 3253 :             s1 += buffer[5], s2 += s1;

  00112	b8 01 00 00 00	 mov	 eax, 1
  00117	6b c8 05	 imul	 ecx, eax, 5
  0011a	8b 55 0c	 mov	 edx, DWORD PTR _buffer$[ebp]
  0011d	0f b6 04 0a	 movzx	 eax, BYTE PTR [edx+ecx]
  00121	03 45 ec	 add	 eax, DWORD PTR _s1$[ebp]
  00124	89 45 ec	 mov	 DWORD PTR _s1$[ebp], eax
  00127	8b 4d e0	 mov	 ecx, DWORD PTR _s2$[ebp]
  0012a	03 4d ec	 add	 ecx, DWORD PTR _s1$[ebp]
  0012d	89 4d e0	 mov	 DWORD PTR _s2$[ebp], ecx

; 3254 :             s1 += buffer[6], s2 += s1;

  00130	b8 01 00 00 00	 mov	 eax, 1
  00135	6b c8 06	 imul	 ecx, eax, 6
  00138	8b 55 0c	 mov	 edx, DWORD PTR _buffer$[ebp]
  0013b	0f b6 04 0a	 movzx	 eax, BYTE PTR [edx+ecx]
  0013f	03 45 ec	 add	 eax, DWORD PTR _s1$[ebp]
  00142	89 45 ec	 mov	 DWORD PTR _s1$[ebp], eax
  00145	8b 4d e0	 mov	 ecx, DWORD PTR _s2$[ebp]
  00148	03 4d ec	 add	 ecx, DWORD PTR _s1$[ebp]
  0014b	89 4d e0	 mov	 DWORD PTR _s2$[ebp], ecx

; 3255 :             s1 += buffer[7], s2 += s1;

  0014e	b8 01 00 00 00	 mov	 eax, 1
  00153	6b c8 07	 imul	 ecx, eax, 7
  00156	8b 55 0c	 mov	 edx, DWORD PTR _buffer$[ebp]
  00159	0f b6 04 0a	 movzx	 eax, BYTE PTR [edx+ecx]
  0015d	03 45 ec	 add	 eax, DWORD PTR _s1$[ebp]
  00160	89 45 ec	 mov	 DWORD PTR _s1$[ebp], eax
  00163	8b 4d e0	 mov	 ecx, DWORD PTR _s2$[ebp]
  00166	03 4d ec	 add	 ecx, DWORD PTR _s1$[ebp]
  00169	89 4d e0	 mov	 DWORD PTR _s2$[ebp], ecx

; 3256 : 
; 3257 :             buffer += 8;

  0016c	8b 45 0c	 mov	 eax, DWORD PTR _buffer$[ebp]
  0016f	83 c0 08	 add	 eax, 8
  00172	89 45 0c	 mov	 DWORD PTR _buffer$[ebp], eax

; 3258 :         }

  00175	e9 eb fe ff ff	 jmp	 $LN4@stb_adler3
$LN5@stb_adler3:

; 3259 : 
; 3260 :         for (; i < blocklen; ++i)

  0017a	eb 09		 jmp	 SHORT $LN9@stb_adler3
$LN7@stb_adler3:
  0017c	8b 45 c8	 mov	 eax, DWORD PTR _i$[ebp]
  0017f	83 c0 01	 add	 eax, 1
  00182	89 45 c8	 mov	 DWORD PTR _i$[ebp], eax
$LN9@stb_adler3:
  00185	8b 45 c8	 mov	 eax, DWORD PTR _i$[ebp]
  00188	3b 45 d4	 cmp	 eax, DWORD PTR _blocklen$[ebp]
  0018b	73 20		 jae	 SHORT $LN8@stb_adler3

; 3261 :             s1 += *buffer++, s2 += s1;

  0018d	8b 45 0c	 mov	 eax, DWORD PTR _buffer$[ebp]
  00190	0f b6 08	 movzx	 ecx, BYTE PTR [eax]
  00193	03 4d ec	 add	 ecx, DWORD PTR _s1$[ebp]
  00196	89 4d ec	 mov	 DWORD PTR _s1$[ebp], ecx
  00199	8b 55 0c	 mov	 edx, DWORD PTR _buffer$[ebp]
  0019c	83 c2 01	 add	 edx, 1
  0019f	89 55 0c	 mov	 DWORD PTR _buffer$[ebp], edx
  001a2	8b 45 e0	 mov	 eax, DWORD PTR _s2$[ebp]
  001a5	03 45 ec	 add	 eax, DWORD PTR _s1$[ebp]
  001a8	89 45 e0	 mov	 DWORD PTR _s2$[ebp], eax
  001ab	eb cf		 jmp	 SHORT $LN7@stb_adler3
$LN8@stb_adler3:

; 3262 : 
; 3263 :         s1 %= ADLER_MOD, s2 %= ADLER_MOD;

  001ad	8b 45 ec	 mov	 eax, DWORD PTR _s1$[ebp]
  001b0	33 d2		 xor	 edx, edx
  001b2	b9 f1 ff 00 00	 mov	 ecx, 65521		; 0000fff1H
  001b7	f7 f1		 div	 ecx
  001b9	89 55 ec	 mov	 DWORD PTR _s1$[ebp], edx
  001bc	8b 45 e0	 mov	 eax, DWORD PTR _s2$[ebp]
  001bf	33 d2		 xor	 edx, edx
  001c1	b9 f1 ff 00 00	 mov	 ecx, 65521		; 0000fff1H
  001c6	f7 f1		 div	 ecx
  001c8	89 55 e0	 mov	 DWORD PTR _s2$[ebp], edx

; 3264 :         buflen -= blocklen;

  001cb	8b 45 10	 mov	 eax, DWORD PTR _buflen$[ebp]
  001ce	2b 45 d4	 sub	 eax, DWORD PTR _blocklen$[ebp]
  001d1	89 45 10	 mov	 DWORD PTR _buflen$[ebp], eax

; 3265 :         blocklen = 5552;

  001d4	c7 45 d4 b0 15
	00 00		 mov	 DWORD PTR _blocklen$[ebp], 5552 ; 000015b0H

; 3266 :     }

  001db	e9 72 fe ff ff	 jmp	 $LN2@stb_adler3
$LN3@stb_adler3:

; 3267 :     return (unsigned int)(s2 << 16) + (unsigned int)s1;

  001e0	8b 45 e0	 mov	 eax, DWORD PTR _s2$[ebp]
  001e3	c1 e0 10	 shl	 eax, 16			; 00000010H
  001e6	03 45 ec	 add	 eax, DWORD PTR _s1$[ebp]

; 3268 : }

  001e9	5f		 pop	 edi
  001ea	5e		 pop	 esi
  001eb	5b		 pop	 ebx
  001ec	81 c4 fc 00 00
	00		 add	 esp, 252		; 000000fcH
  001f2	3b ec		 cmp	 ebp, esp
  001f4	e8 00 00 00 00	 call	 __RTC_CheckEsp
  001f9	8b e5		 mov	 esp, ebp
  001fb	5d		 pop	 ebp
  001fc	c3		 ret	 0
?stb_adler32@@YAIIPAEI@Z ENDP				; stb_adler32
_TEXT	ENDS
; Function compile flags: /Odtp /RTCsu /ZI
; File D:\Programmieren\csgoHack\ProjektWolf\ImGui DirectX 9 Kiero Hook 2\imgui\imgui_draw.cpp
;	COMDAT ?stb_decompress_token@@YAPBEPBE@Z
_TEXT	SEGMENT
_i$ = 8							; size = 4
?stb_decompress_token@@YAPBEPBE@Z PROC			; stb_decompress_token, COMDAT

; 3223 : {

  00000	55		 push	 ebp
  00001	8b ec		 mov	 ebp, esp
  00003	81 ec c0 00 00
	00		 sub	 esp, 192		; 000000c0H
  00009	53		 push	 ebx
  0000a	56		 push	 esi
  0000b	57		 push	 edi
  0000c	8d bd 40 ff ff
	ff		 lea	 edi, DWORD PTR [ebp-192]
  00012	b9 30 00 00 00	 mov	 ecx, 48			; 00000030H
  00017	b8 cc cc cc cc	 mov	 eax, -858993460		; ccccccccH
  0001c	f3 ab		 rep stosd
  0001e	b9 00 00 00 00	 mov	 ecx, OFFSET __C693DA93_imgui_draw@cpp
  00023	e8 00 00 00 00	 call	 @__CheckForDebuggerJustMyCode@4

; 3224 :     if (*i >= 0x20) { // use fewer if's for cases that expand small

  00028	8b 45 08	 mov	 eax, DWORD PTR _i$[ebp]
  0002b	0f b6 08	 movzx	 ecx, BYTE PTR [eax]
  0002e	83 f9 20	 cmp	 ecx, 32			; 00000020H
  00031	0f 8c f2 00 00
	00		 jl	 $LN2@stb_decomp

; 3225 :         if (*i >= 0x80)       stb__match(stb__dout-i[1]-1, i[0] - 0x80 + 1), i += 2;

  00037	8b 45 08	 mov	 eax, DWORD PTR _i$[ebp]
  0003a	0f b6 08	 movzx	 ecx, BYTE PTR [eax]
  0003d	81 f9 80 00 00
	00		 cmp	 ecx, 128		; 00000080H
  00043	7c 44		 jl	 SHORT $LN4@stb_decomp
  00045	b8 01 00 00 00	 mov	 eax, 1
  0004a	6b c8 00	 imul	 ecx, eax, 0
  0004d	8b 55 08	 mov	 edx, DWORD PTR _i$[ebp]
  00050	0f b6 04 0a	 movzx	 eax, BYTE PTR [edx+ecx]
  00054	83 e8 7f	 sub	 eax, 127		; 0000007fH
  00057	50		 push	 eax
  00058	b9 01 00 00 00	 mov	 ecx, 1
  0005d	c1 e1 00	 shl	 ecx, 0
  00060	8b 55 08	 mov	 edx, DWORD PTR _i$[ebp]
  00063	0f b6 04 0a	 movzx	 eax, BYTE PTR [edx+ecx]
  00067	8b 0d 00 00 00
	00		 mov	 ecx, DWORD PTR ?stb__dout@@3PAEA
  0006d	2b c8		 sub	 ecx, eax
  0006f	83 e9 01	 sub	 ecx, 1
  00072	51		 push	 ecx
  00073	e8 00 00 00 00	 call	 ?stb__match@@YAXPBEI@Z	; stb__match
  00078	83 c4 08	 add	 esp, 8
  0007b	8b 55 08	 mov	 edx, DWORD PTR _i$[ebp]
  0007e	83 c2 02	 add	 edx, 2
  00081	89 55 08	 mov	 DWORD PTR _i$[ebp], edx
  00084	e9 9b 00 00 00	 jmp	 $LN5@stb_decomp
$LN4@stb_decomp:

; 3226 :         else if (*i >= 0x40)  stb__match(stb__dout-(stb__in2(0) - 0x4000 + 1), i[2]+1), i += 3;

  00089	8b 45 08	 mov	 eax, DWORD PTR _i$[ebp]
  0008c	0f b6 08	 movzx	 ecx, BYTE PTR [eax]
  0008f	83 f9 40	 cmp	 ecx, 64			; 00000040H
  00092	7c 55		 jl	 SHORT $LN6@stb_decomp
  00094	b8 01 00 00 00	 mov	 eax, 1
  00099	d1 e0		 shl	 eax, 1
  0009b	8b 4d 08	 mov	 ecx, DWORD PTR _i$[ebp]
  0009e	0f b6 14 01	 movzx	 edx, BYTE PTR [ecx+eax]
  000a2	83 c2 01	 add	 edx, 1
  000a5	52		 push	 edx
  000a6	b8 01 00 00 00	 mov	 eax, 1
  000ab	6b c8 00	 imul	 ecx, eax, 0
  000ae	8b 55 08	 mov	 edx, DWORD PTR _i$[ebp]
  000b1	0f b6 04 0a	 movzx	 eax, BYTE PTR [edx+ecx]
  000b5	c1 e0 08	 shl	 eax, 8
  000b8	b9 01 00 00 00	 mov	 ecx, 1
  000bd	c1 e1 00	 shl	 ecx, 0
  000c0	8b 55 08	 mov	 edx, DWORD PTR _i$[ebp]
  000c3	0f b6 0c 0a	 movzx	 ecx, BYTE PTR [edx+ecx]
  000c7	8d 94 08 01 c0
	ff ff		 lea	 edx, DWORD PTR [eax+ecx-16383]
  000ce	a1 00 00 00 00	 mov	 eax, DWORD PTR ?stb__dout@@3PAEA
  000d3	2b c2		 sub	 eax, edx
  000d5	50		 push	 eax
  000d6	e8 00 00 00 00	 call	 ?stb__match@@YAXPBEI@Z	; stb__match
  000db	83 c4 08	 add	 esp, 8
  000de	8b 4d 08	 mov	 ecx, DWORD PTR _i$[ebp]
  000e1	83 c1 03	 add	 ecx, 3
  000e4	89 4d 08	 mov	 DWORD PTR _i$[ebp], ecx
  000e7	eb 3b		 jmp	 SHORT $LN5@stb_decomp
$LN6@stb_decomp:

; 3227 :         else /* *i >= 0x20 */ stb__lit(i+1, i[0] - 0x20 + 1), i += 1 + (i[0] - 0x20 + 1);

  000e9	b8 01 00 00 00	 mov	 eax, 1
  000ee	6b c8 00	 imul	 ecx, eax, 0
  000f1	8b 55 08	 mov	 edx, DWORD PTR _i$[ebp]
  000f4	0f b6 04 0a	 movzx	 eax, BYTE PTR [edx+ecx]
  000f8	83 e8 1f	 sub	 eax, 31			; 0000001fH
  000fb	50		 push	 eax
  000fc	8b 4d 08	 mov	 ecx, DWORD PTR _i$[ebp]
  000ff	83 c1 01	 add	 ecx, 1
  00102	51		 push	 ecx
  00103	e8 00 00 00 00	 call	 ?stb__lit@@YAXPBEI@Z	; stb__lit
  00108	83 c4 08	 add	 esp, 8
  0010b	ba 01 00 00 00	 mov	 edx, 1
  00110	6b c2 00	 imul	 eax, edx, 0
  00113	8b 4d 08	 mov	 ecx, DWORD PTR _i$[ebp]
  00116	0f b6 14 01	 movzx	 edx, BYTE PTR [ecx+eax]
  0011a	8b 45 08	 mov	 eax, DWORD PTR _i$[ebp]
  0011d	8d 4c 10 e2	 lea	 ecx, DWORD PTR [eax+edx-30]
  00121	89 4d 08	 mov	 DWORD PTR _i$[ebp], ecx
$LN5@stb_decomp:

; 3228 :     } else { // more ifs for cases that expand large, since overhead is amortized

  00124	e9 e1 02 00 00	 jmp	 $LN3@stb_decomp
$LN2@stb_decomp:

; 3229 :         if (*i >= 0x18)       stb__match(stb__dout-(stb__in3(0) - 0x180000 + 1), i[3]+1), i += 4;

  00129	8b 45 08	 mov	 eax, DWORD PTR _i$[ebp]
  0012c	0f b6 08	 movzx	 ecx, BYTE PTR [eax]
  0012f	83 f9 18	 cmp	 ecx, 24			; 00000018H
  00132	7c 6d		 jl	 SHORT $LN8@stb_decomp
  00134	b8 01 00 00 00	 mov	 eax, 1
  00139	6b c8 03	 imul	 ecx, eax, 3
  0013c	8b 55 08	 mov	 edx, DWORD PTR _i$[ebp]
  0013f	0f b6 04 0a	 movzx	 eax, BYTE PTR [edx+ecx]
  00143	83 c0 01	 add	 eax, 1
  00146	50		 push	 eax
  00147	b9 01 00 00 00	 mov	 ecx, 1
  0014c	6b d1 00	 imul	 edx, ecx, 0
  0014f	8b 45 08	 mov	 eax, DWORD PTR _i$[ebp]
  00152	0f b6 0c 10	 movzx	 ecx, BYTE PTR [eax+edx]
  00156	c1 e1 10	 shl	 ecx, 16			; 00000010H
  00159	ba 01 00 00 00	 mov	 edx, 1
  0015e	c1 e2 00	 shl	 edx, 0
  00161	8b 45 08	 mov	 eax, DWORD PTR _i$[ebp]
  00164	0f b6 14 10	 movzx	 edx, BYTE PTR [eax+edx]
  00168	c1 e2 08	 shl	 edx, 8
  0016b	b8 01 00 00 00	 mov	 eax, 1
  00170	d1 e0		 shl	 eax, 1
  00172	8b 75 08	 mov	 esi, DWORD PTR _i$[ebp]
  00175	0f b6 04 06	 movzx	 eax, BYTE PTR [esi+eax]
  00179	03 d0		 add	 edx, eax
  0017b	8d 8c 11 01 00
	e8 ff		 lea	 ecx, DWORD PTR [ecx+edx-1572863]
  00182	8b 15 00 00 00
	00		 mov	 edx, DWORD PTR ?stb__dout@@3PAEA
  00188	2b d1		 sub	 edx, ecx
  0018a	52		 push	 edx
  0018b	e8 00 00 00 00	 call	 ?stb__match@@YAXPBEI@Z	; stb__match
  00190	83 c4 08	 add	 esp, 8
  00193	8b 45 08	 mov	 eax, DWORD PTR _i$[ebp]
  00196	83 c0 04	 add	 eax, 4
  00199	89 45 08	 mov	 DWORD PTR _i$[ebp], eax
  0019c	e9 69 02 00 00	 jmp	 $LN3@stb_decomp
$LN8@stb_decomp:

; 3230 :         else if (*i >= 0x10)  stb__match(stb__dout-(stb__in3(0) - 0x100000 + 1), stb__in2(3)+1), i += 5;

  001a1	8b 45 08	 mov	 eax, DWORD PTR _i$[ebp]
  001a4	0f b6 08	 movzx	 ecx, BYTE PTR [eax]
  001a7	83 f9 10	 cmp	 ecx, 16			; 00000010H
  001aa	0f 8c 80 00 00
	00		 jl	 $LN10@stb_decomp
  001b0	b8 01 00 00 00	 mov	 eax, 1
  001b5	6b c8 03	 imul	 ecx, eax, 3
  001b8	8b 55 08	 mov	 edx, DWORD PTR _i$[ebp]
  001bb	0f b6 04 0a	 movzx	 eax, BYTE PTR [edx+ecx]
  001bf	c1 e0 08	 shl	 eax, 8
  001c2	b9 01 00 00 00	 mov	 ecx, 1
  001c7	c1 e1 02	 shl	 ecx, 2
  001ca	8b 55 08	 mov	 edx, DWORD PTR _i$[ebp]
  001cd	0f b6 0c 0a	 movzx	 ecx, BYTE PTR [edx+ecx]
  001d1	8d 54 08 01	 lea	 edx, DWORD PTR [eax+ecx+1]
  001d5	52		 push	 edx
  001d6	b8 01 00 00 00	 mov	 eax, 1
  001db	6b c8 00	 imul	 ecx, eax, 0
  001de	8b 55 08	 mov	 edx, DWORD PTR _i$[ebp]
  001e1	0f b6 04 0a	 movzx	 eax, BYTE PTR [edx+ecx]
  001e5	c1 e0 10	 shl	 eax, 16			; 00000010H
  001e8	b9 01 00 00 00	 mov	 ecx, 1
  001ed	c1 e1 00	 shl	 ecx, 0
  001f0	8b 55 08	 mov	 edx, DWORD PTR _i$[ebp]
  001f3	0f b6 0c 0a	 movzx	 ecx, BYTE PTR [edx+ecx]
  001f7	c1 e1 08	 shl	 ecx, 8
  001fa	ba 01 00 00 00	 mov	 edx, 1
  001ff	d1 e2		 shl	 edx, 1
  00201	8b 75 08	 mov	 esi, DWORD PTR _i$[ebp]
  00204	0f b6 14 16	 movzx	 edx, BYTE PTR [esi+edx]
  00208	03 ca		 add	 ecx, edx
  0020a	8d 84 08 01 00
	f0 ff		 lea	 eax, DWORD PTR [eax+ecx-1048575]
  00211	8b 0d 00 00 00
	00		 mov	 ecx, DWORD PTR ?stb__dout@@3PAEA
  00217	2b c8		 sub	 ecx, eax
  00219	51		 push	 ecx
  0021a	e8 00 00 00 00	 call	 ?stb__match@@YAXPBEI@Z	; stb__match
  0021f	83 c4 08	 add	 esp, 8
  00222	8b 55 08	 mov	 edx, DWORD PTR _i$[ebp]
  00225	83 c2 05	 add	 edx, 5
  00228	89 55 08	 mov	 DWORD PTR _i$[ebp], edx
  0022b	e9 da 01 00 00	 jmp	 $LN3@stb_decomp
$LN10@stb_decomp:

; 3231 :         else if (*i >= 0x08)  stb__lit(i+2, stb__in2(0) - 0x0800 + 1), i += 2 + (stb__in2(0) - 0x0800 + 1);

  00230	8b 45 08	 mov	 eax, DWORD PTR _i$[ebp]
  00233	0f b6 08	 movzx	 ecx, BYTE PTR [eax]
  00236	83 f9 08	 cmp	 ecx, 8
  00239	7c 6b		 jl	 SHORT $LN12@stb_decomp
  0023b	b8 01 00 00 00	 mov	 eax, 1
  00240	6b c8 00	 imul	 ecx, eax, 0
  00243	8b 55 08	 mov	 edx, DWORD PTR _i$[ebp]
  00246	0f b6 04 0a	 movzx	 eax, BYTE PTR [edx+ecx]
  0024a	c1 e0 08	 shl	 eax, 8
  0024d	b9 01 00 00 00	 mov	 ecx, 1
  00252	c1 e1 00	 shl	 ecx, 0
  00255	8b 55 08	 mov	 edx, DWORD PTR _i$[ebp]
  00258	0f b6 0c 0a	 movzx	 ecx, BYTE PTR [edx+ecx]
  0025c	8d 94 08 01 f8
	ff ff		 lea	 edx, DWORD PTR [eax+ecx-2047]
  00263	52		 push	 edx
  00264	8b 45 08	 mov	 eax, DWORD PTR _i$[ebp]
  00267	83 c0 02	 add	 eax, 2
  0026a	50		 push	 eax
  0026b	e8 00 00 00 00	 call	 ?stb__lit@@YAXPBEI@Z	; stb__lit
  00270	83 c4 08	 add	 esp, 8
  00273	b9 01 00 00 00	 mov	 ecx, 1
  00278	6b d1 00	 imul	 edx, ecx, 0
  0027b	8b 45 08	 mov	 eax, DWORD PTR _i$[ebp]
  0027e	0f b6 0c 10	 movzx	 ecx, BYTE PTR [eax+edx]
  00282	c1 e1 08	 shl	 ecx, 8
  00285	ba 01 00 00 00	 mov	 edx, 1
  0028a	c1 e2 00	 shl	 edx, 0
  0028d	8b 45 08	 mov	 eax, DWORD PTR _i$[ebp]
  00290	0f b6 14 10	 movzx	 edx, BYTE PTR [eax+edx]
  00294	03 55 08	 add	 edx, DWORD PTR _i$[ebp]
  00297	8d 84 0a 03 f8
	ff ff		 lea	 eax, DWORD PTR [edx+ecx-2045]
  0029e	89 45 08	 mov	 DWORD PTR _i$[ebp], eax
  002a1	e9 64 01 00 00	 jmp	 $LN3@stb_decomp
$LN12@stb_decomp:

; 3232 :         else if (*i == 0x07)  stb__lit(i+3, stb__in2(1) + 1), i += 3 + (stb__in2(1) + 1);

  002a6	8b 45 08	 mov	 eax, DWORD PTR _i$[ebp]
  002a9	0f b6 08	 movzx	 ecx, BYTE PTR [eax]
  002ac	83 f9 07	 cmp	 ecx, 7
  002af	75 63		 jne	 SHORT $LN14@stb_decomp
  002b1	b8 01 00 00 00	 mov	 eax, 1
  002b6	c1 e0 00	 shl	 eax, 0
  002b9	8b 4d 08	 mov	 ecx, DWORD PTR _i$[ebp]
  002bc	0f b6 14 01	 movzx	 edx, BYTE PTR [ecx+eax]
  002c0	c1 e2 08	 shl	 edx, 8
  002c3	b8 01 00 00 00	 mov	 eax, 1
  002c8	d1 e0		 shl	 eax, 1
  002ca	8b 4d 08	 mov	 ecx, DWORD PTR _i$[ebp]
  002cd	0f b6 04 01	 movzx	 eax, BYTE PTR [ecx+eax]
  002d1	8d 4c 02 01	 lea	 ecx, DWORD PTR [edx+eax+1]
  002d5	51		 push	 ecx
  002d6	8b 55 08	 mov	 edx, DWORD PTR _i$[ebp]
  002d9	83 c2 03	 add	 edx, 3
  002dc	52		 push	 edx
  002dd	e8 00 00 00 00	 call	 ?stb__lit@@YAXPBEI@Z	; stb__lit
  002e2	83 c4 08	 add	 esp, 8
  002e5	b8 01 00 00 00	 mov	 eax, 1
  002ea	c1 e0 00	 shl	 eax, 0
  002ed	8b 4d 08	 mov	 ecx, DWORD PTR _i$[ebp]
  002f0	0f b6 14 01	 movzx	 edx, BYTE PTR [ecx+eax]
  002f4	c1 e2 08	 shl	 edx, 8
  002f7	b8 01 00 00 00	 mov	 eax, 1
  002fc	d1 e0		 shl	 eax, 1
  002fe	8b 4d 08	 mov	 ecx, DWORD PTR _i$[ebp]
  00301	0f b6 04 01	 movzx	 eax, BYTE PTR [ecx+eax]
  00305	03 45 08	 add	 eax, DWORD PTR _i$[ebp]
  00308	8d 4c 10 04	 lea	 ecx, DWORD PTR [eax+edx+4]
  0030c	89 4d 08	 mov	 DWORD PTR _i$[ebp], ecx
  0030f	e9 f6 00 00 00	 jmp	 $LN3@stb_decomp
$LN14@stb_decomp:

; 3233 :         else if (*i == 0x06)  stb__match(stb__dout-(stb__in3(1)+1), i[4]+1), i += 5;

  00314	8b 45 08	 mov	 eax, DWORD PTR _i$[ebp]
  00317	0f b6 08	 movzx	 ecx, BYTE PTR [eax]
  0031a	83 f9 06	 cmp	 ecx, 6
  0031d	75 69		 jne	 SHORT $LN16@stb_decomp
  0031f	b8 01 00 00 00	 mov	 eax, 1
  00324	c1 e0 02	 shl	 eax, 2
  00327	8b 4d 08	 mov	 ecx, DWORD PTR _i$[ebp]
  0032a	0f b6 14 01	 movzx	 edx, BYTE PTR [ecx+eax]
  0032e	83 c2 01	 add	 edx, 1
  00331	52		 push	 edx
  00332	b8 01 00 00 00	 mov	 eax, 1
  00337	c1 e0 00	 shl	 eax, 0
  0033a	8b 4d 08	 mov	 ecx, DWORD PTR _i$[ebp]
  0033d	0f b6 14 01	 movzx	 edx, BYTE PTR [ecx+eax]
  00341	c1 e2 10	 shl	 edx, 16			; 00000010H
  00344	b8 01 00 00 00	 mov	 eax, 1
  00349	d1 e0		 shl	 eax, 1
  0034b	8b 4d 08	 mov	 ecx, DWORD PTR _i$[ebp]
  0034e	0f b6 04 01	 movzx	 eax, BYTE PTR [ecx+eax]
  00352	c1 e0 08	 shl	 eax, 8
  00355	b9 01 00 00 00	 mov	 ecx, 1
  0035a	6b c9 03	 imul	 ecx, ecx, 3
  0035d	8b 75 08	 mov	 esi, DWORD PTR _i$[ebp]
  00360	0f b6 0c 0e	 movzx	 ecx, BYTE PTR [esi+ecx]
  00364	03 c1		 add	 eax, ecx
  00366	8d 54 02 01	 lea	 edx, DWORD PTR [edx+eax+1]
  0036a	a1 00 00 00 00	 mov	 eax, DWORD PTR ?stb__dout@@3PAEA
  0036f	2b c2		 sub	 eax, edx
  00371	50		 push	 eax
  00372	e8 00 00 00 00	 call	 ?stb__match@@YAXPBEI@Z	; stb__match
  00377	83 c4 08	 add	 esp, 8
  0037a	8b 4d 08	 mov	 ecx, DWORD PTR _i$[ebp]
  0037d	83 c1 05	 add	 ecx, 5
  00380	89 4d 08	 mov	 DWORD PTR _i$[ebp], ecx
  00383	e9 82 00 00 00	 jmp	 $LN3@stb_decomp
$LN16@stb_decomp:

; 3234 :         else if (*i == 0x04)  stb__match(stb__dout-(stb__in3(1)+1), stb__in2(4)+1), i += 6;

  00388	8b 45 08	 mov	 eax, DWORD PTR _i$[ebp]
  0038b	0f b6 08	 movzx	 ecx, BYTE PTR [eax]
  0038e	83 f9 04	 cmp	 ecx, 4
  00391	75 77		 jne	 SHORT $LN3@stb_decomp
  00393	b8 01 00 00 00	 mov	 eax, 1
  00398	c1 e0 02	 shl	 eax, 2
  0039b	8b 4d 08	 mov	 ecx, DWORD PTR _i$[ebp]
  0039e	0f b6 14 01	 movzx	 edx, BYTE PTR [ecx+eax]
  003a2	c1 e2 08	 shl	 edx, 8
  003a5	b8 01 00 00 00	 mov	 eax, 1
  003aa	6b c8 05	 imul	 ecx, eax, 5
  003ad	8b 45 08	 mov	 eax, DWORD PTR _i$[ebp]
  003b0	0f b6 0c 08	 movzx	 ecx, BYTE PTR [eax+ecx]
  003b4	8d 54 0a 01	 lea	 edx, DWORD PTR [edx+ecx+1]
  003b8	52		 push	 edx
  003b9	b8 01 00 00 00	 mov	 eax, 1
  003be	c1 e0 00	 shl	 eax, 0
  003c1	8b 4d 08	 mov	 ecx, DWORD PTR _i$[ebp]
  003c4	0f b6 14 01	 movzx	 edx, BYTE PTR [ecx+eax]
  003c8	c1 e2 10	 shl	 edx, 16			; 00000010H
  003cb	b8 01 00 00 00	 mov	 eax, 1
  003d0	d1 e0		 shl	 eax, 1
  003d2	8b 4d 08	 mov	 ecx, DWORD PTR _i$[ebp]
  003d5	0f b6 04 01	 movzx	 eax, BYTE PTR [ecx+eax]
  003d9	c1 e0 08	 shl	 eax, 8
  003dc	b9 01 00 00 00	 mov	 ecx, 1
  003e1	6b c9 03	 imul	 ecx, ecx, 3
  003e4	8b 75 08	 mov	 esi, DWORD PTR _i$[ebp]
  003e7	0f b6 0c 0e	 movzx	 ecx, BYTE PTR [esi+ecx]
  003eb	03 c1		 add	 eax, ecx
  003ed	8d 54 02 01	 lea	 edx, DWORD PTR [edx+eax+1]
  003f1	a1 00 00 00 00	 mov	 eax, DWORD PTR ?stb__dout@@3PAEA
  003f6	2b c2		 sub	 eax, edx
  003f8	50		 push	 eax
  003f9	e8 00 00 00 00	 call	 ?stb__match@@YAXPBEI@Z	; stb__match
  003fe	83 c4 08	 add	 esp, 8
  00401	8b 4d 08	 mov	 ecx, DWORD PTR _i$[ebp]
  00404	83 c1 06	 add	 ecx, 6
  00407	89 4d 08	 mov	 DWORD PTR _i$[ebp], ecx
$LN3@stb_decomp:

; 3235 :     }
; 3236 :     return i;

  0040a	8b 45 08	 mov	 eax, DWORD PTR _i$[ebp]

; 3237 : }

  0040d	5f		 pop	 edi
  0040e	5e		 pop	 esi
  0040f	5b		 pop	 ebx
  00410	81 c4 c0 00 00
	00		 add	 esp, 192		; 000000c0H
  00416	3b ec		 cmp	 ebp, esp
  00418	e8 00 00 00 00	 call	 __RTC_CheckEsp
  0041d	8b e5		 mov	 esp, ebp
  0041f	5d		 pop	 ebp
  00420	c3		 ret	 0
?stb_decompress_token@@YAPBEPBE@Z ENDP			; stb_decompress_token
_TEXT	ENDS
; Function compile flags: /Odtp /RTCsu /ZI
; File D:\Programmieren\csgoHack\ProjektWolf\ImGui DirectX 9 Kiero Hook 2\imgui\imgui_draw.cpp
;	COMDAT ?stb__lit@@YAXPBEI@Z
_TEXT	SEGMENT
_data$ = 8						; size = 4
_length$ = 12						; size = 4
?stb__lit@@YAXPBEI@Z PROC				; stb__lit, COMDAT

; 3210 : {

  00000	55		 push	 ebp
  00001	8b ec		 mov	 ebp, esp
  00003	81 ec c0 00 00
	00		 sub	 esp, 192		; 000000c0H
  00009	53		 push	 ebx
  0000a	56		 push	 esi
  0000b	57		 push	 edi
  0000c	8d bd 40 ff ff
	ff		 lea	 edi, DWORD PTR [ebp-192]
  00012	b9 30 00 00 00	 mov	 ecx, 48			; 00000030H
  00017	b8 cc cc cc cc	 mov	 eax, -858993460		; ccccccccH
  0001c	f3 ab		 rep stosd
  0001e	b9 00 00 00 00	 mov	 ecx, OFFSET __C693DA93_imgui_draw@cpp
  00023	e8 00 00 00 00	 call	 @__CheckForDebuggerJustMyCode@4

; 3211 :     IM_ASSERT(stb__dout + length <= stb__barrier_out_e);

  00028	a1 00 00 00 00	 mov	 eax, DWORD PTR ?stb__dout@@3PAEA
  0002d	03 45 0c	 add	 eax, DWORD PTR _length$[ebp]
  00030	3b 05 00 00 00
	00		 cmp	 eax, DWORD PTR ?stb__barrier_out_e@@3PAEA
  00036	76 26		 jbe	 SHORT $LN5@stb__lit
  00038	8b 0d 00 00 00
	00		 mov	 ecx, DWORD PTR ?__LINE__Var@?0??stb__lit@@YAXPBEI@Z@4JA
  0003e	83 c1 01	 add	 ecx, 1
  00041	8b f4		 mov	 esi, esp
  00043	51		 push	 ecx
  00044	68 00 00 00 00	 push	 OFFSET ??_C@_1LA@MPFJCAF@?$AAD?$AA?3?$AA?2?$AAP?$AAr?$AAo?$AAg?$AAr?$AAa?$AAm?$AAm?$AAi?$AAe?$AAr?$AAe@
  00049	68 00 00 00 00	 push	 OFFSET ??_C@_1FC@IADGHEAH@?$AAs?$AAt?$AAb?$AA_?$AA_?$AAd?$AAo?$AAu?$AAt?$AA?5?$AA?$CL?$AA?5?$AAl?$AAe?$AAn@
  0004e	ff 15 00 00 00
	00		 call	 DWORD PTR __imp___wassert
  00054	83 c4 0c	 add	 esp, 12			; 0000000cH
  00057	3b f4		 cmp	 esi, esp
  00059	e8 00 00 00 00	 call	 __RTC_CheckEsp
$LN5@stb__lit:

; 3212 :     if (stb__dout + length > stb__barrier_out_e) { stb__dout += length; return; }

  0005e	a1 00 00 00 00	 mov	 eax, DWORD PTR ?stb__dout@@3PAEA
  00063	03 45 0c	 add	 eax, DWORD PTR _length$[ebp]
  00066	3b 05 00 00 00
	00		 cmp	 eax, DWORD PTR ?stb__barrier_out_e@@3PAEA
  0006c	76 0f		 jbe	 SHORT $LN2@stb__lit
  0006e	a1 00 00 00 00	 mov	 eax, DWORD PTR ?stb__dout@@3PAEA
  00073	03 45 0c	 add	 eax, DWORD PTR _length$[ebp]
  00076	a3 00 00 00 00	 mov	 DWORD PTR ?stb__dout@@3PAEA, eax
  0007b	eb 3e		 jmp	 SHORT $LN1@stb__lit
$LN2@stb__lit:

; 3213 :     if (data < stb__barrier_in_b) { stb__dout = stb__barrier_out_e+1; return; }

  0007d	8b 45 08	 mov	 eax, DWORD PTR _data$[ebp]
  00080	3b 05 00 00 00
	00		 cmp	 eax, DWORD PTR ?stb__barrier_in_b@@3PBEB
  00086	73 0f		 jae	 SHORT $LN3@stb__lit
  00088	a1 00 00 00 00	 mov	 eax, DWORD PTR ?stb__barrier_out_e@@3PAEA
  0008d	83 c0 01	 add	 eax, 1
  00090	a3 00 00 00 00	 mov	 DWORD PTR ?stb__dout@@3PAEA, eax
  00095	eb 24		 jmp	 SHORT $LN1@stb__lit
$LN3@stb__lit:

; 3214 :     memcpy(stb__dout, data, length);

  00097	8b 45 0c	 mov	 eax, DWORD PTR _length$[ebp]
  0009a	50		 push	 eax
  0009b	8b 4d 08	 mov	 ecx, DWORD PTR _data$[ebp]
  0009e	51		 push	 ecx
  0009f	8b 15 00 00 00
	00		 mov	 edx, DWORD PTR ?stb__dout@@3PAEA
  000a5	52		 push	 edx
  000a6	e8 00 00 00 00	 call	 _memcpy
  000ab	83 c4 0c	 add	 esp, 12			; 0000000cH

; 3215 :     stb__dout += length;

  000ae	a1 00 00 00 00	 mov	 eax, DWORD PTR ?stb__dout@@3PAEA
  000b3	03 45 0c	 add	 eax, DWORD PTR _length$[ebp]
  000b6	a3 00 00 00 00	 mov	 DWORD PTR ?stb__dout@@3PAEA, eax
$LN1@stb__lit:

; 3216 : }

  000bb	5f		 pop	 edi
  000bc	5e		 pop	 esi
  000bd	5b		 pop	 ebx
  000be	81 c4 c0 00 00
	00		 add	 esp, 192		; 000000c0H
  000c4	3b ec		 cmp	 ebp, esp
  000c6	e8 00 00 00 00	 call	 __RTC_CheckEsp
  000cb	8b e5		 mov	 esp, ebp
  000cd	5d		 pop	 ebp
  000ce	c3		 ret	 0
?stb__lit@@YAXPBEI@Z ENDP				; stb__lit
_TEXT	ENDS
; Function compile flags: /Odtp /RTCsu /ZI
; File D:\Programmieren\csgoHack\ProjektWolf\ImGui DirectX 9 Kiero Hook 2\imgui\imgui_draw.cpp
;	COMDAT ?stb__match@@YAXPBEI@Z
_TEXT	SEGMENT
tv77 = -196						; size = 4
_data$ = 8						; size = 4
_length$ = 12						; size = 4
?stb__match@@YAXPBEI@Z PROC				; stb__match, COMDAT

; 3201 : {

  00000	55		 push	 ebp
  00001	8b ec		 mov	 ebp, esp
  00003	81 ec c4 00 00
	00		 sub	 esp, 196		; 000000c4H
  00009	53		 push	 ebx
  0000a	56		 push	 esi
  0000b	57		 push	 edi
  0000c	8d bd 3c ff ff
	ff		 lea	 edi, DWORD PTR [ebp-196]
  00012	b9 31 00 00 00	 mov	 ecx, 49			; 00000031H
  00017	b8 cc cc cc cc	 mov	 eax, -858993460		; ccccccccH
  0001c	f3 ab		 rep stosd
  0001e	b9 00 00 00 00	 mov	 ecx, OFFSET __C693DA93_imgui_draw@cpp
  00023	e8 00 00 00 00	 call	 @__CheckForDebuggerJustMyCode@4

; 3202 :     // INVERSE of memmove... write each byte before copying the next...
; 3203 :     IM_ASSERT(stb__dout + length <= stb__barrier_out_e);

  00028	a1 00 00 00 00	 mov	 eax, DWORD PTR ?stb__dout@@3PAEA
  0002d	03 45 0c	 add	 eax, DWORD PTR _length$[ebp]
  00030	3b 05 00 00 00
	00		 cmp	 eax, DWORD PTR ?stb__barrier_out_e@@3PAEA
  00036	76 26		 jbe	 SHORT $LN7@stb__match
  00038	8b 0d 00 00 00
	00		 mov	 ecx, DWORD PTR ?__LINE__Var@?0??stb__match@@YAXPBEI@Z@4JA
  0003e	83 c1 02	 add	 ecx, 2
  00041	8b f4		 mov	 esi, esp
  00043	51		 push	 ecx
  00044	68 00 00 00 00	 push	 OFFSET ??_C@_1LA@MPFJCAF@?$AAD?$AA?3?$AA?2?$AAP?$AAr?$AAo?$AAg?$AAr?$AAa?$AAm?$AAm?$AAi?$AAe?$AAr?$AAe@
  00049	68 00 00 00 00	 push	 OFFSET ??_C@_1FC@IADGHEAH@?$AAs?$AAt?$AAb?$AA_?$AA_?$AAd?$AAo?$AAu?$AAt?$AA?5?$AA?$CL?$AA?5?$AAl?$AAe?$AAn@
  0004e	ff 15 00 00 00
	00		 call	 DWORD PTR __imp___wassert
  00054	83 c4 0c	 add	 esp, 12			; 0000000cH
  00057	3b f4		 cmp	 esi, esp
  00059	e8 00 00 00 00	 call	 __RTC_CheckEsp
$LN7@stb__match:

; 3204 :     if (stb__dout + length > stb__barrier_out_e) { stb__dout += length; return; }

  0005e	a1 00 00 00 00	 mov	 eax, DWORD PTR ?stb__dout@@3PAEA
  00063	03 45 0c	 add	 eax, DWORD PTR _length$[ebp]
  00066	3b 05 00 00 00
	00		 cmp	 eax, DWORD PTR ?stb__barrier_out_e@@3PAEA
  0006c	76 0f		 jbe	 SHORT $LN4@stb__match
  0006e	a1 00 00 00 00	 mov	 eax, DWORD PTR ?stb__dout@@3PAEA
  00073	03 45 0c	 add	 eax, DWORD PTR _length$[ebp]
  00076	a3 00 00 00 00	 mov	 DWORD PTR ?stb__dout@@3PAEA, eax
  0007b	eb 59		 jmp	 SHORT $LN1@stb__match
$LN4@stb__match:

; 3205 :     if (data < stb__barrier_out_b) { stb__dout = stb__barrier_out_e+1; return; }

  0007d	8b 45 08	 mov	 eax, DWORD PTR _data$[ebp]
  00080	3b 05 00 00 00
	00		 cmp	 eax, DWORD PTR ?stb__barrier_out_b@@3PAEA
  00086	73 0f		 jae	 SHORT $LN2@stb__match
  00088	a1 00 00 00 00	 mov	 eax, DWORD PTR ?stb__barrier_out_e@@3PAEA
  0008d	83 c0 01	 add	 eax, 1
  00090	a3 00 00 00 00	 mov	 DWORD PTR ?stb__dout@@3PAEA, eax
  00095	eb 3f		 jmp	 SHORT $LN1@stb__match
$LN2@stb__match:

; 3206 :     while (length--) *stb__dout++ = *data++;

  00097	8b 45 0c	 mov	 eax, DWORD PTR _length$[ebp]
  0009a	89 85 3c ff ff
	ff		 mov	 DWORD PTR tv77[ebp], eax
  000a0	8b 4d 0c	 mov	 ecx, DWORD PTR _length$[ebp]
  000a3	83 e9 01	 sub	 ecx, 1
  000a6	89 4d 0c	 mov	 DWORD PTR _length$[ebp], ecx
  000a9	83 bd 3c ff ff
	ff 00		 cmp	 DWORD PTR tv77[ebp], 0
  000b0	74 24		 je	 SHORT $LN1@stb__match
  000b2	a1 00 00 00 00	 mov	 eax, DWORD PTR ?stb__dout@@3PAEA
  000b7	8b 4d 08	 mov	 ecx, DWORD PTR _data$[ebp]
  000ba	8a 11		 mov	 dl, BYTE PTR [ecx]
  000bc	88 10		 mov	 BYTE PTR [eax], dl
  000be	a1 00 00 00 00	 mov	 eax, DWORD PTR ?stb__dout@@3PAEA
  000c3	83 c0 01	 add	 eax, 1
  000c6	a3 00 00 00 00	 mov	 DWORD PTR ?stb__dout@@3PAEA, eax
  000cb	8b 4d 08	 mov	 ecx, DWORD PTR _data$[ebp]
  000ce	83 c1 01	 add	 ecx, 1
  000d1	89 4d 08	 mov	 DWORD PTR _data$[ebp], ecx
  000d4	eb c1		 jmp	 SHORT $LN2@stb__match
$LN1@stb__match:

; 3207 : }

  000d6	5f		 pop	 edi
  000d7	5e		 pop	 esi
  000d8	5b		 pop	 ebx
  000d9	81 c4 c4 00 00
	00		 add	 esp, 196		; 000000c4H
  000df	3b ec		 cmp	 ebp, esp
  000e1	e8 00 00 00 00	 call	 __RTC_CheckEsp
  000e6	8b e5		 mov	 esp, ebp
  000e8	5d		 pop	 ebp
  000e9	c3		 ret	 0
?stb__match@@YAXPBEI@Z ENDP				; stb__match
_TEXT	ENDS
; Function compile flags: /Odtp /RTCsu /ZI
; File D:\Programmieren\csgoHack\ProjektWolf\ImGui DirectX 9 Kiero Hook 2\imgui\imgui_internal.h
;	COMDAT ??$ImLerp@M@@YAMMMM@Z
_TEXT	SEGMENT
tv72 = -196						; size = 4
_a$ = 8							; size = 4
_b$ = 12						; size = 4
_t$ = 16						; size = 4
??$ImLerp@M@@YAMMMM@Z PROC				; ImLerp<float>, COMDAT

; 317  : template<typename T> static inline T ImLerp(T a, T b, float t)                  { return (T)(a + (b - a) * t); }

  00000	55		 push	 ebp
  00001	8b ec		 mov	 ebp, esp
  00003	81 ec c4 00 00
	00		 sub	 esp, 196		; 000000c4H
  00009	53		 push	 ebx
  0000a	56		 push	 esi
  0000b	57		 push	 edi
  0000c	8d bd 3c ff ff
	ff		 lea	 edi, DWORD PTR [ebp-196]
  00012	b9 31 00 00 00	 mov	 ecx, 49			; 00000031H
  00017	b8 cc cc cc cc	 mov	 eax, -858993460		; ccccccccH
  0001c	f3 ab		 rep stosd
  0001e	b9 00 00 00 00	 mov	 ecx, OFFSET __71512A68_imgui_internal@h
  00023	e8 00 00 00 00	 call	 @__CheckForDebuggerJustMyCode@4
  00028	f3 0f 10 45 0c	 movss	 xmm0, DWORD PTR _b$[ebp]
  0002d	f3 0f 5c 45 08	 subss	 xmm0, DWORD PTR _a$[ebp]
  00032	f3 0f 59 45 10	 mulss	 xmm0, DWORD PTR _t$[ebp]
  00037	f3 0f 58 45 08	 addss	 xmm0, DWORD PTR _a$[ebp]
  0003c	f3 0f 11 85 3c
	ff ff ff	 movss	 DWORD PTR tv72[ebp], xmm0
  00044	d9 85 3c ff ff
	ff		 fld	 DWORD PTR tv72[ebp]
  0004a	5f		 pop	 edi
  0004b	5e		 pop	 esi
  0004c	5b		 pop	 ebx
  0004d	81 c4 c4 00 00
	00		 add	 esp, 196		; 000000c4H
  00053	3b ec		 cmp	 ebp, esp
  00055	e8 00 00 00 00	 call	 __RTC_CheckEsp
  0005a	8b e5		 mov	 esp, ebp
  0005c	5d		 pop	 ebp
  0005d	c3		 ret	 0
??$ImLerp@M@@YAMMMM@Z ENDP				; ImLerp<float>
_TEXT	ENDS
; Function compile flags: /Odtp /RTCsu /ZI
; File D:\Programmieren\csgoHack\ProjektWolf\ImGui DirectX 9 Kiero Hook 2\imgui\imgui_internal.h
;	COMDAT ??$ImSwap@M@@YAXAAM0@Z
_TEXT	SEGMENT
_tmp$ = -8						; size = 4
_a$ = 8							; size = 4
_b$ = 12						; size = 4
??$ImSwap@M@@YAXAAM0@Z PROC				; ImSwap<float>, COMDAT

; 318  : template<typename T> static inline void ImSwap(T& a, T& b)                      { T tmp = a; a = b; b = tmp; }

  00000	55		 push	 ebp
  00001	8b ec		 mov	 ebp, esp
  00003	81 ec cc 00 00
	00		 sub	 esp, 204		; 000000ccH
  00009	53		 push	 ebx
  0000a	56		 push	 esi
  0000b	57		 push	 edi
  0000c	8d bd 34 ff ff
	ff		 lea	 edi, DWORD PTR [ebp-204]
  00012	b9 33 00 00 00	 mov	 ecx, 51			; 00000033H
  00017	b8 cc cc cc cc	 mov	 eax, -858993460		; ccccccccH
  0001c	f3 ab		 rep stosd
  0001e	b9 00 00 00 00	 mov	 ecx, OFFSET __71512A68_imgui_internal@h
  00023	e8 00 00 00 00	 call	 @__CheckForDebuggerJustMyCode@4
  00028	8b 45 08	 mov	 eax, DWORD PTR _a$[ebp]
  0002b	f3 0f 10 00	 movss	 xmm0, DWORD PTR [eax]
  0002f	f3 0f 11 45 f8	 movss	 DWORD PTR _tmp$[ebp], xmm0
  00034	8b 45 08	 mov	 eax, DWORD PTR _a$[ebp]
  00037	8b 4d 0c	 mov	 ecx, DWORD PTR _b$[ebp]
  0003a	8b 11		 mov	 edx, DWORD PTR [ecx]
  0003c	89 10		 mov	 DWORD PTR [eax], edx
  0003e	8b 45 0c	 mov	 eax, DWORD PTR _b$[ebp]
  00041	f3 0f 10 45 f8	 movss	 xmm0, DWORD PTR _tmp$[ebp]
  00046	f3 0f 11 00	 movss	 DWORD PTR [eax], xmm0
  0004a	5f		 pop	 edi
  0004b	5e		 pop	 esi
  0004c	5b		 pop	 ebx
  0004d	81 c4 cc 00 00
	00		 add	 esp, 204		; 000000ccH
  00053	3b ec		 cmp	 ebp, esp
  00055	e8 00 00 00 00	 call	 __RTC_CheckEsp
  0005a	8b e5		 mov	 esp, ebp
  0005c	5d		 pop	 ebp
  0005d	c3		 ret	 0
??$ImSwap@M@@YAXAAM0@Z ENDP				; ImSwap<float>
_TEXT	ENDS
; Function compile flags: /Odtp /RTCsu /ZI
; File D:\Programmieren\csgoHack\ProjektWolf\ImGui DirectX 9 Kiero Hook 2\imgui\imgui_draw.cpp
;	COMDAT ?ImAcos01@@YAMM@Z
_TEXT	SEGMENT
_x$ = 8							; size = 4
?ImAcos01@@YAMM@Z PROC					; ImAcos01, COMDAT

; 3115 : {

  00000	55		 push	 ebp
  00001	8b ec		 mov	 ebp, esp
  00003	81 ec c0 00 00
	00		 sub	 esp, 192		; 000000c0H
  00009	53		 push	 ebx
  0000a	56		 push	 esi
  0000b	57		 push	 edi
  0000c	8d bd 40 ff ff
	ff		 lea	 edi, DWORD PTR [ebp-192]
  00012	b9 30 00 00 00	 mov	 ecx, 48			; 00000030H
  00017	b8 cc cc cc cc	 mov	 eax, -858993460		; ccccccccH
  0001c	f3 ab		 rep stosd
  0001e	b9 00 00 00 00	 mov	 ecx, OFFSET __C693DA93_imgui_draw@cpp
  00023	e8 00 00 00 00	 call	 @__CheckForDebuggerJustMyCode@4

; 3116 :     if (x <= 0.0f) return IM_PI * 0.5f;

  00028	0f 57 c0	 xorps	 xmm0, xmm0
  0002b	0f 2f 45 08	 comiss	 xmm0, DWORD PTR _x$[ebp]
  0002f	72 08		 jb	 SHORT $LN2@ImAcos01
  00031	d9 05 00 00 00
	00		 fld	 DWORD PTR __real@3fc90fdb
  00037	eb 25		 jmp	 SHORT $LN1@ImAcos01
$LN2@ImAcos01:

; 3117 :     if (x >= 1.0f) return 0.0f;

  00039	f3 0f 10 45 08	 movss	 xmm0, DWORD PTR _x$[ebp]
  0003e	0f 2f 05 00 00
	00 00		 comiss	 xmm0, DWORD PTR __real@3f800000
  00045	72 04		 jb	 SHORT $LN3@ImAcos01
  00047	d9 ee		 fldz
  00049	eb 13		 jmp	 SHORT $LN1@ImAcos01
$LN3@ImAcos01:

; 3118 :     return ImAcos(x);

  0004b	51		 push	 ecx
  0004c	f3 0f 10 45 08	 movss	 xmm0, DWORD PTR _x$[ebp]
  00051	f3 0f 11 04 24	 movss	 DWORD PTR [esp], xmm0
  00056	e8 00 00 00 00	 call	 ?ImAcos@@YAMM@Z		; ImAcos
  0005b	83 c4 04	 add	 esp, 4
$LN1@ImAcos01:

; 3119 :     //return (-0.69813170079773212f * x * x - 0.87266462599716477f) * x + 1.5707963267948966f; // Cheap approximation, may be enough for what we do.
; 3120 : }

  0005e	5f		 pop	 edi
  0005f	5e		 pop	 esi
  00060	5b		 pop	 ebx
  00061	81 c4 c0 00 00
	00		 add	 esp, 192		; 000000c0H
  00067	3b ec		 cmp	 ebp, esp
  00069	e8 00 00 00 00	 call	 __RTC_CheckEsp
  0006e	8b e5		 mov	 esp, ebp
  00070	5d		 pop	 ebp
  00071	c3		 ret	 0
?ImAcos01@@YAMM@Z ENDP					; ImAcos01
_TEXT	ENDS
; Function compile flags: /Odtp /RTCsu /ZI
; File D:\Programmieren\csgoHack\ProjektWolf\ImGui DirectX 9 Kiero Hook 2\imgui\imgui_draw.cpp
;	COMDAT ?UnpackAccumulativeOffsetsIntoRanges@@YAXHPBFHPAG@Z
_TEXT	SEGMENT
tv74 = -208						; size = 4
_n$1 = -8						; size = 4
_base_codepoint$ = 8					; size = 4
_accumulative_offsets$ = 12				; size = 4
_accumulative_offsets_count$ = 16			; size = 4
_out_ranges$ = 20					; size = 4
?UnpackAccumulativeOffsetsIntoRanges@@YAXHPBFHPAG@Z PROC ; UnpackAccumulativeOffsetsIntoRanges, COMDAT

; 2302 : {

  00000	55		 push	 ebp
  00001	8b ec		 mov	 ebp, esp
  00003	81 ec d0 00 00
	00		 sub	 esp, 208		; 000000d0H
  00009	53		 push	 ebx
  0000a	56		 push	 esi
  0000b	57		 push	 edi
  0000c	8d bd 30 ff ff
	ff		 lea	 edi, DWORD PTR [ebp-208]
  00012	b9 34 00 00 00	 mov	 ecx, 52			; 00000034H
  00017	b8 cc cc cc cc	 mov	 eax, -858993460		; ccccccccH
  0001c	f3 ab		 rep stosd
  0001e	b9 00 00 00 00	 mov	 ecx, OFFSET __C693DA93_imgui_draw@cpp
  00023	e8 00 00 00 00	 call	 @__CheckForDebuggerJustMyCode@4

; 2303 :     for (int n = 0; n < accumulative_offsets_count; n++, out_ranges += 2)

  00028	c7 45 f8 00 00
	00 00		 mov	 DWORD PTR _n$1[ebp], 0
  0002f	eb 12		 jmp	 SHORT $LN4@UnpackAccu
$LN2@UnpackAccu:
  00031	8b 45 f8	 mov	 eax, DWORD PTR _n$1[ebp]
  00034	83 c0 01	 add	 eax, 1
  00037	89 45 f8	 mov	 DWORD PTR _n$1[ebp], eax
  0003a	8b 4d 14	 mov	 ecx, DWORD PTR _out_ranges$[ebp]
  0003d	83 c1 04	 add	 ecx, 4
  00040	89 4d 14	 mov	 DWORD PTR _out_ranges$[ebp], ecx
$LN4@UnpackAccu:
  00043	8b 45 f8	 mov	 eax, DWORD PTR _n$1[ebp]
  00046	3b 45 10	 cmp	 eax, DWORD PTR _accumulative_offsets_count$[ebp]
  00049	7d 53		 jge	 SHORT $LN3@UnpackAccu

; 2304 :     {
; 2305 :         out_ranges[0] = out_ranges[1] = (ImWchar)(base_codepoint + accumulative_offsets[n]);

  0004b	8b 45 f8	 mov	 eax, DWORD PTR _n$1[ebp]
  0004e	8b 4d 0c	 mov	 ecx, DWORD PTR _accumulative_offsets$[ebp]
  00051	0f bf 14 41	 movsx	 edx, WORD PTR [ecx+eax*2]
  00055	8b 45 08	 mov	 eax, DWORD PTR _base_codepoint$[ebp]
  00058	03 c2		 add	 eax, edx
  0005a	89 85 30 ff ff
	ff		 mov	 DWORD PTR tv74[ebp], eax
  00060	b9 02 00 00 00	 mov	 ecx, 2
  00065	c1 e1 00	 shl	 ecx, 0
  00068	8b 55 14	 mov	 edx, DWORD PTR _out_ranges$[ebp]
  0006b	66 8b 85 30 ff
	ff ff		 mov	 ax, WORD PTR tv74[ebp]
  00072	66 89 04 0a	 mov	 WORD PTR [edx+ecx], ax
  00076	b9 02 00 00 00	 mov	 ecx, 2
  0007b	6b d1 00	 imul	 edx, ecx, 0
  0007e	8b 45 14	 mov	 eax, DWORD PTR _out_ranges$[ebp]
  00081	66 8b 8d 30 ff
	ff ff		 mov	 cx, WORD PTR tv74[ebp]
  00088	66 89 0c 10	 mov	 WORD PTR [eax+edx], cx

; 2306 :         base_codepoint += accumulative_offsets[n];

  0008c	8b 45 f8	 mov	 eax, DWORD PTR _n$1[ebp]
  0008f	8b 4d 0c	 mov	 ecx, DWORD PTR _accumulative_offsets$[ebp]
  00092	0f bf 14 41	 movsx	 edx, WORD PTR [ecx+eax*2]
  00096	03 55 08	 add	 edx, DWORD PTR _base_codepoint$[ebp]
  00099	89 55 08	 mov	 DWORD PTR _base_codepoint$[ebp], edx

; 2307 :     }

  0009c	eb 93		 jmp	 SHORT $LN2@UnpackAccu
$LN3@UnpackAccu:

; 2308 :     out_ranges[0] = 0;

  0009e	b8 02 00 00 00	 mov	 eax, 2
  000a3	6b c8 00	 imul	 ecx, eax, 0
  000a6	33 d2		 xor	 edx, edx
  000a8	8b 45 14	 mov	 eax, DWORD PTR _out_ranges$[ebp]
  000ab	66 89 14 08	 mov	 WORD PTR [eax+ecx], dx

; 2309 : }

  000af	5f		 pop	 edi
  000b0	5e		 pop	 esi
  000b1	5b		 pop	 ebx
  000b2	81 c4 d0 00 00
	00		 add	 esp, 208		; 000000d0H
  000b8	3b ec		 cmp	 ebp, esp
  000ba	e8 00 00 00 00	 call	 __RTC_CheckEsp
  000bf	8b e5		 mov	 esp, ebp
  000c1	5d		 pop	 ebp
  000c2	c3		 ret	 0
?UnpackAccumulativeOffsetsIntoRanges@@YAXHPBFHPAG@Z ENDP ; UnpackAccumulativeOffsetsIntoRanges
_TEXT	ENDS
; Function compile flags: /Odtp /RTCsu /ZI
; File D:\Programmieren\csgoHack\ProjektWolf\ImGui DirectX 9 Kiero Hook 2\imgui\imgui_draw.cpp
;	COMDAT ?ImFontAtlasBuildRenderDefaultTexData@@YAXPAUImFontAtlas@@@Z
_TEXT	SEGMENT
tv181 = -308						; size = 4
tv172 = -308						; size = 4
$T1 = -300						; size = 8
_offset$2 = -92						; size = 4
_offset1$3 = -80					; size = 4
_offset0$4 = -68					; size = 4
_x$5 = -56						; size = 4
_n$6 = -44						; size = 4
_y$7 = -32						; size = 4
_w$ = -20						; size = 4
_r$ = -8						; size = 4
_atlas$ = 8						; size = 4
?ImFontAtlasBuildRenderDefaultTexData@@YAXPAUImFontAtlas@@@Z PROC ; ImFontAtlasBuildRenderDefaultTexData, COMDAT

; 2192 : {

  00000	55		 push	 ebp
  00001	8b ec		 mov	 ebp, esp
  00003	81 ec 34 01 00
	00		 sub	 esp, 308		; 00000134H
  00009	53		 push	 ebx
  0000a	56		 push	 esi
  0000b	57		 push	 edi
  0000c	8d bd cc fe ff
	ff		 lea	 edi, DWORD PTR [ebp-308]
  00012	b9 4d 00 00 00	 mov	 ecx, 77			; 0000004dH
  00017	b8 cc cc cc cc	 mov	 eax, -858993460		; ccccccccH
  0001c	f3 ab		 rep stosd
  0001e	b9 00 00 00 00	 mov	 ecx, OFFSET __C693DA93_imgui_draw@cpp
  00023	e8 00 00 00 00	 call	 @__CheckForDebuggerJustMyCode@4

; 2193 :     IM_ASSERT(atlas->CustomRectIds[0] >= 0);

  00028	b8 04 00 00 00	 mov	 eax, 4
  0002d	6b c8 00	 imul	 ecx, eax, 0
  00030	8b 55 08	 mov	 edx, DWORD PTR _atlas$[ebp]
  00033	83 7c 0a 58 00	 cmp	 DWORD PTR [edx+ecx+88], 0
  00038	7d 25		 jge	 SHORT $LN11@ImFontAtla
  0003a	a1 00 00 00 00	 mov	 eax, DWORD PTR ?__LINE__Var@?0??ImFontAtlasBuildRenderDefaultTexData@@YAXPAUImFontAtlas@@@Z@4JA
  0003f	83 c0 01	 add	 eax, 1
  00042	8b f4		 mov	 esi, esp
  00044	50		 push	 eax
  00045	68 00 00 00 00	 push	 OFFSET ??_C@_1LA@MPFJCAF@?$AAD?$AA?3?$AA?2?$AAP?$AAr?$AAo?$AAg?$AAr?$AAa?$AAm?$AAm?$AAi?$AAe?$AAr?$AAe@
  0004a	68 00 00 00 00	 push	 OFFSET ??_C@_1DK@CIPOCJML@?$AAa?$AAt?$AAl?$AAa?$AAs?$AA?9?$AA?$DO?$AAC?$AAu?$AAs?$AAt?$AAo?$AAm?$AAR?$AAe@
  0004f	ff 15 00 00 00
	00		 call	 DWORD PTR __imp___wassert
  00055	83 c4 0c	 add	 esp, 12			; 0000000cH
  00058	3b f4		 cmp	 esi, esp
  0005a	e8 00 00 00 00	 call	 __RTC_CheckEsp
$LN11@ImFontAtla:

; 2194 :     IM_ASSERT(atlas->TexPixelsAlpha8 != NULL);

  0005f	8b 45 08	 mov	 eax, DWORD PTR _atlas$[ebp]
  00062	83 78 14 00	 cmp	 DWORD PTR [eax+20], 0
  00066	75 26		 jne	 SHORT $LN12@ImFontAtla
  00068	8b 0d 00 00 00
	00		 mov	 ecx, DWORD PTR ?__LINE__Var@?0??ImFontAtlasBuildRenderDefaultTexData@@YAXPAUImFontAtlas@@@Z@4JA
  0006e	83 c1 02	 add	 ecx, 2
  00071	8b f4		 mov	 esi, esp
  00073	51		 push	 ecx
  00074	68 00 00 00 00	 push	 OFFSET ??_C@_1LA@MPFJCAF@?$AAD?$AA?3?$AA?2?$AAP?$AAr?$AAo?$AAg?$AAr?$AAa?$AAm?$AAm?$AAi?$AAe?$AAr?$AAe@
  00079	68 00 00 00 00	 push	 OFFSET ??_C@_1DI@LKIOFBD@?$AAa?$AAt?$AAl?$AAa?$AAs?$AA?9?$AA?$DO?$AAT?$AAe?$AAx?$AAP?$AAi?$AAx?$AAe?$AAl@
  0007e	ff 15 00 00 00
	00		 call	 DWORD PTR __imp___wassert
  00084	83 c4 0c	 add	 esp, 12			; 0000000cH
  00087	3b f4		 cmp	 esi, esp
  00089	e8 00 00 00 00	 call	 __RTC_CheckEsp
$LN12@ImFontAtla:

; 2195 :     ImFontAtlasCustomRect& r = atlas->CustomRects[atlas->CustomRectIds[0]];

  0008e	b8 04 00 00 00	 mov	 eax, 4
  00093	6b c8 00	 imul	 ecx, eax, 0
  00096	8b 55 08	 mov	 edx, DWORD PTR _atlas$[ebp]
  00099	8b 44 0a 58	 mov	 eax, DWORD PTR [edx+ecx+88]
  0009d	50		 push	 eax
  0009e	8b 4d 08	 mov	 ecx, DWORD PTR _atlas$[ebp]
  000a1	83 c1 40	 add	 ecx, 64			; 00000040H
  000a4	e8 00 00 00 00	 call	 ??A?$ImVector@UImFontAtlasCustomRect@@@@QAEAAUImFontAtlasCustomRect@@H@Z ; ImVector<ImFontAtlasCustomRect>::operator[]
  000a9	89 45 f8	 mov	 DWORD PTR _r$[ebp], eax

; 2196 :     IM_ASSERT(r.ID == FONT_ATLAS_DEFAULT_TEX_DATA_ID);

  000ac	8b 45 f8	 mov	 eax, DWORD PTR _r$[ebp]
  000af	81 38 00 00 00
	80		 cmp	 DWORD PTR [eax], -2147483648 ; 80000000H
  000b5	74 26		 je	 SHORT $LN13@ImFontAtla
  000b7	8b 0d 00 00 00
	00		 mov	 ecx, DWORD PTR ?__LINE__Var@?0??ImFontAtlasBuildRenderDefaultTexData@@YAXPAUImFontAtlas@@@Z@4JA
  000bd	83 c1 04	 add	 ecx, 4
  000c0	8b f4		 mov	 esi, esp
  000c2	51		 push	 ecx
  000c3	68 00 00 00 00	 push	 OFFSET ??_C@_1LA@MPFJCAF@?$AAD?$AA?3?$AA?2?$AAP?$AAr?$AAo?$AAg?$AAr?$AAa?$AAm?$AAm?$AAi?$AAe?$AAr?$AAe@
  000c8	68 00 00 00 00	 push	 OFFSET ??_C@_1EO@NGCKHELE@?$AAr?$AA?4?$AAI?$AAD?$AA?5?$AA?$DN?$AA?$DN?$AA?5?$AAF?$AAO?$AAN?$AAT?$AA_?$AAA?$AAT@
  000cd	ff 15 00 00 00
	00		 call	 DWORD PTR __imp___wassert
  000d3	83 c4 0c	 add	 esp, 12			; 0000000cH
  000d6	3b f4		 cmp	 esi, esp
  000d8	e8 00 00 00 00	 call	 __RTC_CheckEsp
$LN13@ImFontAtla:

; 2197 :     IM_ASSERT(r.IsPacked());

  000dd	8b 4d f8	 mov	 ecx, DWORD PTR _r$[ebp]
  000e0	e8 00 00 00 00	 call	 ?IsPacked@ImFontAtlasCustomRect@@QBE_NXZ ; ImFontAtlasCustomRect::IsPacked
  000e5	0f b6 c0	 movzx	 eax, al
  000e8	85 c0		 test	 eax, eax
  000ea	75 26		 jne	 SHORT $LN14@ImFontAtla
  000ec	8b 0d 00 00 00
	00		 mov	 ecx, DWORD PTR ?__LINE__Var@?0??ImFontAtlasBuildRenderDefaultTexData@@YAXPAUImFontAtlas@@@Z@4JA
  000f2	83 c1 05	 add	 ecx, 5
  000f5	8b f4		 mov	 esi, esp
  000f7	51		 push	 ecx
  000f8	68 00 00 00 00	 push	 OFFSET ??_C@_1LA@MPFJCAF@?$AAD?$AA?3?$AA?2?$AAP?$AAr?$AAo?$AAg?$AAr?$AAa?$AAm?$AAm?$AAi?$AAe?$AAr?$AAe@
  000fd	68 00 00 00 00	 push	 OFFSET ??_C@_1BK@MDHNDFCJ@?$AAr?$AA?4?$AAI?$AAs?$AAP?$AAa?$AAc?$AAk?$AAe?$AAd?$AA?$CI?$AA?$CJ@
  00102	ff 15 00 00 00
	00		 call	 DWORD PTR __imp___wassert
  00108	83 c4 0c	 add	 esp, 12			; 0000000cH
  0010b	3b f4		 cmp	 esi, esp
  0010d	e8 00 00 00 00	 call	 __RTC_CheckEsp
$LN14@ImFontAtla:

; 2198 : 
; 2199 :     const int w = atlas->TexWidth;

  00112	8b 45 08	 mov	 eax, DWORD PTR _atlas$[ebp]
  00115	8b 48 1c	 mov	 ecx, DWORD PTR [eax+28]
  00118	89 4d ec	 mov	 DWORD PTR _w$[ebp], ecx

; 2200 :     if (!(atlas->Flags & ImFontAtlasFlags_NoMouseCursors))

  0011b	8b 45 08	 mov	 eax, DWORD PTR _atlas$[ebp]
  0011e	8b 48 04	 mov	 ecx, DWORD PTR [eax+4]
  00121	83 e1 02	 and	 ecx, 2
  00124	0f 85 2c 01 00
	00		 jne	 $LN8@ImFontAtla

; 2201 :     {
; 2202 :         // Render/copy pixels
; 2203 :         IM_ASSERT(r.Width == FONT_ATLAS_DEFAULT_TEX_DATA_W_HALF * 2 + 1 && r.Height == FONT_ATLAS_DEFAULT_TEX_DATA_H);

  0012a	8b 45 f8	 mov	 eax, DWORD PTR _r$[ebp]
  0012d	0f b7 48 04	 movzx	 ecx, WORD PTR [eax+4]
  00131	81 f9 d9 00 00
	00		 cmp	 ecx, 217		; 000000d9H
  00137	75 0c		 jne	 SHORT $LN15@ImFontAtla
  00139	8b 55 f8	 mov	 edx, DWORD PTR _r$[ebp]
  0013c	0f b7 42 06	 movzx	 eax, WORD PTR [edx+6]
  00140	83 f8 1b	 cmp	 eax, 27			; 0000001bH
  00143	74 26		 je	 SHORT $LN16@ImFontAtla
$LN15@ImFontAtla:
  00145	8b 0d 00 00 00
	00		 mov	 ecx, DWORD PTR ?__LINE__Var@?0??ImFontAtlasBuildRenderDefaultTexData@@YAXPAUImFontAtlas@@@Z@4JA
  0014b	83 c1 0b	 add	 ecx, 11			; 0000000bH
  0014e	8b f4		 mov	 esi, esp
  00150	51		 push	 ecx
  00151	68 00 00 00 00	 push	 OFFSET ??_C@_1LA@MPFJCAF@?$AAD?$AA?3?$AA?2?$AAP?$AAr?$AAo?$AAg?$AAr?$AAa?$AAm?$AAm?$AAi?$AAe?$AAr?$AAe@
  00156	68 00 00 00 00	 push	 OFFSET ??_C@_1MG@KMJKJDJG@?$AAr?$AA?4?$AAW?$AAi?$AAd?$AAt?$AAh?$AA?5?$AA?$DN?$AA?$DN?$AA?5?$AAF?$AAO?$AAN?$AAT@
  0015b	ff 15 00 00 00
	00		 call	 DWORD PTR __imp___wassert
  00161	83 c4 0c	 add	 esp, 12			; 0000000cH
  00164	3b f4		 cmp	 esi, esp
  00166	e8 00 00 00 00	 call	 __RTC_CheckEsp
$LN16@ImFontAtla:

; 2204 :         for (int y = 0, n = 0; y < FONT_ATLAS_DEFAULT_TEX_DATA_H; y++)

  0016b	c7 45 e0 00 00
	00 00		 mov	 DWORD PTR _y$7[ebp], 0
  00172	c7 45 d4 00 00
	00 00		 mov	 DWORD PTR _n$6[ebp], 0
  00179	eb 09		 jmp	 SHORT $LN4@ImFontAtla
$LN2@ImFontAtla:
  0017b	8b 45 e0	 mov	 eax, DWORD PTR _y$7[ebp]
  0017e	83 c0 01	 add	 eax, 1
  00181	89 45 e0	 mov	 DWORD PTR _y$7[ebp], eax
$LN4@ImFontAtla:
  00184	83 7d e0 1b	 cmp	 DWORD PTR _y$7[ebp], 27	; 0000001bH
  00188	0f 8d c3 00 00
	00		 jge	 $LN3@ImFontAtla

; 2205 :             for (int x = 0; x < FONT_ATLAS_DEFAULT_TEX_DATA_W_HALF; x++, n++)

  0018e	c7 45 c8 00 00
	00 00		 mov	 DWORD PTR _x$5[ebp], 0
  00195	eb 12		 jmp	 SHORT $LN7@ImFontAtla
$LN5@ImFontAtla:
  00197	8b 45 c8	 mov	 eax, DWORD PTR _x$5[ebp]
  0019a	83 c0 01	 add	 eax, 1
  0019d	89 45 c8	 mov	 DWORD PTR _x$5[ebp], eax
  001a0	8b 4d d4	 mov	 ecx, DWORD PTR _n$6[ebp]
  001a3	83 c1 01	 add	 ecx, 1
  001a6	89 4d d4	 mov	 DWORD PTR _n$6[ebp], ecx
$LN7@ImFontAtla:
  001a9	83 7d c8 6c	 cmp	 DWORD PTR _x$5[ebp], 108 ; 0000006cH
  001ad	0f 8d 99 00 00
	00		 jge	 $LN6@ImFontAtla

; 2206 :             {
; 2207 :                 const int offset0 = (int)(r.X + x) + (int)(r.Y + y) * w;

  001b3	8b 45 f8	 mov	 eax, DWORD PTR _r$[ebp]
  001b6	0f b7 48 08	 movzx	 ecx, WORD PTR [eax+8]
  001ba	03 4d c8	 add	 ecx, DWORD PTR _x$5[ebp]
  001bd	8b 55 f8	 mov	 edx, DWORD PTR _r$[ebp]
  001c0	0f b7 42 0a	 movzx	 eax, WORD PTR [edx+10]
  001c4	03 45 e0	 add	 eax, DWORD PTR _y$7[ebp]
  001c7	0f af 45 ec	 imul	 eax, DWORD PTR _w$[ebp]
  001cb	03 c8		 add	 ecx, eax
  001cd	89 4d bc	 mov	 DWORD PTR _offset0$4[ebp], ecx

; 2208 :                 const int offset1 = offset0 + FONT_ATLAS_DEFAULT_TEX_DATA_W_HALF + 1;

  001d0	8b 45 bc	 mov	 eax, DWORD PTR _offset0$4[ebp]
  001d3	83 c0 6d	 add	 eax, 109		; 0000006dH
  001d6	89 45 b0	 mov	 DWORD PTR _offset1$3[ebp], eax

; 2209 :                 atlas->TexPixelsAlpha8[offset0] = FONT_ATLAS_DEFAULT_TEX_DATA_PIXELS[n] == '.' ? 0xFF : 0x00;

  001d9	8b 45 d4	 mov	 eax, DWORD PTR _n$6[ebp]
  001dc	0f be 88 00 00
	00 00		 movsx	 ecx, BYTE PTR ?FONT_ATLAS_DEFAULT_TEX_DATA_PIXELS@@3QBDB[eax]
  001e3	83 f9 2e	 cmp	 ecx, 46			; 0000002eH
  001e6	75 0c		 jne	 SHORT $LN17@ImFontAtla
  001e8	c7 85 cc fe ff
	ff ff 00 00 00	 mov	 DWORD PTR tv172[ebp], 255 ; 000000ffH
  001f2	eb 0a		 jmp	 SHORT $LN18@ImFontAtla
$LN17@ImFontAtla:
  001f4	c7 85 cc fe ff
	ff 00 00 00 00	 mov	 DWORD PTR tv172[ebp], 0
$LN18@ImFontAtla:
  001fe	8b 55 08	 mov	 edx, DWORD PTR _atlas$[ebp]
  00201	8b 42 14	 mov	 eax, DWORD PTR [edx+20]
  00204	8b 4d bc	 mov	 ecx, DWORD PTR _offset0$4[ebp]
  00207	8a 95 cc fe ff
	ff		 mov	 dl, BYTE PTR tv172[ebp]
  0020d	88 14 08	 mov	 BYTE PTR [eax+ecx], dl

; 2210 :                 atlas->TexPixelsAlpha8[offset1] = FONT_ATLAS_DEFAULT_TEX_DATA_PIXELS[n] == 'X' ? 0xFF : 0x00;

  00210	8b 45 d4	 mov	 eax, DWORD PTR _n$6[ebp]
  00213	0f be 88 00 00
	00 00		 movsx	 ecx, BYTE PTR ?FONT_ATLAS_DEFAULT_TEX_DATA_PIXELS@@3QBDB[eax]
  0021a	83 f9 58	 cmp	 ecx, 88			; 00000058H
  0021d	75 0c		 jne	 SHORT $LN19@ImFontAtla
  0021f	c7 85 cc fe ff
	ff ff 00 00 00	 mov	 DWORD PTR tv181[ebp], 255 ; 000000ffH
  00229	eb 0a		 jmp	 SHORT $LN20@ImFontAtla
$LN19@ImFontAtla:
  0022b	c7 85 cc fe ff
	ff 00 00 00 00	 mov	 DWORD PTR tv181[ebp], 0
$LN20@ImFontAtla:
  00235	8b 55 08	 mov	 edx, DWORD PTR _atlas$[ebp]
  00238	8b 42 14	 mov	 eax, DWORD PTR [edx+20]
  0023b	8b 4d b0	 mov	 ecx, DWORD PTR _offset1$3[ebp]
  0023e	8a 95 cc fe ff
	ff		 mov	 dl, BYTE PTR tv181[ebp]
  00244	88 14 08	 mov	 BYTE PTR [eax+ecx], dl

; 2211 :             }

  00247	e9 4b ff ff ff	 jmp	 $LN5@ImFontAtla
$LN6@ImFontAtla:
  0024c	e9 2a ff ff ff	 jmp	 $LN2@ImFontAtla
$LN3@ImFontAtla:

; 2212 :     }

  00251	e9 91 00 00 00	 jmp	 $LN9@ImFontAtla
$LN8@ImFontAtla:

; 2213 :     else
; 2214 :     {
; 2215 :         IM_ASSERT(r.Width == 2 && r.Height == 2);

  00256	8b 45 f8	 mov	 eax, DWORD PTR _r$[ebp]
  00259	0f b7 48 04	 movzx	 ecx, WORD PTR [eax+4]
  0025d	83 f9 02	 cmp	 ecx, 2
  00260	75 0c		 jne	 SHORT $LN21@ImFontAtla
  00262	8b 55 f8	 mov	 edx, DWORD PTR _r$[ebp]
  00265	0f b7 42 06	 movzx	 eax, WORD PTR [edx+6]
  00269	83 f8 02	 cmp	 eax, 2
  0026c	74 26		 je	 SHORT $LN22@ImFontAtla
$LN21@ImFontAtla:
  0026e	8b 0d 00 00 00
	00		 mov	 ecx, DWORD PTR ?__LINE__Var@?0??ImFontAtlasBuildRenderDefaultTexData@@YAXPAUImFontAtlas@@@Z@4JA
  00274	83 c1 17	 add	 ecx, 23			; 00000017H
  00277	8b f4		 mov	 esi, esp
  00279	51		 push	 ecx
  0027a	68 00 00 00 00	 push	 OFFSET ??_C@_1LA@MPFJCAF@?$AAD?$AA?3?$AA?2?$AAP?$AAr?$AAo?$AAg?$AAr?$AAa?$AAm?$AAm?$AAi?$AAe?$AAr?$AAe@
  0027f	68 00 00 00 00	 push	 OFFSET ??_C@_1DM@OOPIKMMI@?$AAr?$AA?4?$AAW?$AAi?$AAd?$AAt?$AAh?$AA?5?$AA?$DN?$AA?$DN?$AA?5?$AA2?$AA?5?$AA?$CG?$AA?$CG@
  00284	ff 15 00 00 00
	00		 call	 DWORD PTR __imp___wassert
  0028a	83 c4 0c	 add	 esp, 12			; 0000000cH
  0028d	3b f4		 cmp	 esi, esp
  0028f	e8 00 00 00 00	 call	 __RTC_CheckEsp
$LN22@ImFontAtla:

; 2216 :         const int offset = (int)(r.X) + (int)(r.Y) * w;

  00294	8b 45 f8	 mov	 eax, DWORD PTR _r$[ebp]
  00297	0f b7 48 08	 movzx	 ecx, WORD PTR [eax+8]
  0029b	8b 55 f8	 mov	 edx, DWORD PTR _r$[ebp]
  0029e	0f b7 42 0a	 movzx	 eax, WORD PTR [edx+10]
  002a2	0f af 45 ec	 imul	 eax, DWORD PTR _w$[ebp]
  002a6	03 c8		 add	 ecx, eax
  002a8	89 4d a4	 mov	 DWORD PTR _offset$2[ebp], ecx

; 2217 :         atlas->TexPixelsAlpha8[offset] = atlas->TexPixelsAlpha8[offset + 1] = atlas->TexPixelsAlpha8[offset + w] = atlas->TexPixelsAlpha8[offset + w + 1] = 0xFF;

  002ab	8b 45 a4	 mov	 eax, DWORD PTR _offset$2[ebp]
  002ae	03 45 ec	 add	 eax, DWORD PTR _w$[ebp]
  002b1	8b 4d 08	 mov	 ecx, DWORD PTR _atlas$[ebp]
  002b4	8b 51 14	 mov	 edx, DWORD PTR [ecx+20]
  002b7	c6 44 02 01 ff	 mov	 BYTE PTR [edx+eax+1], 255 ; 000000ffH
  002bc	8b 45 a4	 mov	 eax, DWORD PTR _offset$2[ebp]
  002bf	03 45 ec	 add	 eax, DWORD PTR _w$[ebp]
  002c2	8b 4d 08	 mov	 ecx, DWORD PTR _atlas$[ebp]
  002c5	8b 51 14	 mov	 edx, DWORD PTR [ecx+20]
  002c8	c6 04 02 ff	 mov	 BYTE PTR [edx+eax], 255	; 000000ffH
  002cc	8b 45 08	 mov	 eax, DWORD PTR _atlas$[ebp]
  002cf	8b 48 14	 mov	 ecx, DWORD PTR [eax+20]
  002d2	8b 55 a4	 mov	 edx, DWORD PTR _offset$2[ebp]
  002d5	c6 44 11 01 ff	 mov	 BYTE PTR [ecx+edx+1], 255 ; 000000ffH
  002da	8b 45 08	 mov	 eax, DWORD PTR _atlas$[ebp]
  002dd	8b 48 14	 mov	 ecx, DWORD PTR [eax+20]
  002e0	8b 55 a4	 mov	 edx, DWORD PTR _offset$2[ebp]
  002e3	c6 04 11 ff	 mov	 BYTE PTR [ecx+edx], 255	; 000000ffH
$LN9@ImFontAtla:

; 2218 :     }
; 2219 :     atlas->TexUvWhitePixel = ImVec2((r.X + 0.5f) * atlas->TexUvScale.x, (r.Y + 0.5f) * atlas->TexUvScale.y);

  002e7	8b 45 f8	 mov	 eax, DWORD PTR _r$[ebp]
  002ea	0f b7 48 0a	 movzx	 ecx, WORD PTR [eax+10]
  002ee	f3 0f 2a c1	 cvtsi2ss xmm0, ecx
  002f2	f3 0f 58 05 00
	00 00 00	 addss	 xmm0, DWORD PTR __real@3f000000
